--------------------------------------------------
Z80 DISASSEMBLER LISTING
Line   Addr Opcodes     Label   Instruction
--------------------------------------------------

0001   0000 C3 6C 00            JP L0001
0002   0003 3C                  INC A
0003   0004 01 01 00            LD BC,0001H
0004   0007 00                  NOP
0005   0008 00                  NOP
0006   0009 00                  NOP
0007   000A 00                  NOP
0008   000B 00                  NOP
0009   000C 00                  NOP
0010   000D 00                  NOP
0011   000E 00                  NOP
0012   000F 00                  NOP
0013   0010 00                  NOP
0014   0011 00                  NOP
0015   0012 00                  NOP
0016   0013 00                  NOP
0017   0014 00                  NOP
0018   0015 00                  NOP
0019   0016 00                  NOP
0020   0017 00                  NOP
0021   0018 00                  NOP
0022   0019 00                  NOP
0023   001A 00                  NOP
0024   001B 00                  NOP
0025   001C 00                  NOP
0026   001D 00                  NOP
0027   001E 00                  NOP
0028   001F 00                  NOP
0029   0020 00                  NOP
0030   0021 00                  NOP
0031   0022 00                  NOP
0032   0023 00                  NOP
0033   0024 00                  NOP
0034   0025 00                  NOP
0035   0026 00                  NOP
0036   0027 00                  NOP
0037   0028 00                  NOP
0038   0029 00                  NOP
0039   002A 00                  NOP
0040   002B 00                  NOP
0041   002C 00                  NOP
0042   002D 00                  NOP
0043   002E 00                  NOP
0044   002F 00                  NOP
0045   0030 00                  NOP
0046   0031 00                  NOP
0047   0032 00                  NOP
0048   0033 00                  NOP
0049   0034 00                  NOP
0050   0035 00                  NOP
0051   0036 00                  NOP
0052   0037 00                  NOP
0053   0038 00                  NOP
0054   0039 00                  NOP
0055   003A 00                  NOP
0056   003B 00                  NOP
0057   003C 00                  NOP
0058   003D 00                  NOP
0059   003E 00                  NOP
0060   003F 00                  NOP
0061   0040 00                  NOP
0062   0041 00                  NOP
0063   0042 00                  NOP
0064   0043 00                  NOP
0065   0044 00                  NOP
0066   0045 00                  NOP
0067   0046 00                  NOP
0068   0047 00                  NOP
0069   0048 00                  NOP
0070   0049 00                  NOP
0071   004A 00                  NOP
0072   004B 00                  NOP
0073   004C 00                  NOP
0074   004D 00                  NOP
0075   004E 00                  NOP
0076   004F 00                  NOP
0077   0050 00                  NOP
0078   0051 00                  NOP
0079   0052 00                  NOP
0080   0053 00                  NOP
0081   0054 00                  NOP
0082   0055 00                  NOP
0083   0056 00                  NOP
0084   0057 00                  NOP
0085   0058 00                  NOP
0086   0059 00                  NOP
0087   005A 00                  NOP
0088   005B 00                  NOP
0089   005C 00                  NOP
0090   005D 00                  NOP
0091   005E 00                  NOP
0092   005F 00                  NOP
0093   0060 00                  NOP
0094   0061 00                  NOP
0095   0062 00                  NOP
0096   0063 00                  NOP
0097   0064 00                  NOP
0098   0065 00                  NOP
0099   0066 E5                  PUSH HL
0100   0067 2A 5A 20            LD HL,(205AH)
0101   006A E3                  EX (SP),HL
0102   006B C9                  RET
0103   006C F3          L0001:  DI
0104   006D 21 18 01            LD HL,0118H
0105   0070 22 5A 20            LD (205AH),HL
0106   0073 1E 00               LD E,00H
0107   0075 01 8A 12    L0007:  LD BC,128AH
0108   0078 21 20 20            LD HL,2020H
0109   007B 79          L0002:  LD A,C
0110   007C AB                  XOR E
0111   007D 77                  LD (HL),A
0112   007E 23                  INC HL
0113   007F 0D                  DEC C
0114   0080 20 F9               JR NZ,L0002
0115   0082 05                  DEC B
0116   0083 F2 7B 00            JP P,L0002
0117   0086 01 8A 12            LD BC,128AH
0118   0089 21 20 20            LD HL,2020H
0119   008C 79          L0006:  LD A,C
0120   008D AB                  XOR E
0121   008E BE                  CP (HL)
0122   008F 28 18               JR Z,L0003
0123   0091 3E 0A       L0005:  LD A,0AH
0124   0093 32 0F A0            LD (0A00FH),A
0125   0096 0D          L0004:  DEC C
0126   0097 20 FD               JR NZ,L0004
0127   0099 05                  DEC B
0128   009A C2 96 00            JP NZ,L0004
0129   009D 3D                  DEC A
0130   009E 28 F1               JR Z,L0005
0131   00A0 FE 05               CP 05H
0132   00A2 20 F2               JR NZ,L0004
0133   00A4 32 07 A0            LD (0A007H),A
0134   00A7 18 ED               JR L0004
0135   00A9 36 00       L0003:  LD (HL),00H
0136   00AB 23                  INC HL
0137   00AC 0D                  DEC C
0138   00AD 20 DD               JR NZ,L0006
0139   00AF 05                  DEC B
0140   00B0 F2 8C 00            JP P,L0006
0141   00B3 1D                  DEC E
0142   00B4 7B                  LD A,E
0143   00B5 FE FE               CP 0FEH
0144   00B7 20 BC               JR NZ,L0007
0145   00B9 31 9C 20            LD SP,209CH
0146   00BC 21 46 01            LD HL,0146H
0147   00BF E5                  PUSH HL
0148   00C0 ED 73 56 20         LD (2056H),SP
0149   00C4 31 9C 21            LD SP,219CH
0150   00C7 ED 5E               IM 2
0151   00C9 3E 20               LD A,20H
0152   00CB ED 47               LD I,A
0153   00CD 21 F8 00            LD HL,00F8H
0154   00D0 06 10               LD B,10H
0155   00D2 4E          L0008:  LD C,(HL)
0156   00D3 23                  INC HL
0157   00D4 7E                  LD A,(HL)
0158   00D5 23                  INC HL
0159   00D6 ED 79               OUT (C),A
0160   00D8 10 F8               DJNZ L0008
0161   00DA DB F8               IN A,(0F8H)
0162   00DC 21 1A 01            LD HL,011AH
0163   00DF 11 00 20            LD DE,2000H
0164   00E2 01 20 00            LD BC,0020H
0165   00E5 ED B0               LDIR
0166   00E7 FB                  EI
0167   00E8 DB E2       L0010:  IN A,(0E2H)
0168   00EA CB 57               BIT 2,A
0169   00EC C2 E0 02            JP NZ,L0009
0170   00EF 2A 20 20            LD HL,(2020H)
0171   00F2 3E 00               LD A,00H
0172   00F4 B4                  OR H
0173   00F5 28 F1               JR Z,L0010
0174   00F7 E9                  JP (HL)
0175   00F8 F0          L0011:  RET P
0176   00F9 00                  NOP
0177   00FA F9          L0012:  LD SP,HL
0178   00FB 18 FB               JR L0011
0179   00FD 18 F9               JR L0011
0180   00FF 10 F9               DJNZ L0012
0181   0101 28 F9               JR Z,L0013
0182   0103 30 FB               JR NC,L0014
0183   0105 02                  LD (BC),A
0184   0106 FB                  EI
0185   0107 10 F9               DJNZ L0015
0186   0109 04                  INC B
0187   010A F9                  LD SP,HL
0188   010B 4C                  LD C,H
0189   010C F9                  LD SP,HL
0190   010D 03                  INC BC
0191   010E F9                  LD SP,HL
0192   010F C1                  POP BC
0193   0110 F9                  LD SP,HL
0194   0111 05                  DEC B
0195   0112 F9                  LD SP,HL
0196   0113 68                  LD L,B
0197   0114 F9                  LD SP,HL
0198   0115 01 F9 1E            LD BC,1EF9H
0199   0118 ED 45               RETN
0200   011A 3A 01 3A            LD A,(3A01H)
0201   011D 01 3A 01            LD BC,013AH
0202   0120 3A 01 3A            LD A,(3A01H)
0203   0123 01 3A 01            LD BC,013AH
0204   0126 3A 01 3A            LD A,(3A01H)
0205   0129 01 3A 01            LD BC,013AH
0206   012C 3A 01 3A            LD A,(3A01H)
0207   012F 01 3A 01            LD BC,013AH
0208   0132 AF                  XOR A
0209   0133 02                  LD (BC),A
0210   0134 3D                  DEC A
0211   0135 01 7A 02            LD BC,027AH
0212   0138 3D                  DEC A
0213   0139 01 FB ED            LD BC,0EDFBH
0214   013C 4D                  LD C,L
0215   013D F5                  PUSH AF
0216   013E 3E 30               LD A,30H
0217   0140 D3 F9               OUT (0F9H),A
0218   0142 F1                  POP AF
0219   0143 FB                  EI
0220   0144 ED 4D               RETI
0221   0146 3E 00       L0022:  LD A,00H
0222   0148 32 54 20            LD (2054H),A
0223   014B CD 90 02    L0018:  CALL L0016
0224   014E FE 3A               CP 3AH
0225   0150 28 04               JR Z,L0017
0226   0152 FE 3B               CP 3BH
0227   0154 20 F5               JR NZ,L0018
0228   0156 32 28 20    L0017:  LD (2028H),A
0229   0159 CD 45 02            CALL L0019
0230   015C DA 07 02            JP C,L0020
0231   015F 32 26 20            LD (2026H),A
0232   0162 CD 31 02            CALL L0021
0233   0165 CD 45 02            CALL L0019
0234   0168 DA 07 02            JP C,L0020
0235   016B 32 53 20            LD (2053H),A
0236   016E CD 31 02            CALL L0021
0237   0171 CD 45 02            CALL L0019
0238   0174 DA 07 02            JP C,L0020
0239   0177 32 52 20            LD (2052H),A
0240   017A CD 31 02            CALL L0021
0241   017D CD 45 02            CALL L0019
0242   0180 DA 07 02            JP C,L0020
0243   0183 FE 01               CP 01H
0244   0185 C2 46 01            JP NZ,L0022
0245   0188 CD 31 02            CALL L0021
0246   018B 3A 28 20            LD A,(2028H)
0247   018E FE 3A               CP 3AH
0248   0190 28 2D               JR Z,L0023
0249   0192 3A 54 20            LD A,(2054H)
0250   0195 32 9E 21            LD (219EH),A
0251   0198 2A 52 20            LD HL,(2052H)
0252   019B ED 4B 26 20         LD BC,(2026H)
0253   019F 06 00               LD B,00H
0254   01A1 11 A0 21            LD DE,21A0H
0255   01A4 ED B0               LDIR
0256   01A6 21 A0 21            LD HL,21A0H
0257   01A9 7E                  LD A,(HL)
0258   01AA F5                  PUSH AF
0259   01AB CD 3A 02            CALL L0024
0260   01AE F1                  POP AF
0261   01AF D3 F8               OUT (0F8H),A
0262   01B1 23                  INC HL
0263   01B2 22 22 20            LD (2022H),HL
0264   01B5 3A 26 20            LD A,(2026H)
0265   01B8 3D                  DEC A
0266   01B9 32 24 20            LD (2024H),A
0267   01BC C3 46 01            JP L0022
0268   01BF DD 21 2A 20 L0023:  LD IX,202AH
0269   01C3 3A 26 20            LD A,(2026H)
0270   01C6 FE 00               CP 00H
0271   01C8 CA 4B 01            JP Z,L0018
0272   01CB 47                  LD B,A
0273   01CC CD 45 02    L0025:  CALL L0019
0274   01CF DA 07 02            JP C,L0020
0275   01D2 DD 77 00            LD (IX+00H),A
0276   01D5 CD 31 02            CALL L0021
0277   01D8 DD 23               INC IX
0278   01DA 10 F0               DJNZ L0025
0279   01DC CD 45 02            CALL L0019
0280   01DF DA 07 02            JP C,L0020
0281   01E2 21 54 20            LD HL,2054H
0282   01E5 BE                  CP (HL)
0283   01E6 20 1F               JR NZ,L0020
0284   01E8 CD 90 02            CALL L0016
0285   01EB FE 0D               CP 0DH
0286   01ED 20 18               JR NZ,L0020
0287   01EF 3A 54 20            LD A,(2054H)
0288   01F2 CD 16 02            CALL L0026
0289   01F5 ED 5B 52 20         LD DE,(2052H)
0290   01F9 21 2A 20            LD HL,202AH
0291   01FC ED 4B 26 20         LD BC,(2026H)
0292   0200 06 00               LD B,00H
0293   0202 ED B0               LDIR
0294   0204 C3 46 01            JP L0022
0295   0207 CD 90 02    L0020:  CALL L0016
0296   020A FE 0D               CP 0DH
0297   020C 20 F9               JR NZ,L0020
0298   020E 3E FF               LD A,0FFH
0299   0210 CD 16 02            CALL L0026
0300   0213 C3 46 01            JP L0022
0301   0216 D3 F8       L0026:  OUT (0F8H),A
0302   0218 C9                  RET
0303   0219 CD 1C 02            CALL L0027
0304   021C F5          L0027:  PUSH AF
0305   021D E6 0F               AND 0FH
0306   021F 6C                  LD L,H
0307   0220 FE 0A               CP 0AH
0308   0222 30 04               JR NC,L0028
0309   0224 F6 30               OR 30H
0310   0226 18 02               JR L0029
0311   0228 C6 37       L0028:  ADD A,37H
0312   022A 67          L0029:  LD H,A
0313   022B F1                  POP AF
0314   022C 0F                  RRCA
0315   022D 0F                  RRCA
0316   022E 0F                  RRCA
0317   022F 0F                  RRCA
0318   0230 C9                  RET
0319   0231 57          L0021:  LD D,A
0320   0232 3A 54 20            LD A,(2054H)
0321   0235 92                  SUB D
0322   0236 32 54 20            LD (2054H),A
0323   0239 C9                  RET
0324   023A D5          L0024:  PUSH DE
0325   023B 57                  LD D,A
0326   023C 3A 9E 21            LD A,(219EH)
0327   023F 92                  SUB D
0328   0240 32 9E 21            LD (219EH),A
0329   0243 D1                  POP DE
0330   0244 C9                  RET
0331   0245 C5          L0019:  PUSH BC
0332   0246 CD 90 02            CALL L0016
0333   0249 67                  LD H,A
0334   024A CD 90 02            CALL L0016
0335   024D 6F                  LD L,A
0336   024E CD 53 02            CALL L0030
0337   0251 C1                  POP BC
0338   0252 C9                  RET
0339   0253 06 00       L0030:  LD B,00H
0340   0255 7D                  LD A,L
0341   0256 CD 5C 02            CALL L0031
0342   0259 38 1E               JR C,L0032
0343   025B 7C                  LD A,H
0344   025C FE 30       L0031:  CP 30H
0345   025E 38 19               JR C,L0032
0346   0260 FE 3A               CP 3AH
0347   0262 38 0B               JR C,L0033
0348   0264 FE 41               CP 41H
0349   0266 38 11               JR C,L0032
0350   0268 FE 47               CP 47H
0351   026A 3F                  CCF
0352   026B 38 0C               JR C,L0032
0353   026D C6 09               ADD A,09H
0354   026F E6 0F       L0033:  AND 0FH
0355   0271 B0                  OR B
0356   0272 07                  RLCA
0357   0273 07                  RLCA
0358   0274 07                  RLCA
0359   0275 07                  RLCA
0360   0276 47                  LD B,A
0361   0277 37                  SCF
0362   0278 3F                  CCF
0363   0279 C9          L0032:  RET
0364   027A F3                  DI
0365   027B F5                  PUSH AF
0366   027C E5                  PUSH HL
0367   027D D5                  PUSH DE
0368   027E C5                  PUSH BC
0369   027F DD E5               PUSH IX
0370   0281 FD E5               PUSH IY
0371   0283 ED 73 58 20         LD (2058H),SP
0372   0287 ED 7B 56 20         LD SP,(2056H)
0373   028B DB F8               IN A,(0F8H)
0374   028D E6 7F               AND 7FH
0375   028F C9                  RET
0376   0290 DD E5       L0016:  PUSH IX
0377   0292 E5                  PUSH HL
0378   0293 D5                  PUSH DE
0379   0294 CD 9C 02            CALL L0034
0380   0297 D1                  POP DE
0381   0298 E1                  POP HL
0382   0299 DD E1       L0384:  POP IX
0383   029B C9                  RET
0384   029C ED 73 56 20 L0034:  LD (2056H),SP
0385   02A0 ED 7B 58 20         LD SP,(2058H)
0386   02A4 FD E1               POP IY
0387   02A6 DD E1               POP IX
0388   02A8 C1                  POP BC
0389   02A9 D1                  POP DE
0390   02AA E1                  POP HL
0391   02AB F1                  POP AF
0392   02AC FB                  EI
0393   02AD ED 4D               RETI
0394   02AF F3                  DI
0395   02B0 F5                  PUSH AF
0396   02B1 E5                  PUSH HL
0397   02B2 3A 24 20            LD A,(2024H)
0398   02B5 FE FF               CP 0FFH
0399   02B7 28 1D               JR Z,L0035
0400   02B9 3D                  DEC A
0401   02BA 32 24 20            LD (2024H),A
0402   02BD FE FF               CP 0FFH
0403   02BF 3A 9E 21            LD A,(219EH)
0404   02C2 28 08               JR Z,L0036
0405   02C4 2A 22 20            LD HL,(2022H)
0406   02C7 7E                  LD A,(HL)
0407   02C8 23                  INC HL
0408   02C9 22 22 20            LD (2022H),HL
0409   02CC D3 F8       L0036:  OUT (0F8H),A
0410   02CE CD 3A 02            CALL L0024
0411   02D1 E1          L0037:  POP HL
0412   02D2 F1                  POP AF
0413   02D3 FB                  EI
0414   02D4 ED 4D               RETI
0415   02D6 3E 28       L0035:  LD A,28H
0416   02D8 D3 F9               OUT (0F9H),A
0417   02DA 18 F5               JR L0037
0418   02DC 00                  NOP
0419   02DD 00                  NOP
0420   02DE 00                  NOP
0421   02DF 00                  NOP
0422   02E0 DD 21 49 04 L0009:  LD IX,0449H
0423   02E4 01 48 00            LD BC,0048H
0424   02E7 DD 6E 00    L0038:  LD L,(IX+00H)
0425   02EA DD 66 01            LD H,(IX+01H)
0426   02ED DD 5E 02            LD E,(IX+02H)
0427   02F0 DD 56 03            LD D,(IX+03H)
0428   02F3 73                  LD (HL),E
0429   02F4 23                  INC HL
0430   02F5 72                  LD (HL),D
0431   02F6 DD 23               INC IX
0432   02F8 DD 23               INC IX
0433   02FA DD 23               INC IX
0434   02FC DD 23               INC IX
0435   02FE 0B                  DEC BC
0436   02FF 78                  LD A,B
0437   0300 B1                  OR C
0438   0301 20 E4               JR NZ,L0038
0439   0303 F3                  DI
0440   0304 21 69 05            LD HL,0569H
0441   0307 06 14               LD B,14H
0442   0309 4E          L0039:  LD C,(HL)
0443   030A 23                  INC HL
0444   030B 7E                  LD A,(HL)
0445   030C 23                  INC HL
0446   030D ED 79               OUT (C),A
0447   030F 10 F8               DJNZ L0039
0448   0311 FB                  EI
0449   0312 2A 03 80            LD HL,(8003H)
0450   0315 11 3C 01            LD DE,013CH
0451   0318 37                  SCF
0452   0319 3F                  CCF
0453   031A ED 52               SBC HL,DE
0454   031C 28 07               JR Z,L0040
0455   031E 3E 1E       L0042:  LD A,1EH
0456   0320 CD 0E 04            CALL L0041
0457   0323 18 F9               JR L0042
0458   0325 DB E0       L0040:  IN A,(0E0H)
0459   0327 32 5F 2A            LD (2A5FH),A
0460   032A CB 3F               SRL A
0461   032C CB 3F               SRL A
0462   032E 4F                  LD C,A
0463   032F 06 00               LD B,00H
0464   0331 21 91 05            LD HL,0591H
0465   0334 09                  ADD HL,BC
0466   0335 7E                  LD A,(HL)
0467   0336 32 65 2A            LD (2A65H),A
0468   0339 21 D1 05            LD HL,05D1H
0469   033C 09                  ADD HL,BC
0470   033D 7E                  LD A,(HL)
0471   033E 32 63 2A            LD (2A63H),A
0472   0341 3A 7C 2A            LD A,(2A7CH)
0473   0344 A7                  AND A
0474   0345 06 05               LD B,05H
0475   0347 20 17               JR NZ,L0043
0476   0349 3A 7D 2A            LD A,(2A7DH)
0477   034C A7                  AND A
0478   034D 06 06               LD B,06H
0479   034F 20 0F               JR NZ,L0043
0480   0351 06 00               LD B,00H
0481   0353 3A 01 24            LD A,(2401H)
0482   0356 FE 05               CP 05H
0483   0358 28 11               JR Z,L0044
0484   035A FE 06               CP 06H
0485   035C 28 0D               JR Z,L0044
0486   035E 18 0F               JR L0045
0487   0360 3A 01 24    L0043:  LD A,(2401H)
0488   0363 FE 00               CP 00H
0489   0365 28 04               JR Z,L0044
0490   0367 FE 05               CP 05H
0491   0369 38 04               JR C,L0045
0492   036B 78          L0044:  LD A,B
0493   036C CD 0E 04            CALL L0041
0494   036F DB E2       L0045:  IN A,(0E2H)
0495   0371 CB 5F               BIT 3,A
0496   0373 28 0E               JR Z,L0046
0497   0375 3A 01 24            LD A,(2401H)
0498   0378 FE 12               CP 12H
0499   037A 20 18               JR NZ,L0047
0500   037C 3E 00               LD A,00H
0501   037E CD 0E 04            CALL L0041
0502   0381 18 11               JR L0047
0503   0383 3E 12       L0046:  LD A,12H
0504   0385 CD 0E 04            CALL L0041
0505   0388 3A 00 24            LD A,(2400H)
0506   038B FE 01               CP 01H
0507   038D 28 05               JR Z,L0047
0508   038F 3E 00               LD A,00H
0509   0391 32 00 24            LD (2400H),A
0510   0394 3A 00 24    L0047:  LD A,(2400H)
0511   0397 47                  LD B,A
0512   0398 FE 06               CP 06H
0513   039A 30 0C               JR NC,L0048
0514   039C 3A 6C 2A            LD A,(2A6CH)
0515   039F B8                  CP B
0516   03A0 CA E1 03            JP Z,L0049
0517   03A3 FE 00               CP 00H
0518   03A5 78                  LD A,B
0519   03A6 28 18               JR Z,L0050
0520   03A8 3E 00       L0048:  LD A,00H
0521   03AA 32 00 24            LD (2400H),A
0522   03AD 3A 6C 2A            LD A,(2A6CH)
0523   03B0 FE 02               CP 02H
0524   03B2 28 04               JR Z,L0051
0525   03B4 FE 04               CP 04H
0526   03B6 20 07               JR NZ,L0052
0527   03B8 3A 0B 2A    L0051:  LD A,(2A0BH)
0528   03BB A7                  AND A
0529   03BC C2 E1 03            JP NZ,L0049
0530   03BF AF          L0052:  XOR A
0531   03C0 32 6C 2A    L0050:  LD (2A6CH),A
0532   03C3 AF                  XOR A
0533   03C4 32 34 32            LD (3234H),A
0534   03C7 3A 6C 2A            LD A,(2A6CH)
0535   03CA 21 42 08            LD HL,0842H
0536   03CD 5F                  LD E,A
0537   03CE CB 23               SLA E
0538   03D0 16 00               LD D,00H
0539   03D2 19                  ADD HL,DE
0540   03D3 5E                  LD E,(HL)
0541   03D4 23                  INC HL
0542   03D5 56                  LD D,(HL)
0543   03D6 ED 53 6E 2A         LD (2A6EH),DE
0544   03DA 3A 45 32            LD A,(3245H)
0545   03DD A7                  AND A
0546   03DE C4 04 13            CALL NZ,L0053
0547   03E1 3A 6C 2A    L0049:  LD A,(2A6CH)
0548   03E4 A7                  AND A
0549   03E5 20 1E               JR NZ,L0054
0550   03E7 F3                  DI
0551   03E8 21 CF 09            LD HL,09CFH
0552   03EB 22 F5 2E            LD (2EF5H),HL
0553   03EE 21 F5 2E            LD HL,2EF5H
0554   03F1 22 F3 2D            LD (2DF3H),HL
0555   03F4 FB                  EI
0556   03F5 32 05 A0            LD (0A005H),A
0557   03F8 AF                  XOR A
0558   03F9 32 06 2D            LD (2D06H),A
0559   03FC 32 CA 2D            LD (2DCAH),A
0560   03FF CD 7F 08            CALL L0055
0561   0402 CD A8 06            CALL L0056
0562   0405 CD 07 80    L0054:  CALL L0057
0563   0408 CD F1 06            CALL L0058
0564   040B C3 25 03            JP L0040
0565   040E 32 01 24    L0041:  LD (2401H),A
0566   0411 FE 00               CP 00H
0567   0413 C8                  RET Z
0568   0414 FE 09               CP 09H
0569   0416 C8                  RET Z
0570   0417 FE 0B               CP 0BH
0571   0419 C8                  RET Z
0572   041A C5                  PUSH BC
0573   041B 47                  LD B,A
0574   041C 3A 5C 31            LD A,(315CH)
0575   041F B8                  CP B
0576   0420 20 0A               JR NZ,L0059
0577   0422 3A 08 24            LD A,(2408H)
0578   0425 4F                  LD C,A
0579   0426 3A 75 31            LD A,(3175H)
0580   0429 B9                  CP C
0581   042A 28 1B               JR Z,L0060
0582   042C E5          L0059:  PUSH HL
0583   042D D5                  PUSH DE
0584   042E 21 8C 31            LD HL,318CH
0585   0431 11 8D 31            LD DE,318DH
0586   0434 01 63 00            LD BC,0063H
0587   0437 ED B8               LDDR
0588   0439 3A 01 24            LD A,(2401H)
0589   043C 32 5C 31            LD (315CH),A
0590   043F 3A 08 24            LD A,(2408H)
0591   0442 32 75 31            LD (3175H),A
0592   0445 D1                  POP DE
0593   0446 E1                  POP HL
0594   0447 C1          L0060:  POP BC
0595   0448 C9                  RET
0596   0449 76                  HALT
0597   044A 2A 78 00            LD HL,(0078H)
0598   044D C5                  PUSH BC
0599   044E 31 0C 00            LD SP,000CH
0600   0451 80                  ADD A,B
0601   0452 2A 02 00            LD HL,(0002H)
0602   0455 10 2D               DJNZ L0061
0603   0457 02                  LD (BC),A
0604   0458 00                  NOP
0605   0459 6D                  LD L,L
0606   045A 2D                  DEC L
0607   045B FF                  RST 38H
0608   045C 00                  NOP
0609   045D 41                  LD B,C
0610   045E 2A 84 03            LD HL,(0384H)
0611   0461 45                  LD B,L
0612   0462 2A 3C 00            LD HL,(003CH)
0613   0465 49                  LD C,C
0614   0466 2A 14 00            LD HL,(0014H)
0615   0469 4D                  LD C,L
0616   046A 2A 32 00            LD HL,(0032H)
0617   046D 43                  LD B,E
0618   046E 2A DC 05            LD HL,(05DCH)
0619   0471 47                  LD B,A
0620   0472 2A 64 00            LD HL,(0064H)
0621   0475 4B                  LD C,E
0622   0476 2A 0F 00            LD HL,(000FH)
0623   0479 4F                  LD C,A
0624   047A 2A 32 00            LD HL,(0032H)
0625   047D B2                  OR D
0626   047E 2A A0 0F            LD HL,(0FA0H)
0627   0481 B6                  OR (HL)
0628   0482 2A 3C 00            LD HL,(003CH)
0629   0485 BA                  CP D
0630   0486 2A 14 00            LD HL,(0014H)
0631   0489 BE                  CP (HL)
0632   048A 2A 32 00            LD HL,(0032H)
0633   048D B4                  OR H
0634   048E 2A B8 0B            LD HL,(0BB8H)
0635   0491 BC                  CP H
0636   0492 2A 0F 00            LD HL,(000FH)
0637   0495 C0                  RET NZ
0638   0496 2A 32 00            LD HL,(0032H)
0639   0499 3D                  DEC A
0640   049A 2D                  DEC L
0641   049B 14                  INC D
0642   049C 00                  NOP
0643   049D C7                  RST 00H
0644   049E 2D                  DEC L
0645   049F 78                  LD A,B
0646   04A0 00                  NOP
0647   04A1 0C                  INC C
0648   04A2 2D                  DEC L
0649   04A3 C8                  RET Z
0650   04A4 00                  NOP
0651   04A5 0E 2D               LD C,2DH
0652   04A7 06 FF               LD B,0FFH
0653   04A9 38 2D               JR C,L0062
0654   04AB 32 00 1E            LD (1E00H),A
0655   04AE 2D                  DEC L
0656   04AF 41                  LD B,C
0657   04B0 00                  NOP
0658   04B1 20 2D               JR NZ,L0063
0659   04B3 03                  INC BC
0660   04B4 00                  NOP
0661   04B5 22 2D 23            LD (232DH),HL
0662   04B8 00                  NOP
0663   04B9 24                  INC H
0664   04BA 2D                  DEC L
0665   04BB 1E 00               LD E,00H
0666   04BD 26 2D               LD H,2DH
0667   04BF 00                  NOP
0668   04C0 00                  NOP
0669   04C1 2A 2D 0A            LD HL,(0A2DH)
0670   04C4 00                  NOP
0671   04C5 28 2D               JR Z,L0064
0672   04C7 B8                  CP B
0673   04C8 01 34 2D            LD BC,2D34H
0674   04CB DC 05 36            CALL C,L0065
0675   04CE 2D                  DEC L
0676   04CF 8C                  ADC A,H
0677   04D0 00                  NOP
0678   04D1 3A 2D 23            LD A,(232DH)
0679   04D4 00                  NOP
0680   04D5 2C                  INC L
0681   04D6 2D                  DEC L
0682   04D7 03                  INC BC
0683   04D8 00          L0062:  NOP
0684   04D9 08                  EX AF,AF'
0685   04DA 2D                  DEC L
0686   04DB 55                  LD D,L
0687   04DC 00                  NOP
0688   04DD 3F                  CCF
0689   04DE 2D                  DEC L
0690   04DF 2C                  INC L
0691   04E0 01 49 2D    L0063:  LD BC,2D49H
0692   04E3 02                  LD (BC),A
0693   04E4 00                  NOP
0694   04E5 73                  LD (HL),E
0695   04E6 2D                  DEC L
0696   04E7 0F                  RRCA
0697   04E8 00                  NOP
0698   04E9 71                  LD (HL),C
0699   04EA 2D                  DEC L
0700   04EB 23                  INC HL
0701   04EC 00                  NOP
0702   04ED 6F                  LD L,A
0703   04EE 2D                  DEC L
0704   04EF 03                  INC BC
0705   04F0 00                  NOP
0706   04F1 80                  ADD A,B
0707   04F2 2D                  DEC L
0708   04F3 07                  RLCA
0709   04F4 00          L0064:  NOP
0710   04F5 4F                  LD C,A
0711   04F6 2D                  DEC L
0712   04F7 A0                  AND B
0713   04F8 00                  NOP
0714   04F9 51                  LD D,C
0715   04FA 2D                  DEC L
0716   04FB A0                  AND B
0717   04FC 00                  NOP
0718   04FD A8                  XOR B
0719   04FE 31 28 00            LD SP,0028H
0720   0501 53                  LD D,E
0721   0502 2D                  DEC L
0722   0503 28 00               JR Z,L0066
0723   0505 AF          L0066:  XOR A
0724   0506 31 B0 04            LD SP,04B0H
0725   0509 B3                  OR E
0726   050A 31 70 17            LD SP,1770H
0727   050D 5B                  LD E,E
0728   050E 2D                  DEC L
0729   050F 96                  SUB (HL)
0730   0510 00                  NOP
0731   0511 9A                  SBC A,D
0732   0512 31 96 00            LD SP,0096H
0733   0515 5D                  LD E,L
0734   0516 2D                  DEC L
0735   0517 B4                  OR H
0736   0518 00                  NOP
0737   0519 E2 2D 32            JP PO,L0067
0738   051C 00                  NOP
0739   051D E0                  RET PO
0740   051E 2D                  DEC L
0741   051F 28 00               JR Z,L0068
0742   0521 E6 2D       L0068:  AND 2DH
0743   0523 3C                  INC A
0744   0524 00                  NOP
0745   0525 9E                  SBC A,(HL)
0746   0526 31 18 00            LD SP,0018H
0747   0529 92                  SUB D
0748   052A 31 15 00            LD SP,0015H
0749   052D 96          L0070:  SUB (HL)
0750   052E 31 03 00            LD SP,0003H
0751   0531 94                  SUB H
0752   0532 31 15 00            LD SP,0015H
0753   0535 98                  SBC A,B
0754   0536 31 03 00            LD SP,0003H
0755   0539 A6                  AND (HL)
0756   053A 31 0A 00            LD SP,000AH
0757   053D 9C                  SBC A,H
0758   053E 31 64 00            LD SP,0064H
0759   0541 10 20               DJNZ L0069
0760   0543 EE 93               XOR 93H
0761   0545 12                  LD (DE),A
0762   0546 20 E5               JR NZ,L0070
0763   0548 93                  SUB E
0764   0549 14                  INC D
0765   054A 20 19               JR NZ,L0071
0766   054C 94                  SUB H
0767   054D 16 20               LD D,20H
0768   054F E5                  PUSH HL
0769   0550 93                  SUB E
0770   0551 04                  INC B
0771   0552 20 1F               JR NZ,L0072
0772   0554 08                  EX AF,AF'
0773   0555 F5                  PUSH AF
0774   0556 2E CF               LD L,0CFH
0775   0558 09                  ADD HL,BC
0776   0559 F3                  DI
0777   055A 2D                  DEC L
0778   055B F5                  PUSH AF
0779   055C 2E 5A               LD L,5AH
0780   055E 20 1A               JR NZ,L0073
0781   0560 1A                  LD A,(DE)
0782   0561 6E                  LD L,(HL)
0783   0562 2A BE 08            LD HL,(08BEH)
0784   0565 68                  LD L,B
0785   0566 2A 0A 8C            LD HL,(8C0AH)
0786   0569 F0                  RET P
0787   056A 00                  NOP
0788   056B F0                  RET P
0789   056C 45                  LD B,L
0790   056D F0                  RET P
0791   056E 01 F1 45            LD BC,45F1H
0792   0571 F1                  POP AF
0793   0572 01 F2 C5            LD BC,0C5F2H
0794   0575 F2 1E FB            JP P,L0074
0795   0578 18 FB               JR L0075
0796   057A 10 FB               DJNZ L0076
0797   057C 28 FB               JR Z,L0077
0798   057E 02                  LD (BC),A
0799   057F FB                  EI
0800   0580 10 FB               DJNZ L0078
0801   0582 04                  INC B
0802   0583 FB                  EI
0803   0584 4C                  LD C,H
0804   0585 FB                  EI
0805   0586 03                  INC BC
0806   0587 FB                  EI
0807   0588 C1                  POP BC
0808   0589 FB                  EI
0809   058A 05                  DEC B
0810   058B FB                  EI
0811   058C 68                  LD L,B
0812   058D FB                  EI
0813   058E 01 FB 1E            LD BC,1EFBH
0814   0591 90                  SUB B
0815   0592 8A                  ADC A,D
0816   0593 81                  ADD A,C
0817   0594 78                  LD A,B
0818   0595 6F                  LD L,A
0819   0596 6C                  LD L,H
0820   0597 68                  LD L,B
0821   0598 68                  LD L,B
0822   0599 68                  LD L,B
0823   059A 74                  LD (HL),H
0824   059B 80                  ADD A,B
0825   059C 87                  ADD A,A
0826   059D 8E                  ADC A,(HL)
0827   059E 96                  SUB (HL)
0828   059F 9E                  SBC A,(HL)
0829   05A0 A0                  AND B
0830   05A1 A1                  AND C
0831   05A2 9F                  SBC A,A
0832   05A3 9C                  SBC A,H
0833   05A4 98          L0385:  SBC A,B
0834   05A5 94                  SUB H
0835   05A6 90                  SUB B
0836   05A7 8A                  ADC A,D
0837   05A8 81                  ADD A,C
0838   05A9 78                  LD A,B
0839   05AA 6F                  LD L,A
0840   05AB 6C                  LD L,H
0841   05AC 68                  LD L,B
0842   05AD 68                  LD L,B
0843   05AE 68                  LD L,B
0844   05AF 74                  LD (HL),H
0845   05B0 80                  ADD A,B
0846   05B1 87                  ADD A,A
0847   05B2 8E                  ADC A,(HL)
0848   05B3 96                  SUB (HL)
0849   05B4 9E                  SBC A,(HL)
0850   05B5 A0                  AND B
0851   05B6 A1                  AND C
0852   05B7 9F                  SBC A,A
0853   05B8 9C                  SBC A,H
0854   05B9 98                  SBC A,B
0855   05BA 94                  SUB H
0856   05BB 90                  SUB B
0857   05BC 8A                  ADC A,D
0858   05BD 81                  ADD A,C
0859   05BE 78                  LD A,B
0860   05BF 6F                  LD L,A
0861   05C0 6C                  LD L,H
0862   05C1 68                  LD L,B
0863   05C2 68                  LD L,B
0864   05C3 68                  LD L,B
0865   05C4 74                  LD (HL),H
0866   05C5 80                  ADD A,B
0867   05C6 87                  ADD A,A
0868   05C7 8E                  ADC A,(HL)
0869   05C8 96                  SUB (HL)
0870   05C9 9E                  SBC A,(HL)
0871   05CA A0                  AND B
0872   05CB A1                  AND C
0873   05CC 9F                  SBC A,A
0874   05CD 9C                  SBC A,H
0875   05CE 98                  SBC A,B
0876   05CF 94                  SUB H
0877   05D0 92                  SUB D
0878   05D1 73                  LD (HL),E
0879   05D2 7B                  LD A,E
0880   05D3 83                  ADD A,E
0881   05D4 89                  ADC A,C
0882   05D5 8E                  ADC A,(HL)
0883   05D6 90                  SUB B
0884   05D7 92                  SUB D
0885   05D8 91                  SUB C
0886   05D9 90                  SUB B
0887   05DA 8C                  ADC A,H
0888   05DB 88                  ADC A,B
0889   05DC 83                  ADD A,E
0890   05DD 7D                  LD A,L
0891   05DE 77                  LD (HL),A
0892   05DF 71                  LD (HL),C
0893   05E0 6D                  LD L,L
0894   05E1 68                  LD L,B
0895   05E2 6A                  LD L,D
0896   05E3 6C                  LD L,H
0897   05E4 6E                  LD L,(HL)
0898   05E5 6F                  LD L,A
0899   05E6 73                  LD (HL),E
0900   05E7 7B                  LD A,E
0901   05E8 83                  ADD A,E
0902   05E9 89                  ADC A,C
0903   05EA 8E                  ADC A,(HL)
0904   05EB 90                  SUB B
0905   05EC 92                  SUB D
0906   05ED 91                  SUB C
0907   05EE 90                  SUB B
0908   05EF 8C                  ADC A,H
0909   05F0 88                  ADC A,B
0910   05F1 83                  ADD A,E
0911   05F2 7D                  LD A,L
0912   05F3 77                  LD (HL),A
0913   05F4 71                  LD (HL),C
0914   05F5 6D                  LD L,L
0915   05F6 68                  LD L,B
0916   05F7 6A                  LD L,D
0917   05F8 6C                  LD L,H
0918   05F9 6E                  LD L,(HL)
0919   05FA 6F                  LD L,A
0920   05FB 73                  LD (HL),E
0921   05FC 7B                  LD A,E
0922   05FD 83                  ADD A,E
0923   05FE 89                  ADC A,C
0924   05FF 8E                  ADC A,(HL)
0925   0600 90                  SUB B
0926   0601 92                  SUB D
0927   0602 91                  SUB C
0928   0603 90                  SUB B
0929   0604 8C                  ADC A,H
0930   0605 88                  ADC A,B
0931   0606 83                  ADD A,E
0932   0607 7D                  LD A,L
0933   0608 77                  LD (HL),A
0934   0609 71                  LD (HL),C
0935   060A 6D                  LD L,L
0936   060B 68                  LD L,B
0937   060C 6A                  LD L,D
0938   060D 6C                  LD L,H
0939   060E 6E                  LD L,(HL)
0940   060F 6F                  LD L,A
0941   0610 71                  LD (HL),C
0942   0611 DB E1       L0079:  IN A,(0E1H)
0943   0613 5F                  LD E,A
0944   0614 DB E2               IN A,(0E2H)
0945   0616 E6 03               AND 03H
0946   0618 57                  LD D,A
0947   0619 DB E1               IN A,(0E1H)
0948   061B BB                  CP E
0949   061C 20 F3               JR NZ,L0079
0950   061E 62                  LD H,D
0951   061F 6B                  LD L,E
0952   0620 ED 4B E1 31         LD BC,(31E1H)
0953   0624 22 E1 31            LD (31E1H),HL
0954   0627 37                  SCF
0955   0628 3F                  CCF
0956   0629 ED 42               SBC HL,BC
0957   062B CD C4 17            CALL L0080
0958   062E 44                  LD B,H
0959   062F 4D                  LD C,L
0960   0630 C5                  PUSH BC
0961   0631 3A CE 2C            LD A,(2CCEH)
0962   0634 21 CA 2C            LD HL,2CCAH
0963   0637 B6                  OR (HL)
0964   0638 28 37               JR Z,L0081
0965   063A 2A D0 2C            LD HL,(2CD0H)
0966   063D 09                  ADD HL,BC
0967   063E 22 D0 2C            LD (2CD0H),HL
0968   0641 CB 7C               BIT 7,H
0969   0643 28 11               JR Z,L0082
0970   0645 ED 4B CC 2C         LD BC,(2CCCH)
0971   0649 09                  ADD HL,BC
0972   064A CB 7C               BIT 7,H
0973   064C 28 23               JR Z,L0081
0974   064E 22 D0 2C            LD (2CD0H),HL
0975   0651 2A CE 2C            LD HL,(2CCEH)
0976   0654 18 0F               JR L0083
0977   0656 ED 4B C8 2C L0082:  LD BC,(2CC8H)
0978   065A 09                  ADD HL,BC
0979   065B CB 7C               BIT 7,H
0980   065D 20 12               JR NZ,L0081
0981   065F 22 D0 2C            LD (2CD0H),HL
0982   0662 2A CA 2C            LD HL,(2CCAH)
0983   0665 ED 4B 74 2A L0083:  LD BC,(2A74H)
0984   0669 09                  ADD HL,BC
0985   066A 7C                  LD A,H
0986   066B E6 03               AND 03H
0987   066D 67                  LD H,A
0988   066E 22 74 2A            LD (2A74H),HL
0989   0671 C1          L0081:  POP BC
0990   0672 2A 72 2A            LD HL,(2A72H)
0991   0675 09                  ADD HL,BC
0992   0676 22 72 2A            LD (2A72H),HL
0993   0679 2A 5D 2A            LD HL,(2A5DH)
0994   067C ED 4B E3 31         LD BC,(31E3H)
0995   0680 37                  SCF
0996   0681 3F                  CCF
0997   0682 ED 42               SBC HL,BC
0998   0684 28 0E               JR Z,L0084
0999   0686 2A 5D 2A            LD HL,(2A5DH)
1000   0689 37                  SCF
1001   068A 3F                  CCF
1002   068B ED 52               SBC HL,DE
1003   068D 7C                  LD A,H
1004   068E E6 03               AND 03H
1005   0690 67                  LD H,A
1006   0691 22 74 2A            LD (2A74H),HL
1007   0694 2A 74 2A    L0084:  LD HL,(2A74H)
1008   0697 19                  ADD HL,DE
1009   0698 ED 5B 12 2D         LD DE,(2D12H)
1010   069C 19                  ADD HL,DE
1011   069D 7C                  LD A,H
1012   069E E6 03               AND 03H
1013   06A0 67                  LD H,A
1014   06A1 22 5D 2A            LD (2A5DH),HL
1015   06A4 22 E3 31            LD (31E3H),HL
1016   06A7 C9                  RET
1017   06A8 ED 5B 68 2A L0056:  LD DE,(2A68H)
1018   06AC 2A 6A 2A            LD HL,(2A6AH)
1019   06AF 37                  SCF
1020   06B0 3F                  CCF
1021   06B1 ED 52               SBC HL,DE
1022   06B3 28 3B               JR Z,L0085
1023   06B5 ED 53 6A 2A         LD (2A6AH),DE
1024   06B9 01 01 01            LD BC,0101H
1025   06BC DD 21 FB 1D         LD IX,1DFBH
1026   06C0 FD 21 C2 2A         LD IY,2AC2H
1027   06C4 C5          L0087:  PUSH BC
1028   06C5 DD 4E 00            LD C,(IX+00H)
1029   06C8 DD 46 01            LD B,(IX+01H)
1030   06CB ED 5B 68 2A         LD DE,(2A68H)
1031   06CF DD E5               PUSH IX
1032   06D1 FD E5               PUSH IY
1033   06D3 CD 78 1C            CALL L0086
1034   06D6 FD E1               POP IY
1035   06D8 DD E1               POP IX
1036   06DA FD 75 00            LD (IY+00H),L
1037   06DD FD 74 01            LD (IY+01H),H
1038   06E0 DD 23               INC IX
1039   06E2 DD 23               INC IX
1040   06E4 FD 23               INC IY
1041   06E6 FD 23               INC IY
1042   06E8 C1                  POP BC
1043   06E9 0D                  DEC C
1044   06EA 20 D8               JR NZ,L0087
1045   06EC 05                  DEC B
1046   06ED F2 C4 06            JP P,L0087
1047   06F0 C9          L0085:  RET
1048   06F1 21 E5 31    L0058:  LD HL,31E5H
1049   06F4 3E A3               LD A,0A3H
1050   06F6 BE                  CP (HL)
1051   06F7 CA FE 06            JP Z,L0088
1052   06FA 77                  LD (HL),A
1053   06FB C3 89 07            JP L0089
1054   06FE ED 4B E9 31 L0088:  LD BC,(31E9H)
1055   0702 2A EB 31            LD HL,(31EBH)
1056   0705 DB E2               IN A,(0E2H)
1057   0707 CB 6F               BIT 5,A
1058   0709 CA EA 07            JP Z,L0090
1059   070C ED 78               IN A,(C)
1060   070E 1E 00               LD E,00H
1061   0710 57                  LD D,A
1062   0711 CB 3A               SRL D
1063   0713 CB 1B               RR E
1064   0715 C3 18 07            JP L0091
1065   0718 ED 4B E7 31 L0091:  LD BC,(31E7H)
1066   071C DD 21 F9 31         LD IX,31F9H
1067   0720 DD 09               ADD IX,BC
1068   0722 DD 09               ADD IX,BC
1069   0724 DD 73 00            LD (IX+00H),E
1070   0727 DD 72 01            LD (IX+01H),D
1071   072A DD 21 F7 07         LD IX,07F7H
1072   072E DD 09               ADD IX,BC
1073   0730 DD 09               ADD IX,BC
1074   0732 C5                  PUSH BC
1075   0733 DD 4E 00            LD C,(IX+00H)
1076   0736 DD 46 01            LD B,(IX+01H)
1077   0739 CD 4E 1C            CALL L0092
1078   073C C1                  POP BC
1079   073D DD 21 01 08         LD IX,0801H
1080   0741 DD 09               ADD IX,BC
1081   0743 DD 09               ADD IX,BC
1082   0745 DD 5E 00            LD E,(IX+00H)
1083   0748 DD 56 01            LD D,(IX+01H)
1084   074B 19                  ADD HL,DE
1085   074C DD 21 EF 31         LD IX,31EFH
1086   0750 DD 09               ADD IX,BC
1087   0752 DD 09               ADD IX,BC
1088   0754 DD 75 00            LD (IX+00H),L
1089   0757 DD 74 01            LD (IX+01H),H
1090   075A DD 21 15 08         LD IX,0815H
1091   075E DD 09               ADD IX,BC
1092   0760 DD 09               ADD IX,BC
1093   0762 DD 5E 00            LD E,(IX+00H)
1094   0765 DD 56 01            LD D,(IX+01H)
1095   0768 EB                  EX DE,HL
1096   0769 73                  LD (HL),E
1097   076A 23                  INC HL
1098   076B 72                  LD (HL),D
1099   076C DD 21 03 32         LD IX,3203H
1100   0770 DD 09               ADD IX,BC
1101   0772 DD 36 00 FF         LD (IX+00H),0FFH
1102   0776 03                  INC BC
1103   0777 2A EB 07            LD HL,(07EBH)
1104   077A 37                  SCF
1105   077B ED 42               SBC HL,BC
1106   077D 30 03               JR NC,L0093
1107   077F 01 00 00            LD BC,0000H
1108   0782 ED 43 E7 31 L0093:  LD (31E7H),BC
1109   0786 C3 BE 07            JP L0094
1110   0789 01 00 00    L0089:  LD BC,0000H
1111   078C ED 43 E7 31         LD (31E7H),BC
1112   0790 ED 4B EB 07         LD BC,(07EBH)
1113   0794 DD 21 15 08         LD IX,0815H
1114   0798 FD 21 EF 31         LD IY,31EFH
1115   079C DD 6E 00    L0095:  LD L,(IX+00H)
1116   079F DD 66 01            LD H,(IX+01H)
1117   07A2 36 00               LD (HL),00H
1118   07A4 23                  INC HL
1119   07A5 36 00               LD (HL),00H
1120   07A7 DD 23               INC IX
1121   07A9 DD 23               INC IX
1122   07AB FD 36 00 00         LD (IY+00H),00H
1123   07AF FD 36 01 00         LD (IY+01H),00H
1124   07B3 FD 23               INC IY
1125   07B5 FD 23               INC IY
1126   07B7 0D                  DEC C
1127   07B8 20 E2               JR NZ,L0095
1128   07BA 05                  DEC B
1129   07BB F2 9C 07            JP P,L0095
1130   07BE ED 4B E7 31 L0094:  LD BC,(31E7H)
1131   07C2 DD 21 0B 08         LD IX,080BH
1132   07C6 DD 09               ADD IX,BC
1133   07C8 DD 09               ADD IX,BC
1134   07CA DD 5E 00            LD E,(IX+00H)
1135   07CD DD 56 01            LD D,(IX+01H)
1136   07D0 ED 53 E9 31         LD (31E9H),DE
1137   07D4 DD 21 F2 07         LD IX,07F2H
1138   07D8 DD 09               ADD IX,BC
1139   07DA DD 6E 00            LD L,(IX+00H)
1140   07DD 26 00               LD H,00H
1141   07DF 22 EB 31            LD (31EBH),HL
1142   07E2 7D                  LD A,L
1143   07E3 83                  ADD A,E
1144   07E4 4F                  LD C,A
1145   07E5 ED 79               OUT (C),A
1146   07E7 C3 EA 07            JP L0090
1147   07EA C9          L0090:  RET
1148   07EB 05                  DEC B
1149   07EC 00                  NOP
1150   07ED 00                  NOP
1151   07EE 00                  NOP
1152   07EF 00                  NOP
1153   07F0 00                  NOP
1154   07F1 00                  NOP
1155   07F2 04                  INC B
1156   07F3 03                  INC BC
1157   07F4 06 07               LD B,07H
1158   07F6 05                  DEC B
1159   07F7 2C                  INC L
1160   07F8 01 90 01            LD BC,0190H
1161   07FB 74                  LD (HL),H
1162   07FC 01 A4 02            LD BC,02A4H
1163   07FF 00                  NOP
1164   0800 0A                  LD A,(BC)
1165   0801 00                  NOP
1166   0802 00                  NOP
1167   0803 00                  NOP
1168   0804 00                  NOP
1169   0805 00                  NOP
1170   0806 00                  NOP
1171   0807 00                  NOP
1172   0808 00                  NOP
1173   0809 00                  NOP
1174   080A 00                  NOP
1175   080B E8                  RET PE
1176   080C 00                  NOP
1177   080D E8                  RET PE
1178   080E 00                  NOP
1179   080F E8                  RET PE
1180   0810 00                  NOP
1181   0811 E8                  RET PE
1182   0812 00                  NOP
1183   0813 E8                  RET PE
1184   0814 00                  NOP
1185   0815 17                  RLA
1186   0816 2A 15 2A            LD HL,(2A15H)
1187   0819 1D                  DEC E
1188   081A 2A 1F 2A            LD HL,(2A1FH)
1189   081D 1B                  DEC DE
1190   081E 2A FB F5            LD HL,(0F5FBH)
1191   0821 C5                  PUSH BC
1192   0822 D5                  PUSH DE
1193   0823 E5                  PUSH HL
1194   0824 DD E5               PUSH IX
1195   0826 FD E5               PUSH IY
1196   0828 CD 11 06            CALL L0079
1197   082B CD 70 92            CALL L0096
1198   082E 21 03 2D            LD HL,2D03H
1199   0831 35                  DEC (HL)
1200   0832 F2 3E 08            JP P,L0097
1201   0835 36 3B               LD (HL),3BH
1202   0837 2A 04 2D            LD HL,(2D04H)
1203   083A 23                  INC HL
1204   083B 22 04 2D            LD (2D04H),HL
1205   083E 2A 6E 2A    L0097:  LD HL,(2A6EH)
1206   0841 E9                  JP (HL)
1207   0842 BE                  CP (HL)
1208   0843 08                  EX AF,AF'
1209   0844 EF                  RST 28H
1210   0845 08                  EX AF,AF'
1211   0846 78                  LD A,B
1212   0847 09                  ADD HL,BC
1213   0848 BE                  CP (HL)
1214   0849 08                  EX AF,AF'
1215   084A 78                  LD A,B
1216   084B 09                  ADD HL,BC
1217   084C 21 09 3E            LD HL,3E09H
1218   084F FF                  RST 38H
1219   0850 32 34 32            LD (3234H),A
1220   0853 E5                  PUSH HL
1221   0854 2A 10 2D            LD HL,(2D10H)
1222   0857 22 12 2D            LD (2D12H),HL
1223   085A E1                  POP HL
1224   085B 3E 14               LD A,14H
1225   085D 32 08 32            LD (3208H),A
1226   0860 CD 7D 0F            CALL L0098
1227   0863 CD 81 09            CALL L0099
1228   0866 C9                  RET
1229   0867 AF          L0128:  XOR A
1230   0868 32 34 32            LD (3234H),A
1231   086B E5                  PUSH HL
1232   086C 21 00 00            LD HL,0000H
1233   086F 22 12 2D            LD (2D12H),HL
1234   0872 E1                  POP HL
1235   0873 3E 13               LD A,13H
1236   0875 32 08 32            LD (3208H),A
1237   0878 CD 75 0F            CALL L0100
1238   087B CD 81 09            CALL L0099
1239   087E C9                  RET
1240   087F CD A3 08    L0055:  CALL L0101
1241   0882 E5          L0147:  PUSH HL
1242   0883 21 00 00            LD HL,0000H
1243   0886 22 D9 2D            LD (2DD9H),HL
1244   0889 22 0B 2A            LD (2A0BH),HL
1245   088C 22 03 24            LD (2403H),HL
1246   088F 22 70 2A            LD (2A70H),HL
1247   0892 22 A6 2A            LD (2AA6H),HL
1248   0895 22 0F 2A            LD (2A0FH),HL
1249   0898 22 0B 32            LD (320BH),HL
1250   089B 22 4C 32            LD (324CH),HL
1251   089E 22 55 32            LD (3255H),HL
1252   08A1 E1                  POP HL
1253   08A2 C9                  RET
1254   08A3 E5          L0101:  PUSH HL
1255   08A4 21 00 00            LD HL,0000H
1256   08A7 22 0D 2A            LD (2A0DH),HL
1257   08AA 22 05 24            LD (2405H),HL
1258   08AD 22 72 2A            LD (2A72H),HL
1259   08B0 22 11 2A            LD (2A11H),HL
1260   08B3 22 09 32            LD (3209H),HL
1261   08B6 22 4E 32            LD (324EH),HL
1262   08B9 22 57 32            LD (3257H),HL
1263   08BC E1                  POP HL
1264   08BD C9                  RET
1265   08BE 2A B1 31    L0297:  LD HL,(31B1H)
1266   08C1 01 00 00            LD BC,0000H
1267   08C4 37                  SCF
1268   08C5 ED 42               SBC HL,BC
1269   08C7 38 06               JR C,L0102
1270   08C9 22 B1 31            LD (31B1H),HL
1271   08CC CC 79 0F            CALL Z,L0103
1272   08CF AF          L0102:  XOR A
1273   08D0 32 01 A0            LD (0A001H),A
1274   08D3 32 05 A0            LD (0A005H),A
1275   08D6 CD 7F 08            CALL L0055
1276   08D9 21 00 00            LD HL,0000H
1277   08DC 22 25 2A            LD (2A25H),HL
1278   08DF 22 27 2A            LD (2A27H),HL
1279   08E2 21 31 2A            LD HL,2A31H
1280   08E5 06 08               LD B,08H
1281   08E7 36 00       L0104:  LD (HL),00H
1282   08E9 23                  INC HL
1283   08EA 10 FB               DJNZ L0104
1284   08EC C3 AB 16            JP L0105
1285   08EF 21 02 24            LD HL,2402H
1286   08F2 35                  DEC (HL)
1287   08F3 CA 15 09            JP Z,L0106
1288   08F6 32 0D A0            LD (0A00DH),A
1289   08F9 ED 4B 05 24         LD BC,(2405H)
1290   08FD 11 E4 5C            LD DE,5CE4H
1291   0900 CD 4E 1C            CALL L0092
1292   0903 22 27 2A            LD (2A27H),HL
1293   0906 ED 4B 03 24         LD BC,(2403H)
1294   090A CB 28               SRA B
1295   090C CB 19               RR C
1296   090E ED 43 25 2A         LD (2A25H),BC
1297   0912 C3 AB 16            JP L0105
1298   0915 3E 03       L0106:  LD A,03H
1299   0917 CD 0E 04            CALL L0041
1300   091A AF                  XOR A
1301   091B 32 00 24            LD (2400H),A
1302   091E C3 AB 16            JP L0105
1303   0921 21 02 24            LD HL,2402H
1304   0924 35                  DEC (HL)
1305   0925 CA 6C 09            JP Z,L0107
1306   0928 3A 7D 2A            LD A,(2A7DH)
1307   092B A7                  AND A
1308   092C 28 0E               JR Z,L0108
1309   092E 3A 0D 32            LD A,(320DH)
1310   0931 3C                  INC A
1311   0932 FE 0A               CP 0AH
1312   0934 D2 68 09            JP NC,L0109
1313   0937 32 0D 32            LD (320DH),A
1314   093A 18 0C               JR L0110
1315   093C 32 0D 32    L0108:  LD (320DH),A
1316   093F 32 0D A0            LD (0A00DH),A
1317   0942 2A 05 24            LD HL,(2405H)
1318   0945 CD 49 19            CALL L0111
1319   0948 3A 7C 2A    L0110:  LD A,(2A7CH)
1320   094B A7                  AND A
1321   094C 28 0E               JR Z,L0112
1322   094E 3A 0E 32            LD A,(320EH)
1323   0951 3C                  INC A
1324   0952 FE 0A               CP 0AH
1325   0954 D2 68 09            JP NC,L0109
1326   0957 32 0E 32            LD (320EH),A
1327   095A 18 09               JR L0113
1328   095C 32 0E 32    L0112:  LD (320EH),A
1329   095F 2A 03 24            LD HL,(2403H)
1330   0962 CD 5F 19            CALL L0114
1331   0965 C3 71 16    L0113:  JP L0115
1332   0968 3E 02       L0109:  LD A,02H
1333   096A 18 02               JR L0116
1334   096C 3E 03       L0107:  LD A,03H
1335   096E CD 0E 04    L0116:  CALL L0041
1336   0971 AF                  XOR A
1337   0972 32 00 24            LD (2400H),A
1338   0975 C3 71 16            JP L0115
1339   0978 ED 73 F5 2D         LD (2DF5H),SP
1340   097C ED 7B F3 2D         LD SP,(2DF3H)
1341   0980 C9                  RET
1342   0981 DD E5       L0099:  PUSH IX
1343   0983 FD E5               PUSH IY
1344   0985 E5                  PUSH HL
1345   0986 D5                  PUSH DE
1346   0987 C5                  PUSH BC
1347   0988 F5                  PUSH AF
1348   0989 3A F0 2C            LD A,(2CF0H)
1349   098C A7                  AND A
1350   098D 28 29               JR Z,L0117
1351   098F CD D2 10            CALL L0118
1352   0992 DA A6 09            JP C,L0119
1353   0995 ED 4B 05 2A         LD BC,(2A05H)
1354   0999 2A F3 2C            LD HL,(2CF3H)
1355   099C ED 5B 0D 2A         LD DE,(2A0DH)
1356   09A0 CD F3 19            CALL L0120
1357   09A3 22 0D 2A            LD (2A0DH),HL
1358   09A6 2A 0D 2A    L0119:  LD HL,(2A0DH)
1359   09A9 CD 49 19            CALL L0111
1360   09AC 2A F1 2C            LD HL,(2CF1H)
1361   09AF 22 F5 2C            LD (2CF5H),HL
1362   09B2 CD CE 13            CALL L0121
1363   09B5 CD DF 0E            CALL L0122
1364   09B8 CD C4 09    L0117:  CALL L0123
1365   09BB F1                  POP AF
1366   09BC C1                  POP BC
1367   09BD D1                  POP DE
1368   09BE E1                  POP HL
1369   09BF FD E1               POP IY
1370   09C1 DD E1               POP IX
1371   09C3 C9                  RET
1372   09C4 ED 73 F3 2D L0123:  LD (2DF3H),SP
1373   09C8 ED 7B F5 2D         LD SP,(2DF5H)
1374   09CC C3 71 16            JP L0115
1375   09CF 3A 07 24            LD A,(2407H)
1376   09D2 A7                  AND A
1377   09D3 CA B4 0B            JP Z,L0124
1378   09D6 3A 00 24            LD A,(2400H)
1379   09D9 FE 04               CP 04H
1380   09DB 28 31               JR Z,L0125
1381   09DD AF                  XOR A
1382   09DE 32 2D 32            LD (322DH),A
1383   09E1 32 08 24            LD (2408H),A
1384   09E4 32 F0 2C            LD (2CF0H),A
1385   09E7 32 DB 2D            LD (2DDBH),A
1386   09EA 32 2F 32            LD (322FH),A
1387   09ED 32 75 2D            LD (2D75H),A
1388   09F0 32 77 2D            LD (2D77H),A
1389   09F3 32 61 2D            LD (2D61H),A
1390   09F6 21 5C 31            LD HL,315CH
1391   09F9 06 32               LD B,32H
1392   09FB 36 00       L0126:  LD (HL),00H
1393   09FD 23                  INC HL
1394   09FE 10 FB               DJNZ L0126
1395   0A00 21 19 32            LD HL,3219H
1396   0A03 22 17 32            LD (3217H),HL
1397   0A06 CD 5B 84            CALL L0127
1398   0A09 3E 01               LD A,01H
1399   0A0B 32 15 32            LD (3215H),A
1400   0A0E 3A 15 32    L0125:  LD A,(3215H)
1401   0A11 FE 01               CP 01H
1402   0A13 32 2D 32            LD (322DH),A
1403   0A16 C2 B4 0B            JP NZ,L0124
1404   0A19 CD 7F 08            CALL L0055
1405   0A1C CD 67 08            CALL L0128
1406   0A1F 32 0D A0            LD (0A00DH),A
1407   0A22 18 1D               JR L0129
1408   0A24 CD 11 06    L0174:  CALL L0079
1409   0A27 21 08 24            LD HL,2408H
1410   0A2A 34                  INC (HL)
1411   0A2B 3E FE               LD A,0FEH
1412   0A2D BE                  CP (HL)
1413   0A2E CA BB 0B            JP Z,L0130
1414   0A31 21 30 32            LD HL,3230H
1415   0A34 35                  DEC (HL)
1416   0A35 F2 3A 0A            JP P,L0131
1417   0A38 36 00               LD (HL),00H
1418   0A3A CC 6B 0F    L0131:  CALL Z,L0132
1419   0A3D AF          L0243:  XOR A
1420   0A3E 32 2D 32            LD (322DH),A
1421   0A41 11 00 00    L0129:  LD DE,0000H
1422   0A44 ED 53 03 24         LD (2403H),DE
1423   0A48 ED 53 55 2A         LD (2A55H),DE
1424   0A4C ED 53 5B 2A         LD (2A5BH),DE
1425   0A50 3A 4B 32            LD A,(324BH)
1426   0A53 3C                  INC A
1427   0A54 32 4B 32            LD (324BH),A
1428   0A57 FE 05               CP 05H
1429   0A59 CC 81 09            CALL Z,L0099
1430   0A5C ED 5B 08 24         LD DE,(2408H)
1431   0A60 16 00               LD D,00H
1432   0A62 CB 23               SLA E
1433   0A64 CB 12               RL D
1434   0A66 DD 21 09 24         LD IX,2409H
1435   0A6A DD 19               ADD IX,DE
1436   0A6C DD 19               ADD IX,DE
1437   0A6E DD 19               ADD IX,DE
1438   0A70 DD 6E 01            LD L,(IX+01H)
1439   0A73 26 00               LD H,00H
1440   0A75 22 03 24            LD (2403H),HL
1441   0A78 DD 6E 02            LD L,(IX+02H)
1442   0A7B DD 66 03            LD H,(IX+03H)
1443   0A7E 22 55 2A            LD (2A55H),HL
1444   0A81 DD 6E 04            LD L,(IX+04H)
1445   0A84 DD 66 05            LD H,(IX+05H)
1446   0A87 22 5B 2A            LD (2A5BH),HL
1447   0A8A DD 7E 00            LD A,(IX+00H)
1448   0A8D 32 61 2A            LD (2A61H),A
1449   0A90 FE 3D               CP 3DH
1450   0A92 D2 94 0B            JP NC,L0133
1451   0A95 47                  LD B,A
1452   0A96 FE 00               CP 00H
1453   0A98 28 0B               JR Z,L0134
1454   0A9A ED 5B 08 24         LD DE,(2408H)
1455   0A9E 3A 6D 2D            LD A,(2D6DH)
1456   0AA1 BB                  CP E
1457   0AA2 DA 94 0B            JP C,L0133
1458   0AA5 DD E5       L0134:  PUSH IX
1459   0AA7 11 06 00            LD DE,0006H
1460   0AAA DD 19       L0135:  ADD IX,DE
1461   0AAC DD 7E 00            LD A,(IX+00H)
1462   0AAF FE 27               CP 27H
1463   0AB1 28 F7               JR Z,L0135
1464   0AB3 FE 39               CP 39H
1465   0AB5 28 F3               JR Z,L0135
1466   0AB7 FE 2C               CP 2CH
1467   0AB9 28 EF               JR Z,L0135
1468   0ABB FE 20               CP 20H
1469   0ABD 28 EB               JR Z,L0135
1470   0ABF FE 21               CP 21H
1471   0AC1 28 E7               JR Z,L0135
1472   0AC3 FE 28               CP 28H
1473   0AC5 28 E3               JR Z,L0135
1474   0AC7 FE 05               CP 05H
1475   0AC9 28 DF               JR Z,L0135
1476   0ACB FE 06               CP 06H
1477   0ACD 28 DB               JR Z,L0135
1478   0ACF 32 0F 32            LD (320FH),A
1479   0AD2 0E 00               LD C,00H
1480   0AD4 FE 29               CP 29H
1481   0AD6 20 05               JR NZ,L0136
1482   0AD8 B8                  CP B
1483   0AD9 20 02               JR NZ,L0136
1484   0ADB 0E 01               LD C,01H
1485   0ADD 79          L0136:  LD A,C
1486   0ADE 32 C9 2D            LD (2DC9H),A
1487   0AE1 DD 7E 01            LD A,(IX+01H)
1488   0AE4 32 10 32            LD (3210H),A
1489   0AE7 DD 6E 02    L0139:  LD L,(IX+02H)
1490   0AEA DD 66 03            LD H,(IX+03H)
1491   0AED 22 11 32            LD (3211H),HL
1492   0AF0 DD 6E 04            LD L,(IX+04H)
1493   0AF3 DD 66 05            LD H,(IX+05H)
1494   0AF6 22 13 32            LD (3213H),HL
1495   0AF9 DD E1               POP IX
1496   0AFB 3A 61 2A            LD A,(2A61H)
1497   0AFE 16 00               LD D,00H
1498   0B00 5F                  LD E,A
1499   0B01 FD 21 10 0B         LD IY,0B10H
1500   0B05 FD 19               ADD IY,DE
1501   0B07 FD 19               ADD IY,DE
1502   0B09 FD 6E 00            LD L,(IY+00H)
1503   0B0C FD 66 01            LD H,(IY+01H)
1504   0B0F E9                  JP (HL)
1505   0B10 BB                  CP E
1506   0B11 0B                  DEC BC
1507   0B12 E1                  POP HL
1508   0B13 0B                  DEC BC
1509   0B14 AC                  XOR H
1510   0B15 0F                  RRCA
1511   0B16 12                  LD (DE),A
1512   0B17 11 E1 0B            LD DE,0BE1H
1513   0B1A 3B                  DEC SP
1514   0B1B 11 37 11            LD DE,1137H
1515   0B1E 60                  LD H,B
1516   0B1F 11 5B 11            LD DE,115BH
1517   0B22 8A                  ADC A,D
1518   0B23 11 93 11            LD DE,1193H
1519   0B26 A3                  AND E
1520   0B27 11 B2 11            LD DE,11B2H
1521   0B2A BF                  CP A
1522   0B2B 11 DF 11            LD DE,11DFH
1523   0B2E EF                  RST 28H
1524   0B2F 11 FE 11            LD DE,11FEH
1525   0B32 0B                  DEC BC
1526   0B33 12                  LD (DE),A
1527   0B34 25                  DEC H
1528   0B35 12                  LD (DE),A
1529   0B36 31 12 BB            LD SP,0BB12H
1530   0B39 0B                  DEC BC
1531   0B3A 77                  LD (HL),A
1532   0B3B 84                  ADD A,H
1533   0B3C 09                  ADD HL,BC
1534   0B3D 8A                  ADC A,D
1535   0B3E 14                  INC D
1536   0B3F 13                  INC DE
1537   0B40 2C                  INC L
1538   0B41 13                  INC DE
1539   0B42 3B                  DEC SP
1540   0B43 13                  INC DE
1541   0B44 87                  ADD A,A
1542   0B45 15                  DEC D
1543   0B46 30 11               JR NC,L0137
1544   0B48 2C                  INC L
1545   0B49 11 4F 8A            LD DE,8A4FH
1546   0B4C 62                  LD H,D
1547   0B4D 8A                  ADC A,D
1548   0B4E C7                  RST 00H
1549   0B4F 88                  ADC A,B
1550   0B50 B1                  OR C
1551   0B51 8A                  ADC A,D
1552   0B52 FC 8A A0            CALL M,L0138
1553   0B55 8C                  ADC A,H
1554   0B56 A4                  AND H
1555   0B57 8C                  ADC A,H
1556   0B58 A8                  XOR B
1557   0B59 8C          L0137:  ADC A,H
1558   0B5A 30 8B               JR NC,L0139
1559   0B5C 28 8D               JR Z,L0140
1560   0B5E A8                  XOR B
1561   0B5F 8E                  ADC A,(HL)
1562   0B60 C1                  POP BC
1563   0B61 15                  DEC D
1564   0B62 E1                  POP HL
1565   0B63 0B                  DEC BC
1566   0B64 77                  LD (HL),A
1567   0B65 8A                  ADC A,D
1568   0B66 92                  SUB D
1569   0B67 8A                  ADC A,D
1570   0B68 4E                  LD C,(HL)
1571   0B69 8C                  ADC A,H
1572   0B6A C2 0F 74            JP NZ,L0141
1573   0B6D 91                  SUB C
1574   0B6E DB 91               IN A,(91H)
1575   0B70 E5                  PUSH HL
1576   0B71 10 D8               DJNZ L0142
1577   0B73 15                  DEC D
1578   0B74 18 16               JR L0143
1579   0B76 4B                  LD C,E
1580   0B77 16 3E               LD D,3EH
1581   0B79 12                  LD (DE),A
1582   0B7A 4A                  LD C,D
1583   0B7B 12                  LD (DE),A
1584   0B7C 59                  LD E,C
1585   0B7D 12                  LD (DE),A
1586   0B7E 13                  INC DE
1587   0B7F 8F                  ADC A,A
1588   0B80 71                  LD (HL),C
1589   0B81 12                  LD (DE),A
1590   0B82 D1                  POP DE
1591   0B83 8E                  ADC A,(HL)
1592   0B84 8A                  ADC A,D
1593   0B85 0B                  DEC BC
1594   0B86 5C                  LD E,H
1595   0B87 8E                  ADC A,(HL)
1596   0B88 75                  LD (HL),L
1597   0B89 8E                  ADC A,(HL)
1598   0B8A 21 08 24            LD HL,2408H
1599   0B8D 34                  INC (HL)
1600   0B8E 18 2F               JR L0144
1601   0B90 3E 01       L0153:  LD A,01H
1602   0B92 18 22               JR L0145
1603   0B94 3E 18       L0133:  LD A,18H
1604   0B96 18 1E               JR L0145
1605   0B98 3E 19               LD A,19H
1606   0B9A 18 1A               JR L0145
1607   0B9C 3E 1A       L0209:  LD A,1AH
1608   0B9E 18 16               JR L0145
1609   0BA0 3E 1B       L0292:  LD A,1BH
1610   0BA2 18 12               JR L0145
1611   0BA4 3E 02       L0167:  LD A,02H
1612   0BA6 18 0E               JR L0145
1613   0BA8 3E 08               LD A,08H
1614   0BAA 18 0A               JR L0145
1615   0BAC 3E 10               LD A,10H
1616   0BAE 18 06               JR L0145
1617   0BB0 3E 1F               LD A,1FH
1618   0BB2 18 02               JR L0145
1619   0BB4 3E 04       L0124:  LD A,04H
1620   0BB6 CD 0E 04    L0145:  CALL L0041
1621   0BB9 18 04               JR L0144
1622   0BBB AF          L0130:  XOR A
1623   0BBC 32 15 32            LD (3215H),A
1624   0BBF 2A AF 31    L0144:  LD HL,(31AFH)
1625   0BC2 22 B1 31            LD (31B1H),HL
1626   0BC5 3E 01               LD A,01H
1627   0BC7 32 30 32            LD (3230H),A
1628   0BCA CD 6E 0F            CALL L0146
1629   0BCD CD 82 08            CALL L0147
1630   0BD0 21 00 00            LD HL,0000H
1631   0BD3 22 0B 2A            LD (2A0BH),HL
1632   0BD6 22 0D 2A            LD (2A0DH),HL
1633   0BD9 3E 00               LD A,00H
1634   0BDB 32 00 24            LD (2400H),A
1635   0BDE CD 81 09            CALL L0099
1636   0BE1 CD 42 16    L0173:  CALL L0148
1637   0BE4 3A 61 2A            LD A,(2A61H)
1638   0BE7 FE 04               CP 04H
1639   0BE9 CC 4E 08            CALL Z,L0149
1640   0BEC 21 00 00            LD HL,0000H
1641   0BEF 22 8E 31            LD (318EH),HL
1642   0BF2 22 90 31            LD (3190H),HL
1643   0BF5 2A 0B 2A            LD HL,(2A0BH)
1644   0BF8 ED 5B 80 2A         LD DE,(2A80H)
1645   0BFC CD BB 17            CALL L0150
1646   0BFF 22 84 2A            LD (2A84H),HL
1647   0C02 3A C9 2D            LD A,(2DC9H)
1648   0C05 FE 01               CP 01H
1649   0C07 11 00 00            LD DE,0000H
1650   0C0A 2A 03 24            LD HL,(2403H)
1651   0C0D 22 F5 2C            LD (2CF5H),HL
1652   0C10 20 0B               JR NZ,L0151
1653   0C12 ED 5B C7 2D         LD DE,(2DC7H)
1654   0C16 CB 3A               SRL D
1655   0C18 CB 1B               RR E
1656   0C1A CD BB 17            CALL L0150
1657   0C1D ED 53 86 2A L0151:  LD (2A86H),DE
1658   0C21 2A 55 2A            LD HL,(2A55H)
1659   0C24 22 FD 2C            LD (2CFDH),HL
1660   0C27 ED 5B 5B 2A         LD DE,(2A5BH)
1661   0C2B ED 53 FF 2C         LD (2CFFH),DE
1662   0C2F CD C3 18            CALL L0152
1663   0C32 C2 90 0B            JP NZ,L0153
1664   0C35 CD 98 0F            CALL L0154
1665   0C38 ED 53 D3 2D         LD (2DD3H),DE
1666   0C3C ED 5B 29 2A         LD DE,(2A29H)
1667   0C40 37                  SCF
1668   0C41 3F                  CCF
1669   0C42 ED 52               SBC HL,DE
1670   0C44 22 78 2A            LD (2A78H),HL
1671   0C47 3A 0F 32            LD A,(320FH)
1672   0C4A FE 29               CP 29H
1673   0C4C 28 07               JR Z,L0155
1674   0C4E FE 01               CP 01H
1675   0C50 3E 00               LD A,00H
1676   0C52 C2 81 0C            JP NZ,L0156
1677   0C55 2A 11 32    L0155:  LD HL,(3211H)
1678   0C58 ED 5B 13 32         LD DE,(3213H)
1679   0C5C DD 2A FD 2C         LD IX,(2CFDH)
1680   0C60 FD 2A FF 2C         LD IY,(2CFFH)
1681   0C64 CD CB 18            CALL L0157
1682   0C67 22 CF 2D            LD (2DCFH),HL
1683   0C6A ED 53 D1 2D         LD (2DD1H),DE
1684   0C6E EB                  EX DE,HL
1685   0C6F ED 5B D3 2D         LD DE,(2DD3H)
1686   0C73 37                  SCF
1687   0C74 3F                  CCF
1688   0C75 ED 52               SBC HL,DE
1689   0C77 EB                  EX DE,HL
1690   0C78 CD D1 17            CALL L0158
1691   0C7B ED 53 D5 2D         LD (2DD5H),DE
1692   0C7F 3E 01               LD A,01H
1693   0C81 32 31 32    L0156:  LD (3231H),A
1694   0C84 3A C9 2D            LD A,(2DC9H)
1695   0C87 FE 01               CP 01H
1696   0C89 C2 F7 0C            JP NZ,L0159
1697   0C8C ED 5B D5 2D         LD DE,(2DD5H)
1698   0C90 CD 9E 17            CALL L0160
1699   0C93 ED 53 D7 2D         LD (2DD7H),DE
1700   0C97 21 55 01            LD HL,0155H
1701   0C9A 37                  SCF
1702   0C9B ED 52               SBC HL,DE
1703   0C9D DA F2 0C            JP C,L0161
1704   0CA0 ED 4B C7 2D         LD BC,(2DC7H)
1705   0CA4 CD 78 1C            CALL L0086
1706   0CA7 DD E5               PUSH IX
1707   0CA9 D1                  POP DE
1708   0CAA 01 A3 00            LD BC,00A3H
1709   0CAD CD CC 1C            CALL L0162
1710   0CB0 ED 53 CD 2D         LD (2DCDH),DE
1711   0CB4 ED 5B D7 2D         LD DE,(2DD7H)
1712   0CB8 CB 3A               SRL D
1713   0CBA CB 1B               RR E
1714   0CBC CD 55 1D            CALL L0163
1715   0CBF EB                  EX DE,HL
1716   0CC0 ED 4B C7 2D         LD BC,(2DC7H)
1717   0CC4 CD 78 1C            CALL L0086
1718   0CC7 DD E5               PUSH IX
1719   0CC9 D1                  POP DE
1720   0CCA CB 22               SLA D
1721   0CCC CB 15               RL L
1722   0CCE CB 14               RL H
1723   0CD0 22 CB 2D            LD (2DCBH),HL
1724   0CD3 EB                  EX DE,HL
1725   0CD4 2A CF 2D            LD HL,(2DCFH)
1726   0CD7 37                  SCF
1727   0CD8 3F                  CCF
1728   0CD9 ED 52               SBC HL,DE
1729   0CDB 38 15               JR C,L0161
1730   0CDD 22 CF 2D            LD (2DCFH),HL
1731   0CE0 2A 78 2A            LD HL,(2A78H)
1732   0CE3 ED 5B CB 2D         LD DE,(2DCBH)
1733   0CE7 37                  SCF
1734   0CE8 3F                  CCF
1735   0CE9 ED 52               SBC HL,DE
1736   0CEB 38 05               JR C,L0161
1737   0CED 22 78 2A            LD (2A78H),HL
1738   0CF0 18 12               JR L0164
1739   0CF2 3E 11       L0161:  LD A,11H
1740   0CF4 CD 0E 04            CALL L0041
1741   0CF7 21 00 00    L0159:  LD HL,0000H
1742   0CFA 22 86 2A            LD (2A86H),HL
1743   0CFD 22 CD 2D            LD (2DCDH),HL
1744   0D00 AF                  XOR A
1745   0D01 32 C9 2D            LD (2DC9H),A
1746   0D04 3A CA 2D    L0164:  LD A,(2DCAH)
1747   0D07 FE 01               CP 01H
1748   0D09 28 29               JR Z,L0165
1749   0D0B ED 5B D3 2D         LD DE,(2DD3H)
1750   0D0F 2A 5D 2A            LD HL,(2A5DH)
1751   0D12 37                  SCF
1752   0D13 3F                  CCF
1753   0D14 ED 52               SBC HL,DE
1754   0D16 EB                  EX DE,HL
1755   0D17 CD 9E 17            CALL L0160
1756   0D1A 21 0A 00            LD HL,000AH
1757   0D1D 37                  SCF
1758   0D1E ED 52               SBC HL,DE
1759   0D20 CB 7C               BIT 7,H
1760   0D22 28 10               JR Z,L0165
1761   0D24 ED 5B D3 2D         LD DE,(2DD3H)
1762   0D28 CD E3 0F            CALL L0166
1763   0D2B DA A4 0B            JP C,L0167
1764   0D2E 21 00 00            LD HL,0000H
1765   0D31 22 DE 2C            LD (2CDEH),HL
1766   0D34 AF          L0165:  XOR A
1767   0D35 32 CA 2D            LD (2DCAH),A
1768   0D38 2A 84 2A            LD HL,(2A84H)
1769   0D3B 22 0B 2A            LD (2A0BH),HL
1770   0D3E ED 5B D3 2D         LD DE,(2DD3H)
1771   0D42 CD C3 81            CALL L0168
1772   0D45 CD CE 13            CALL L0121
1773   0D48 2A 0B 2A            LD HL,(2A0BH)
1774   0D4B CD 8C 19            CALL L0169
1775   0D4E C3 6C 0E            JP L0170
1776   0D51 CD CE 13    L0186:  CALL L0121
1777   0D54 20 17               JR NZ,L0171
1778   0D56 3A DB 2D            LD A,(2DDBH)
1779   0D59 FE 01               CP 01H
1780   0D5B 20 10               JR NZ,L0171
1781   0D5D 3A 61 2A            LD A,(2A61H)
1782   0D60 FE 04               CP 04H
1783   0D62 28 09               JR Z,L0171
1784   0D64 CD 41 8F            CALL L0172
1785   0D67 DA E1 0B            JP C,L0173
1786   0D6A C3 24 0A            JP L0174
1787   0D6D 2A 0B 2A    L0171:  LD HL,(2A0BH)
1788   0D70 CD 79 19            CALL L0175
1789   0D73 2A 0B 2A            LD HL,(2A0BH)
1790   0D76 CD 8C 19            CALL L0169
1791   0D79 ED 4B 78 2A         LD BC,(2A78H)
1792   0D7D CB 7C               BIT 7,H
1793   0D7F 28 2F               JR Z,L0176
1794   0D81 3A C9 2D            LD A,(2DC9H)
1795   0D84 FE 01               CP 01H
1796   0D86 C2 78 0E            JP NZ,L0177
1797   0D89 32 CA 2D            LD (2DCAH),A
1798   0D8C AF                  XOR A
1799   0D8D 32 C9 2D            LD (2DC9H),A
1800   0D90 ED 5B CD 2D         LD DE,(2DCDH)
1801   0D94 2A CF 2D            LD HL,(2DCFH)
1802   0D97 19                  ADD HL,DE
1803   0D98 22 78 2A            LD (2A78H),HL
1804   0D9B 2A 86 2A            LD HL,(2A86H)
1805   0D9E 22 F5 2C            LD (2CF5H),HL
1806   0DA1 2A D5 2D            LD HL,(2DD5H)
1807   0DA4 22 C1 31            LD (31C1H),HL
1808   0DA7 21 00 00            LD HL,0000H
1809   0DAA 22 C3 31            LD (31C3H),HL
1810   0DAD 22 86 2A            LD (2A86H),HL
1811   0DB0 3A CA 2D    L0176:  LD A,(2DCAH)
1812   0DB3 FE 01               CP 01H
1813   0DB5 20 09               JR NZ,L0178
1814   0DB7 CD C9 19            CALL L0179
1815   0DBA C2 78 0E            JP NZ,L0177
1816   0DBD C3 6C 0E            JP L0170
1817   0DC0 2A 9E 31    L0178:  LD HL,(319EH)
1818   0DC3 ED 5B 78 2A         LD DE,(2A78H)
1819   0DC7 CB 2A               SRA D
1820   0DC9 CB 1B               RR E
1821   0DCB CB 2A               SRA D
1822   0DCD CB 1B               RR E
1823   0DCF CD BB 17            CALL L0150
1824   0DD2 ED 53 A4 31         LD (31A4H),DE
1825   0DD6 2A FD 2C            LD HL,(2CFDH)
1826   0DD9 ED 5B FF 2C         LD DE,(2CFFH)
1827   0DDD CD C3 18            CALL L0152
1828   0DE0 ED 53 C9 31         LD (31C9H),DE
1829   0DE4 C2 90 0B            JP NZ,L0153
1830   0DE7 E5                  PUSH HL
1831   0DE8 2A 8E 31            LD HL,(318EH)
1832   0DEB 19                  ADD HL,DE
1833   0DEC ED 5B 90 31         LD DE,(3190H)
1834   0DF0 ED 5A               ADC HL,DE
1835   0DF2 EB                  EX DE,HL
1836   0DF3 CD 98 0F            CALL L0154
1837   0DF6 D5                  PUSH DE
1838   0DF7 EB                  EX DE,HL
1839   0DF8 ED 5B D3 2D         LD DE,(2DD3H)
1840   0DFC 37                  SCF
1841   0DFD 3F                  CCF
1842   0DFE ED 52               SBC HL,DE
1843   0E00 D1                  POP DE
1844   0E01 CD C4 17            CALL L0080
1845   0E04 7C                  LD A,H
1846   0E05 CD 90 17            CALL L0180
1847   0E08 ED 4B A4 31         LD BC,(31A4H)
1848   0E0C 37                  SCF
1849   0E0D ED 42               SBC HL,BC
1850   0E0F 38 0D               JR C,L0181
1851   0E11 CB 7F               BIT 7,A
1852   0E13 C4 AF 17            CALL NZ,L0182
1853   0E16 2A D3 2D            LD HL,(2DD3H)
1854   0E19 09                  ADD HL,BC
1855   0E1A EB                  EX DE,HL
1856   0E1B CD D1 17            CALL L0158
1857   0E1E CD 36 17    L0181:  CALL L0183
1858   0E21 C1                  POP BC
1859   0E22 DA A4 0B            JP C,L0167
1860   0E25 3A 61 2D            LD A,(2D61H)
1861   0E28 A7                  AND A
1862   0E29 28 41               JR Z,L0170
1863   0E2B 2A D9 2D            LD HL,(2DD9H)
1864   0E2E 29                  ADD HL,HL
1865   0E2F 29                  ADD HL,HL
1866   0E30 EB                  EX DE,HL
1867   0E31 2A E8 2C            LD HL,(2CE8H)
1868   0E34 7C                  LD A,H
1869   0E35 B5                  OR L
1870   0E36 28 34               JR Z,L0170
1871   0E38 37                  SCF
1872   0E39 3F                  CCF
1873   0E3A ED 52               SBC HL,DE
1874   0E3C EB                  EX DE,HL
1875   0E3D 2A 59 2D            LD HL,(2D59H)
1876   0E40 09                  ADD HL,BC
1877   0E41 EB                  EX DE,HL
1878   0E42 ED 52               SBC HL,DE
1879   0E44 E5                  PUSH HL
1880   0E45 EB                  EX DE,HL
1881   0E46 CD 9E 17            CALL L0160
1882   0E49 2A 5B 2D            LD HL,(2D5BH)
1883   0E4C 37                  SCF
1884   0E4D ED 52               SBC HL,DE
1885   0E4F D1                  POP DE
1886   0E50 38 1A               JR C,L0170
1887   0E52 2A 78 2A            LD HL,(2A78H)
1888   0E55 19                  ADD HL,DE
1889   0E56 22 78 2A            LD (2A78H),HL
1890   0E59 D5                  PUSH DE
1891   0E5A C1                  POP BC
1892   0E5B CD AF 17            CALL L0182
1893   0E5E ED 5B 5D 2A         LD DE,(2A5DH)
1894   0E62 CD 98 0F            CALL L0154
1895   0E65 CD A1 81            CALL L0184
1896   0E68 AF                  XOR A
1897   0E69 32 61 2D            LD (2D61H),A
1898   0E6C CD DF 0E    L0170:  CALL L0122
1899   0E6F CD 81 09            CALL L0099
1900   0E72 CD 4B 82            CALL L0185
1901   0E75 C3 51 0D            JP L0186
1902   0E78 3A 61 2D    L0177:  LD A,(2D61H)
1903   0E7B A7                  AND A
1904   0E7C 28 07               JR Z,L0187
1905   0E7E CD 73 81            CALL L0188
1906   0E81 AF                  XOR A
1907   0E82 32 61 2D            LD (2D61H),A
1908   0E85 21 00 00    L0187:  LD HL,0000H
1909   0E88 22 59 2D            LD (2D59H),HL
1910   0E8B 22 AD 31            LD (31ADH),HL
1911   0E8E 3A 75 2D            LD A,(2D75H)
1912   0E91 A7                  AND A
1913   0E92 28 04               JR Z,L0189
1914   0E94 3D                  DEC A
1915   0E95 32 75 2D            LD (2D75H),A
1916   0E98 3A 77 2D    L0189:  LD A,(2D77H)
1917   0E9B A7                  AND A
1918   0E9C C4 81 81            CALL NZ,L0190
1919   0E9F 3A CA 2D            LD A,(2DCAH)
1920   0EA2 FE 01               CP 01H
1921   0EA4 28 13               JR Z,L0191
1922   0EA6 2A 0F 2A            LD HL,(2A0FH)
1923   0EA9 09                  ADD HL,BC
1924   0EAA 22 0F 2A            LD (2A0FH),HL
1925   0EAD CD 81 09            CALL L0099
1926   0EB0 CD 81 09            CALL L0099
1927   0EB3 2A 86 2A            LD HL,(2A86H)
1928   0EB6 22 0B 2A            LD (2A0BH),HL
1929   0EB9 CD D3 0E    L0191:  CALL L0192
1930   0EBC 3A 61 2A            LD A,(2A61H)
1931   0EBF FE 04               CP 04H
1932   0EC1 CC 67 08            CALL Z,L0128
1933   0EC4 2A FD 2C            LD HL,(2CFDH)
1934   0EC7 22 CF 31            LD (31CFH),HL
1935   0ECA 2A FF 2C            LD HL,(2CFFH)
1936   0ECD 22 D1 31            LD (31D1H),HL
1937   0ED0 C3 24 0A            JP L0174
1938   0ED3 E5          L0192:  PUSH HL
1939   0ED4 21 2F 32            LD HL,322FH
1940   0ED7 35                  DEC (HL)
1941   0ED8 F2 DD 0E            JP P,L0193
1942   0EDB 36 00               LD (HL),00H
1943   0EDD E1          L0193:  POP HL
1944   0EDE C9                  RET
1945   0EDF 21 E8 03    L0122:  LD HL,03E8H
1946   0EE2 22 DC 2C            LD (2CDCH),HL
1947   0EE5 22 DE 2C            LD (2CDEH),HL
1948   0EE8 22 E0 2C            LD (2CE0H),HL
1949   0EEB 22 E2 2C            LD (2CE2H),HL
1950   0EEE 22 E6 2C            LD (2CE6H),HL
1951   0EF1 22 E4 2C            LD (2CE4H),HL
1952   0EF4 21 00 00            LD HL,0000H
1953   0EF7 22 E8 2C            LD (2CE8H),HL
1954   0EFA 3A 2F 32            LD A,(322FH)
1955   0EFD A7                  AND A
1956   0EFE 20 08               JR NZ,L0194
1957   0F00 3A 63 2D            LD A,(2D63H)
1958   0F03 FE 01               CP 01H
1959   0F05 CC 19 84            CALL Z,L0195
1960   0F08 C9          L0194:  RET
1961   0F09 CB 78       L0269:  BIT 7,B
1962   0F0B 28 0A               JR Z,L0196
1963   0F0D CD AF 17            CALL L0182
1964   0F10 21 00 02            LD HL,0200H
1965   0F13 19                  ADD HL,DE
1966   0F14 CB 94               RES 2,H
1967   0F16 EB                  EX DE,HL
1968   0F17 CD 6D 1D    L0196:  CALL L0197
1969   0F1A 7A                  LD A,D
1970   0F1B 3C                  INC A
1971   0F1C CD 29 0F            CALL L0198
1972   0F1F E5                  PUSH HL
1973   0F20 CD 7F 1D            CALL L0199
1974   0F23 7A                  LD A,D
1975   0F24 CD 29 0F            CALL L0198
1976   0F27 D1                  POP DE
1977   0F28 C9                  RET
1978   0F29 C5          L0198:  PUSH BC
1979   0F2A D5                  PUSH DE
1980   0F2B F5                  PUSH AF
1981   0F2C EB                  EX DE,HL
1982   0F2D CD 78 1C            CALL L0086
1983   0F30 F1                  POP AF
1984   0F31 CB 4F               BIT 1,A
1985   0F33 C4 93 17            CALL NZ,L0200
1986   0F36 D1                  POP DE
1987   0F37 C1                  POP BC
1988   0F38 C9                  RET
1989   0F39 E5          L0257:  PUSH HL
1990   0F3A 2A 51 2A            LD HL,(2A51H)
1991   0F3D 22 45 2D            LD (2D45H),HL
1992   0F40 2A 57 2A            LD HL,(2A57H)
1993   0F43 22 47 2D            LD (2D47H),HL
1994   0F46 3A 01 24            LD A,(2401H)
1995   0F49 FE 0A               CP 0AH
1996   0F4B 28 08               JR Z,L0201
1997   0F4D FE 17               CP 17H
1998   0F4F 28 04               JR Z,L0201
1999   0F51 FE 22               CP 22H
2000   0F53 20 05               JR NZ,L0202
2001   0F55 3E 00       L0201:  LD A,00H
2002   0F57 CD 0E 04            CALL L0041
2003   0F5A E1          L0202:  POP HL
2004   0F5B C9                  RET
2005   0F5C E5          L0258:  PUSH HL
2006   0F5D 21 00 00            LD HL,0000H
2007   0F60 22 4B 2D            LD (2D4BH),HL
2008   0F63 22 57 2D            LD (2D57H),HL
2009   0F66 22 53 32            LD (3253H),HL
2010   0F69 E1                  POP HL
2011   0F6A C9                  RET
2012   0F6B AF          L0132:  XOR A
2013   0F6C 18 02               JR L0203
2014   0F6E 3E 01       L0146:  LD A,01H
2015   0F70 11 67 24    L0203:  LD DE,2467H
2016   0F73 18 0D               JR L0204
2017   0F75 3E 01       L0100:  LD A,01H
2018   0F77 18 06               JR L0205
2019   0F79 3E 00       L0103:  LD A,00H
2020   0F7B 18 02               JR L0205
2021   0F7D 3E 02       L0098:  LD A,02H
2022   0F7F 11 00 24    L0205:  LD DE,2400H
2023   0F82 32 32 32    L0204:  LD (3232H),A
2024   0F85 3A 63 2D            LD A,(2D63H)
2025   0F88 FE 01               CP 01H
2026   0F8A 20 0B               JR NZ,L0206
2027   0F8C 01 01 00            LD BC,0001H
2028   0F8F 3E 03               LD A,03H
2029   0F91 21 32 32            LD HL,3232H
2030   0F94 CD F1 91            CALL L0207
2031   0F97 C9          L0206:  RET
2032   0F98 F5          L0154:  PUSH AF
2033   0F99 3A 61 2A            LD A,(2A61H)
2034   0F9C FE 04               CP 04H
2035   0F9E 20 07               JR NZ,L0208
2036   0FA0 E5                  PUSH HL
2037   0FA1 21 00 02            LD HL,0200H
2038   0FA4 19                  ADD HL,DE
2039   0FA5 EB                  EX DE,HL
2040   0FA6 E1                  POP HL
2041   0FA7 CD D1 17    L0208:  CALL L0158
2042   0FAA F1                  POP AF
2043   0FAB C9                  RET
2044   0FAC CD 42 16            CALL L0148
2045   0FAF ED 5B 55 2A         LD DE,(2A55H)
2046   0FB3 7A                  LD A,D
2047   0FB4 E6 FC               AND 0FCH
2048   0FB6 C2 9C 0B            JP NZ,L0209
2049   0FB9 CD E3 0F            CALL L0166
2050   0FBC DA A4 0B            JP C,L0167
2051   0FBF C3 24 0A            JP L0174
2052   0FC2 CD 42 16            CALL L0148
2053   0FC5 ED 5B 55 2A         LD DE,(2A55H)
2054   0FC9 ED 53 C4 2C         LD (2CC4H),DE
2055   0FCD 3A 03 24            LD A,(2403H)
2056   0FD0 4F                  LD C,A
2057   0FD1 06 00               LD B,00H
2058   0FD3 A7                  AND A
2059   0FD4 20 04               JR NZ,L0210
2060   0FD6 ED 4B 76 2A         LD BC,(2A76H)
2061   0FDA CD 09 10    L0210:  CALL L0211
2062   0FDD DA A4 0B            JP C,L0167
2063   0FE0 C3 24 0A            JP L0174
2064   0FE3 21 00 00    L0166:  LD HL,0000H
2065   0FE6 22 0D 2A            LD (2A0DH),HL
2066   0FE9 22 0B 2A            LD (2A0BH),HL
2067   0FEC 2A 5D 2A            LD HL,(2A5DH)
2068   0FEF EB                  EX DE,HL
2069   0FF0 37                  SCF
2070   0FF1 3F                  CCF
2071   0FF2 ED 52               SBC HL,DE
2072   0FF4 EB                  EX DE,HL
2073   0FF5 CD D1 17            CALL L0158
2074   0FF8 21 F4 01            LD HL,01F4H
2075   0FFB 19                  ADD HL,DE
2076   0FFC CB 7C               BIT 7,H
2077   0FFE 28 05               JR Z,L0212
2078   1000 21 00 04            LD HL,0400H
2079   1003 19                  ADD HL,DE
2080   1004 EB                  EX DE,HL
2081   1005 ED 4B 76 2A L0212:  LD BC,(2A76H)
2082   1009 CB 7A       L0211:  BIT 7,D
2083   100B 28 03               JR Z,L0213
2084   100D CD AF 17            CALL L0182
2085   1010 ED 53 C1 31 L0213:  LD (31C1H),DE
2086   1014 21 00 00            LD HL,0000H
2087   1017 22 C3 31            LD (31C3H),HL
2088   101A ED 43 BF 31         LD (31BFH),BC
2089   101E CD 60 15            CALL L0214
2090   1021 CD D2 10    L0222:  CALL L0118
2091   1024 2A E0 2C            LD HL,(2CE0H)
2092   1027 ED 5B 4F 2D         LD DE,(2D4FH)
2093   102B 3E 16               LD A,16H
2094   102D ED 52               SBC HL,DE
2095   102F 38 0D               JR C,L0215
2096   1031 2A E2 2C            LD HL,(2CE2H)
2097   1034 ED 5B 51 2D         LD DE,(2D51H)
2098   1038 3E 15               LD A,15H
2099   103A ED 52               SBC HL,DE
2100   103C 30 17               JR NC,L0216
2101   103E 21 55 2D    L0215:  LD HL,2D55H
2102   1041 35                  DEC (HL)
2103   1042 20 04               JR NZ,L0217
2104   1044 34                  INC (HL)
2105   1045 CD 0E 04            CALL L0041
2106   1048 ED 4B 05 2A L0217:  LD BC,(2A05H)
2107   104C CB 21               SLA C
2108   104E CB 10               RL B
2109   1050 CD 87 10            CALL L0218
2110   1053 18 06               JR L0219
2111   1055 CD 60 15    L0216:  CALL L0214
2112   1058 CD 89 10            CALL L0220
2113   105B C2 67 10    L0219:  JP NZ,L0221
2114   105E CD DF 0E            CALL L0122
2115   1061 CD 81 09            CALL L0099
2116   1064 C3 21 10            JP L0222
2117   1067 2A 11 2A    L0221:  LD HL,(2A11H)
2118   106A 09                  ADD HL,BC
2119   106B 22 11 2A            LD (2A11H),HL
2120   106E 21 00 00            LD HL,0000H
2121   1071 22 0D 2A            LD (2A0DH),HL
2122   1074 CD F3 12            CALL L0223
2123   1077 CD CE 12            CALL L0224
2124   107A 06 07               LD B,07H
2125   107C CD 81 09    L0225:  CALL L0099
2126   107F 10 FB               DJNZ L0225
2127   1081 CD 04 13            CALL L0053
2128   1084 37                  SCF
2129   1085 3F                  CCF
2130   1086 C9                  RET
2131   1087 18 11       L0218:  JR L0226
2132   1089 CD 75 17    L0220:  CALL L0227
2133   108C 2A BF 31            LD HL,(31BFH)
2134   108F ED 4B 05 2A         LD BC,(2A05H)
2135   1093 3A 67 2A            LD A,(2A67H)
2136   1096 FE 04               CP 04H
2137   1098 20 03               JR NZ,L0228
2138   109A 21 00 00    L0226:  LD HL,0000H
2139   109D 22 05 24    L0228:  LD (2405H),HL
2140   10A0 ED 5B 0D 2A         LD DE,(2A0DH)
2141   10A4 CD F3 19            CALL L0120
2142   10A7 22 0D 2A            LD (2A0DH),HL
2143   10AA 2A 0D 2A            LD HL,(2A0DH)
2144   10AD CD 93 17            CALL L0200
2145   10B0 ED 4B C1 31         LD BC,(31C1H)
2146   10B4 ED 5B C3 31         LD DE,(31C3H)
2147   10B8 C5                  PUSH BC
2148   10B9 CD A7 19            CALL L0229
2149   10BC C1                  POP BC
2150   10BD 22 C1 31            LD (31C1H),HL
2151   10C0 ED 53 C3 31         LD (31C3H),DE
2152   10C4 78                  LD A,B
2153   10C5 AC                  XOR H
2154   10C6 E6 80               AND 80H
2155   10C8 20 07               JR NZ,L0230
2156   10CA 2A 0D 2A            LD HL,(2A0DH)
2157   10CD CD 49 19            CALL L0111
2158   10D0 AF                  XOR A
2159   10D1 C9          L0230:  RET
2160   10D2 3A 7D 2A    L0118:  LD A,(2A7DH)
2161   10D5 A7                  AND A
2162   10D6 28 09               JR Z,L0231
2163   10D8 3A AC 31            LD A,(31ACH)
2164   10DB 3C                  INC A
2165   10DC FE 0A               CP 0AH
2166   10DE D2 A4 0B            JP NC,L0167
2167   10E1 32 AC 31    L0231:  LD (31ACH),A
2168   10E4 C9                  RET
2169   10E5 06 03               LD B,03H
2170   10E7 2A 03 24            LD HL,(2403H)
2171   10EA 26 00               LD H,00H
2172   10EC 7D                  LD A,L
2173   10ED B7                  OR A
2174   10EE 28 1D               JR Z,L0232
2175   10F0 11 80 3E            LD DE,3E80H
2176   10F3 19                  ADD HL,DE
2177   10F4 18 13               JR L0233
2178   10F6 DD 23       L0234:  INC IX
2179   10F8 DD 23               INC IX
2180   10FA DD 6E 00            LD L,(IX+00H)
2181   10FD DD 66 01            LD H,(IX+01H)
2182   1100 7C                  LD A,H
2183   1101 B5                  OR L
2184   1102 28 09               JR Z,L0232
2185   1104 7E                  LD A,(HL)
2186   1105 DD 77 06            LD (IX+06H),A
2187   1108 23                  INC HL
2188   1109 7E          L0233:  LD A,(HL)
2189   110A DD 77 07            LD (IX+07H),A
2190   110D 10 E7       L0232:  DJNZ L0234
2191   110F C3 24 0A            JP L0174
2192   1112 ED 4B 55 2A         LD BC,(2A55H)
2193   1116 CB 78               BIT 7,B
2194   1118 C2 9C 0B            JP NZ,L0209
2195   111B ED 43 55 2A L0235:  LD (2A55H),BC
2196   111F CD 81 09            CALL L0099
2197   1122 0D                  DEC C
2198   1123 20 F6               JR NZ,L0235
2199   1125 05                  DEC B
2200   1126 F2 1B 11            JP P,L0235
2201   1129 C3 24 0A            JP L0174
2202   112C 0E 02               LD C,02H
2203   112E 18 02               JR L0236
2204   1130 0E 01               LD C,01H
2205   1132 2A 5B 2A    L0236:  LD HL,(2A5BH)
2206   1135 18 09               JR L0237
2207   1137 0E 02               LD C,02H
2208   1139 18 02               JR L0238
2209   113B 0E 01               LD C,01H
2210   113D 21 5B 2A    L0238:  LD HL,2A5BH
2211   1140 06 00       L0237:  LD B,00H
2212   1142 ED 5B 55 2A         LD DE,(2A55H)
2213   1146 3A 03 24            LD A,(2403H)
2214   1149 FE 02               CP 02H
2215   114B 30 05               JR NC,L0239
2216   114D ED B0               LDIR
2217   114F C3 24 0A            JP L0174
2218   1152 CD F1 91    L0239:  CALL L0207
2219   1155 CD 81 09            CALL L0099
2220   1158 C3 24 0A            JP L0174
2221   115B 01 02 00            LD BC,0002H
2222   115E 18 07               JR L0240
2223   1160 01 01 00            LD BC,0001H
2224   1163 AF                  XOR A
2225   1164 32 B1 2A            LD (2AB1H),A
2226   1167 3A 03 24    L0240:  LD A,(2403H)
2227   116A ED 5B 55 2A         LD DE,(2A55H)
2228   116E FE 02               CP 02H
2229   1170 30 09               JR NC,L0241
2230   1172 EB                  EX DE,HL
2231   1173 11 B0 2A            LD DE,2AB0H
2232   1176 ED B0               LDIR
2233   1178 C3 24 0A            JP L0174
2234   117B CD E7 91    L0241:  CALL L0242
2235   117E CD 81 09            CALL L0099
2236   1181 2A 5C 30            LD HL,(305CH)
2237   1184 22 B0 2A            LD (2AB0H),HL
2238   1187 C3 24 0A            JP L0174
2239   118A 3A 03 24    L0245:  LD A,(2403H)
2240   118D 32 08 24            LD (2408H),A
2241   1190 C3 3D 0A            JP L0243
2242   1193 CD 83 12            CALL L0244
2243   1196 EB                  EX DE,HL
2244   1197 37                  SCF
2245   1198 3F                  CCF
2246   1199 ED 52               SBC HL,DE
2247   119B CB 14               RL H
2248   119D DA 8A 11            JP C,L0245
2249   11A0 C3 24 0A            JP L0174
2250   11A3 CD 83 12            CALL L0244
2251   11A6 37                  SCF
2252   11A7 3F                  CCF
2253   11A8 ED 52               SBC HL,DE
2254   11AA CB 14               RL H
2255   11AC DA 8A 11            JP C,L0245
2256   11AF C3 24 0A            JP L0174
2257   11B2 CD 83 12            CALL L0244
2258   11B5 37                  SCF
2259   11B6 3F                  CCF
2260   11B7 ED 52               SBC HL,DE
2261   11B9 CA 8A 11            JP Z,L0245
2262   11BC C3 24 0A            JP L0174
2263   11BF 3A 08 24    L0246:  LD A,(2408H)
2264   11C2 2A 17 32            LD HL,(3217H)
2265   11C5 77                  LD (HL),A
2266   11C6 23                  INC HL
2267   11C7 E5                  PUSH HL
2268   11C8 11 2D 32            LD DE,322DH
2269   11CB 37                  SCF
2270   11CC 3F                  CCF
2271   11CD ED 52               SBC HL,DE
2272   11CF E1                  POP HL
2273   11D0 D2 94 0B            JP NC,L0133
2274   11D3 22 17 32            LD (3217H),HL
2275   11D6 3A 03 24            LD A,(2403H)
2276   11D9 32 08 24            LD (2408H),A
2277   11DC C3 3D 0A            JP L0243
2278   11DF CD 83 12            CALL L0244
2279   11E2 EB                  EX DE,HL
2280   11E3 37                  SCF
2281   11E4 3F                  CCF
2282   11E5 ED 52               SBC HL,DE
2283   11E7 CB 14               RL H
2284   11E9 DA BF 11            JP C,L0246
2285   11EC C3 24 0A            JP L0174
2286   11EF CD 83 12            CALL L0244
2287   11F2 37                  SCF
2288   11F3 3F                  CCF
2289   11F4 ED 52               SBC HL,DE
2290   11F6 CB 14               RL H
2291   11F8 DA BF 11            JP C,L0246
2292   11FB C3 24 0A            JP L0174
2293   11FE CD 83 12            CALL L0244
2294   1201 37                  SCF
2295   1202 3F                  CCF
2296   1203 ED 52               SBC HL,DE
2297   1205 CA BF 11            JP Z,L0246
2298   1208 C3 24 0A            JP L0174
2299   120B 2A 17 32            LD HL,(3217H)
2300   120E 2B                  DEC HL
2301   120F E5                  PUSH HL
2302   1210 11 19 32            LD DE,3219H
2303   1213 37                  SCF
2304   1214 3F                  CCF
2305   1215 ED 52               SBC HL,DE
2306   1217 E1                  POP HL
2307   1218 DA 94 0B            JP C,L0133
2308   121B 22 17 32            LD (3217H),HL
2309   121E 7E                  LD A,(HL)
2310   121F 32 08 24            LD (2408H),A
2311   1222 C3 24 0A            JP L0174
2312   1225 CD 7C 12            CALL L0247
2313   1228 37                  SCF
2314   1229 3F                  CCF
2315   122A 19                  ADD HL,DE
2316   122B CD AB 12            CALL L0248
2317   122E C3 24 0A            JP L0174
2318   1231 CD 7C 12            CALL L0247
2319   1234 37                  SCF
2320   1235 3F                  CCF
2321   1236 ED 52               SBC HL,DE
2322   1238 CD AB 12            CALL L0248
2323   123B C3 24 0A            JP L0174
2324   123E CD 7C 12            CALL L0247
2325   1241 CD 90 17            CALL L0180
2326   1244 CD AB 12            CALL L0248
2327   1247 C3 24 0A            JP L0174
2328   124A CD 7C 12            CALL L0247
2329   124D 44                  LD B,H
2330   124E 4D                  LD C,L
2331   124F CD 4E 1C            CALL L0092
2332   1252 EB                  EX DE,HL
2333   1253 CD AB 12            CALL L0248
2334   1256 C3 24 0A            JP L0174
2335   1259 CD 7C 12            CALL L0247
2336   125C 42                  LD B,D
2337   125D 4B                  LD C,E
2338   125E EB                  EX DE,HL
2339   125F 21 00 00            LD HL,0000H
2340   1262 CB 7A               BIT 7,D
2341   1264 28 01               JR Z,L0249
2342   1266 2B                  DEC HL
2343   1267 CD A4 1C    L0249:  CALL L0250
2344   126A EB                  EX DE,HL
2345   126B CD AB 12            CALL L0248
2346   126E C3 24 0A            JP L0174
2347   1271 3E 01               LD A,01H
2348   1273 32 06 2D            LD (2D06H),A
2349   1276 32 05 A0            LD (0A005H),A
2350   1279 C3 24 0A            JP L0174
2351   127C 3A 03 24    L0247:  LD A,(2403H)
2352   127F FE 02               CP 02H
2353   1281 30 13               JR NC,L0251
2354   1283 ED 5B 55 2A L0244:  LD DE,(2A55H)
2355   1287 2A B0 2A            LD HL,(2AB0H)
2356   128A 7A                  LD A,D
2357   128B B3                  OR E
2358   128C 28 18               JR Z,L0252
2359   128E EB                  EX DE,HL
2360   128F 5E                  LD E,(HL)
2361   1290 23                  INC HL
2362   1291 56                  LD D,(HL)
2363   1292 EB                  EX DE,HL
2364   1293 C3 A6 12            JP L0252
2365   1296 01 02 00    L0251:  LD BC,0002H
2366   1299 ED 5B 55 2A         LD DE,(2A55H)
2367   129D CD E7 91            CALL L0242
2368   12A0 CD 81 09            CALL L0099
2369   12A3 2A 5C 30            LD HL,(305CH)
2370   12A6 ED 5B 5B 2A L0252:  LD DE,(2A5BH)
2371   12AA C9                  RET
2372   12AB 22 B0 2A    L0248:  LD (2AB0H),HL
2373   12AE 3A 03 24            LD A,(2403H)
2374   12B1 01 02 00            LD BC,0002H
2375   12B4 21 B0 2A            LD HL,2AB0H
2376   12B7 ED 5B 55 2A         LD DE,(2A55H)
2377   12BB FE 02               CP 02H
2378   12BD 30 08               JR NC,L0253
2379   12BF 7A                  LD A,D
2380   12C0 B3                  OR E
2381   12C1 28 0A               JR Z,L0254
2382   12C3 ED B0               LDIR
2383   12C5 18 06               JR L0254
2384   12C7 CD F1 91    L0253:  CALL L0207
2385   12CA CD 81 09            CALL L0099
2386   12CD C9          L0254:  RET
2387   12CE 21 B4 2A    L0224:  LD HL,2AB4H
2388   12D1 11 43 2A            LD DE,2A43H
2389   12D4 CD E2 12            CALL L0255
2390   12D7 C9                  RET
2391   12D8 21 B2 2A    L0260:  LD HL,2AB2H
2392   12DB 11 41 2A            LD DE,2A41H
2393   12DE CD E2 12            CALL L0255
2394   12E1 C9                  RET
2395   12E2 06 04       L0255:  LD B,04H
2396   12E4 7E          L0256:  LD A,(HL)
2397   12E5 12                  LD (DE),A
2398   12E6 23                  INC HL
2399   12E7 13                  INC DE
2400   12E8 7E                  LD A,(HL)
2401   12E9 12                  LD (DE),A
2402   12EA 23                  INC HL
2403   12EB 23                  INC HL
2404   12EC 23                  INC HL
2405   12ED 13                  INC DE
2406   12EE 13                  INC DE
2407   12EF 13                  INC DE
2408   12F0 10 F2               DJNZ L0256
2409   12F2 C9                  RET
2410   12F3 21 41 2A    L0223:  LD HL,2A41H
2411   12F6 11 35 32            LD DE,3235H
2412   12F9 01 10 00            LD BC,0010H
2413   12FC ED B0               LDIR
2414   12FE 3E FF               LD A,0FFH
2415   1300 32 45 32            LD (3245H),A
2416   1303 C9                  RET
2417   1304 21 35 32    L0053:  LD HL,3235H
2418   1307 11 41 2A            LD DE,2A41H
2419   130A 01 10 00            LD BC,0010H
2420   130D ED B0               LDIR
2421   130F AF                  XOR A
2422   1310 32 45 32            LD (3245H),A
2423   1313 C9                  RET
2424   1314 2A 55 2A            LD HL,(2A55H)
2425   1317 22 51 2A            LD (2A51H),HL
2426   131A 2A 5B 2A            LD HL,(2A5BH)
2427   131D 22 57 2A            LD (2A57H),HL
2428   1320 CD 39 0F            CALL L0257
2429   1323 CD 5C 0F            CALL L0258
2430   1326 CD 70 13            CALL L0259
2431   1329 C3 24 0A            JP L0174
2432   132C 2A 55 2A            LD HL,(2A55H)
2433   132F 7C                  LD A,H
2434   1330 E6 FC               AND 0FCH
2435   1332 C2 9C 0B            JP NZ,L0209
2436   1335 22 5D 2A            LD (2A5DH),HL
2437   1338 C3 24 0A            JP L0174
2438   133B CD 42 16            CALL L0148
2439   133E CD F3 12            CALL L0223
2440   1341 CD CE 12            CALL L0224
2441   1344 CD D8 12            CALL L0260
2442   1347 AF                  XOR A
2443   1348 32 86 2A            LD (2A86H),A
2444   134B 2A 55 2A            LD HL,(2A55H)
2445   134E 3A 03 24            LD A,(2403H)
2446   1351 A7                  AND A
2447   1352 20 03               JR NZ,L0261
2448   1354 3A 80 2A            LD A,(2A80H)
2449   1357 4F          L0261:  LD C,A
2450   1358 06 00               LD B,00H
2451   135A CD 81 13            CALL L0262
2452   135D 06 0A               LD B,0AH
2453   135F CD 81 09    L0263:  CALL L0099
2454   1362 10 FB               DJNZ L0263
2455   1364 CD 04 13            CALL L0053
2456   1367 CD D3 0E            CALL L0192
2457   136A CD 70 13            CALL L0259
2458   136D C3 24 0A            JP L0174
2459   1370 2A 51 2A    L0259:  LD HL,(2A51H)
2460   1373 22 CF 31            LD (31CFH),HL
2461   1376 2A 57 2A            LD HL,(2A57H)
2462   1379 22 D1 31            LD (31D1H),HL
2463   137C C9                  RET
2464   137D AF                  XOR A
2465   137E 32 2D 32            LD (322DH),A
2466   1381 ED 43 F5 2C L0262:  LD (2CF5H),BC
2467   1385 CB 7C               BIT 7,H
2468   1387 28 08               JR Z,L0264
2469   1389 CD 93 17            CALL L0200
2470   138C E5                  PUSH HL
2471   138D CD 4E 08            CALL L0149
2472   1390 E1                  POP HL
2473   1391 3A 2D 32    L0264:  LD A,(322DH)
2474   1394 FE 01               CP 01H
2475   1396 28 03               JR Z,L0265
2476   1398 22 78 2A            LD (2A78H),HL
2477   139B CD CE 13    L0265:  CALL L0121
2478   139E 2A 0B 2A            LD HL,(2A0BH)
2479   13A1 CD 8C 19            CALL L0169
2480   13A4 CB 7C               BIT 7,H
2481   13A6 20 09               JR NZ,L0266
2482   13A8 CD DF 0E            CALL L0122
2483   13AB CD 81 09            CALL L0099
2484   13AE C3 9B 13            JP L0265
2485   13B1 ED 4B 78 2A L0266:  LD BC,(2A78H)
2486   13B5 2A 0F 2A            LD HL,(2A0FH)
2487   13B8 09                  ADD HL,BC
2488   13B9 22 0F 2A            LD (2A0FH),HL
2489   13BC CD 81 09            CALL L0099
2490   13BF 21 00 00            LD HL,0000H
2491   13C2 22 0B 2A            LD (2A0BH),HL
2492   13C5 21 34 32            LD HL,3234H
2493   13C8 CB 46               BIT 0,(HL)
2494   13CA C4 67 08            CALL NZ,L0128
2495   13CD C9                  RET
2496   13CE ED 5B 3F 2D L0121:  LD DE,(2D3FH)
2497   13D2 2A 59 2D            LD HL,(2D59H)
2498   13D5 7C                  LD A,H
2499   13D6 B5                  OR L
2500   13D7 20 0C               JR NZ,L0267
2501   13D9 2A AD 31            LD HL,(31ADH)
2502   13DC 7C                  LD A,H
2503   13DD B5                  OR L
2504   13DE 28 2D               JR Z,L0268
2505   13E0 ED 4B 5D 2D         LD BC,(2D5DH)
2506   13E4 09                  ADD HL,BC
2507   13E5 E5          L0267:  PUSH HL
2508   13E6 2A FD 2C            LD HL,(2CFDH)
2509   13E9 ED 5B FF 2C         LD DE,(2CFFH)
2510   13ED CD C3 18            CALL L0152
2511   13F0 E5                  PUSH HL
2512   13F1 2A D3 2D            LD HL,(2DD3H)
2513   13F4 ED 52               SBC HL,DE
2514   13F6 EB                  EX DE,HL
2515   13F7 CD D1 17            CALL L0158
2516   13FA C1                  POP BC
2517   13FB CD 09 0F            CALL L0269
2518   13FE E1                  POP HL
2519   13FF 19                  ADD HL,DE
2520   1400 ED 5B 5D 2D         LD DE,(2D5DH)
2521   1404 ED 52               SBC HL,DE
2522   1406 ED 5B 3F 2D         LD DE,(2D3FH)
2523   140A CD BB 17            CALL L0150
2524   140D ED 53 5F 2D L0268:  LD (2D5FH),DE
2525   1411 2A 78 2A            LD HL,(2A78H)
2526   1414 ED 4B 03 2A         LD BC,(2A03H)
2527   1418 3A 00 24            LD A,(2400H)
2528   141B FE 00               CP 00H
2529   141D CA E3 14            JP Z,L0270
2530   1420 22 46 32            LD (3246H),HL
2531   1423 ED 43 48 32         LD (3248H),BC
2532   1427 0E 00               LD C,00H
2533   1429 06 00               LD B,00H
2534   142B 37                  SCF
2535   142C 3F                  CCF
2536   142D 2A E0 2C            LD HL,(2CE0H)
2537   1430 7C                  LD A,H
2538   1431 B5                  OR L
2539   1432 28 3D               JR Z,L0271
2540   1434 ED 5B 4F 2D         LD DE,(2D4FH)
2541   1438 ED 52               SBC HL,DE
2542   143A 3E 16               LD A,16H
2543   143C DA C1 14            JP C,L0272
2544   143F ED 5B A8 31         LD DE,(31A8H)
2545   1443 ED 52               SBC HL,DE
2546   1445 30 03               JR NC,L0273
2547   1447 0D                  DEC C
2548   1448 06 01               LD B,01H
2549   144A 2A E2 2C    L0273:  LD HL,(2CE2H)
2550   144D 7C                  LD A,H
2551   144E B5                  OR L
2552   144F 28 20               JR Z,L0271
2553   1451 ED 5B 51 2D         LD DE,(2D51H)
2554   1455 ED 52               SBC HL,DE
2555   1457 3E 15               LD A,15H
2556   1459 38 66               JR C,L0272
2557   145B ED 5B A8 31         LD DE,(31A8H)
2558   145F ED 52               SBC HL,DE
2559   1461 30 03               JR NC,L0274
2560   1463 0C                  INC C
2561   1464 06 01               LD B,01H
2562   1466 78          L0274:  LD A,B
2563   1467 32 AA 31            LD (31AAH),A
2564   146A 2A DE 2C            LD HL,(2CDEH)
2565   146D 7C                  LD A,H
2566   146E B5                  OR L
2567   146F 20 04               JR NZ,L0275
2568   1471 3E 21       L0271:  LD A,21H
2569   1473 18 4C               JR L0272
2570   1475 ED 5B 5F 2D L0275:  LD DE,(2D5FH)
2571   1479 ED 52               SBC HL,DE
2572   147B E5                  PUSH HL
2573   147C ED 5B 9C 31         LD DE,(319CH)
2574   1480 ED 52               SBC HL,DE
2575   1482 F2 8A 14            JP P,L0276
2576   1485 3A EA 2C            LD A,(2CEAH)
2577   1488 81                  ADD A,C
2578   1489 4F                  LD C,A
2579   148A 79          L0276:  LD A,C
2580   148B 32 AB 31            LD (31ABH),A
2581   148E 2A 8E 31            LD HL,(318EH)
2582   1491 ED 4B 96 31         LD BC,(3196H)
2583   1495 A7                  AND A
2584   1496 20 05               JR NZ,L0277
2585   1498 CD F4 83            CALL L0278
2586   149B 18 0C               JR L0279
2587   149D CB 27       L0277:  SLA A
2588   149F DC AF 17            CALL C,L0182
2589   14A2 ED 5B 92 31         LD DE,(3192H)
2590   14A6 CD E2 83            CALL L0280
2591   14A9 22 8E 31    L0279:  LD (318EH),HL
2592   14AC E1                  POP HL
2593   14AD 3A 08 32            LD A,(3208H)
2594   14B0 CB 7C               BIT 7,H
2595   14B2 20 0D               JR NZ,L0272
2596   14B4 ED 5B 46 32         LD DE,(3246H)
2597   14B8 E5                  PUSH HL
2598   14B9 ED 52               SBC HL,DE
2599   14BB E1                  POP HL
2600   14BC 38 2F               JR C,L0281
2601   14BE EB                  EX DE,HL
2602   14BF 18 2C               JR L0281
2603   14C1 21 55 2D    L0272:  LD HL,2D55H
2604   14C4 35                  DEC (HL)
2605   14C5 20 10               JR NZ,L0282
2606   14C7 34                  INC (HL)
2607   14C8 CD 0E 04            CALL L0041
2608   14CB 0E 01               LD C,01H
2609   14CD FE 21               CP 21H
2610   14CF 20 02               JR NZ,L0283
2611   14D1 0E 00               LD C,00H
2612   14D3 79          L0283:  LD A,C
2613   14D4 32 4A 32            LD (324AH),A
2614   14D7 2A B5 31    L0282:  LD HL,(31B5H)
2615   14DA 2B                  DEC HL
2616   14DB 22 B5 31            LD (31B5H),HL
2617   14DE 7C                  LD A,H
2618   14DF B5                  OR L
2619   14E0 CA BF 0B            JP Z,L0144
2620   14E3 ED 4B 3D 2D L0270:  LD BC,(2D3DH)
2621   14E7 21 00 00            LD HL,0000H
2622   14EA C3 4A 15            JP L0284
2623   14ED 22 90 2A    L0281:  LD (2A90H),HL
2624   14F0 AF                  XOR A
2625   14F1 32 4A 32            LD (324AH),A
2626   14F4 CD 60 15            CALL L0214
2627   14F7 2A DC 2C            LD HL,(2CDCH)
2628   14FA CB 3C               SRL H
2629   14FC CB 1D               RR L
2630   14FE ED 5B F5 2C         LD DE,(2CF5H)
2631   1502 CD BB 17            CALL L0150
2632   1505 EB                  EX DE,HL
2633   1506 3A AA 31            LD A,(31AAH)
2634   1509 A7                  AND A
2635   150A 28 04               JR Z,L0285
2636   150C CB 2C               SRA H
2637   150E CB 1D               RR L
2638   1510 22 94 2A    L0285:  LD (2A94H),HL
2639   1513 ED 5B 0B 2A         LD DE,(2A0BH)
2640   1517 ED 4B 48 32         LD BC,(3248H)
2641   151B CD DE 17            CALL L0286
2642   151E 3A 67 2A            LD A,(2A67H)
2643   1521 FE 04               CP 04H
2644   1523 ED 4B 9C 2A         LD BC,(2A9CH)
2645   1527 2A 86 2A            LD HL,(2A86H)
2646   152A 28 1E               JR Z,L0284
2647   152C 2A 94 2A            LD HL,(2A94H)
2648   152F 3A 7C 2A            LD A,(2A7CH)
2649   1532 A7                  AND A
2650   1533 28 0E               JR Z,L0287
2651   1535 3A 2E 32            LD A,(322EH)
2652   1538 3C                  INC A
2653   1539 FE 0A               CP 0AH
2654   153B D2 A4 0B            JP NC,L0167
2655   153E 32 2E 32            LD (322EH),A
2656   1541 18 11               JR L0288
2657   1543 32 2E 32    L0287:  LD (322EH),A
2658   1546 ED 4B 8E 2A         LD BC,(2A8EH)
2659   154A ED 5B 0B 2A L0284:  LD DE,(2A0BH)
2660   154E CD F3 19            CALL L0120
2661   1551 22 0B 2A            LD (2A0BH),HL
2662   1554 2A 0B 2A    L0288:  LD HL,(2A0BH)
2663   1557 CD 5F 19            CALL L0114
2664   155A 3A 4A 32            LD A,(324AH)
2665   155D FE 01               CP 01H
2666   155F C9                  RET
2667   1560 3A 01 24    L0214:  LD A,(2401H)
2668   1563 FE 21               CP 21H
2669   1565 28 08               JR Z,L0289
2670   1567 FE 13               CP 13H
2671   1569 38 09               JR C,L0290
2672   156B FE 17               CP 17H
2673   156D 30 05               JR NC,L0290
2674   156F 3E 00       L0289:  LD A,00H
2675   1571 CD 0E 04            CALL L0041
2676   1574 3A 53 2D    L0290:  LD A,(2D53H)
2677   1577 32 55 2D            LD (2D55H),A
2678   157A 3A B3 31            LD A,(31B3H)
2679   157D 32 B5 31            LD (31B5H),A
2680   1580 3A B4 31            LD A,(31B4H)
2681   1583 32 B6 31            LD (31B6H),A
2682   1586 C9                  RET
2683   1587 ED 5B 55 2A         LD DE,(2A55H)
2684   158B 21 0A 00            LD HL,000AH
2685   158E 01 01 00            LD BC,0001H
2686   1591 CD B2 15            CALL L0291
2687   1594 DA 9C 0B            JP C,L0209
2688   1597 ED 53 03 2A         LD (2A03H),DE
2689   159B ED 5B 5B 2A         LD DE,(2A5BH)
2690   159F 21 23 00            LD HL,0023H
2691   15A2 01 01 00            LD BC,0001H
2692   15A5 CD B2 15            CALL L0291
2693   15A8 DA A0 0B            JP C,L0292
2694   15AB ED 53 05 2A         LD (2A05H),DE
2695   15AF C3 24 0A            JP L0174
2696   15B2 37          L0291:  SCF
2697   15B3 3F                  CCF
2698   15B4 ED 52               SBC HL,DE
2699   15B6 CB 14               RL H
2700   15B8 38 06               JR C,L0293
2701   15BA 62                  LD H,D
2702   15BB 6B                  LD L,E
2703   15BC ED 42               SBC HL,BC
2704   15BE CB 14               RL H
2705   15C0 C9          L0293:  RET
2706   15C1 ED 5B 55 2A         LD DE,(2A55H)
2707   15C5 21 E8 03            LD HL,03E8H
2708   15C8 01 32 00            LD BC,0032H
2709   15CB CD B2 15            CALL L0291
2710   15CE DA 9C 0B            JP C,L0209
2711   15D1 ED 53 C7 2D         LD (2DC7H),DE
2712   15D5 C3 24 0A            JP L0174
2713   15D8 ED 5B 55 2A         LD DE,(2A55H)
2714   15DC 21 FF 00            LD HL,00FFH
2715   15DF 01 00 00            LD BC,0000H
2716   15E2 CD B2 15            CALL L0291
2717   15E5 DA 9C 0B            JP C,L0209
2718   15E8 ED 53 F1 2C         LD (2CF1H),DE
2719   15EC ED 5B 5B 2A         LD DE,(2A5BH)
2720   15F0 21 96 00            LD HL,0096H
2721   15F3 01 6A FF            LD BC,0FF6AH
2722   15F6 CD B2 15            CALL L0291
2723   15F9 DA A0 0B            JP C,L0292
2724   15FC ED 53 F3 2C         LD (2CF3H),DE
2725   1600 3A F0 2C            LD A,(2CF0H)
2726   1603 FE 01               CP 01H
2727   1605 28 0E               JR Z,L0294
2728   1607 CD 67 08            CALL L0128
2729   160A 3E 01               LD A,01H
2730   160C 32 F0 2C            LD (2CF0H),A
2731   160F 21 20 03            LD HL,0320H
2732   1612 22 78 2A            LD (2A78H),HL
2733   1615 C3 24 0A    L0294:  JP L0174
2734   1618 3A F0 2C            LD A,(2CF0H)
2735   161B A7                  AND A
2736   161C C4 22 16            CALL NZ,L0295
2737   161F C3 24 0A            JP L0174
2738   1622 21 00 00    L0295:  LD HL,0000H
2739   1625 22 F1 2C            LD (2CF1H),HL
2740   1628 22 F3 2C            LD (2CF3H),HL
2741   162B CD 81 09    L0296:  CALL L0099
2742   162E 2A 0B 2A            LD HL,(2A0BH)
2743   1631 ED 5B 0D 2A         LD DE,(2A0DH)
2744   1635 19                  ADD HL,DE
2745   1636 7C                  LD A,H
2746   1637 B5                  OR L
2747   1638 20 F1               JR NZ,L0296
2748   163A AF                  XOR A
2749   163B 32 F0 2C            LD (2CF0H),A
2750   163E CD 70 13            CALL L0259
2751   1641 C9                  RET
2752   1642 3A F0 2C    L0148:  LD A,(2CF0H)
2753   1645 A7                  AND A
2754   1646 C8                  RET Z
2755   1647 CD 22 16            CALL L0295
2756   164A C9                  RET
2757   164B 2A 55 2A            LD HL,(2A55H)
2758   164E ED 5B 5B 2A         LD DE,(2A5BH)
2759   1652 CD C3 18            CALL L0152
2760   1655 22 F7 2C            LD (2CF7H),HL
2761   1658 ED 53 FB 2C         LD (2CFBH),DE
2762   165C EB                  EX DE,HL
2763   165D ED 5B 5D 2A         LD DE,(2A5DH)
2764   1661 37                  SCF
2765   1662 3F                  CCF
2766   1663 ED 52               SBC HL,DE
2767   1665 CD C4 17            CALL L0080
2768   1668 22 F9 2C            LD (2CF9H),HL
2769   166B C3 24 0A            JP L0174
2770   166E C3 BE 08            JP L0297
2771   1671 AF          L0115:  XOR A
2772   1672 32 4B 32            LD (324BH),A
2773   1675 21 00 00            LD HL,0000H
2774   1678 ED 5B 70 2A         LD DE,(2A70H)
2775   167C 22 70 2A            LD (2A70H),HL
2776   167F 2A 0F 2A            LD HL,(2A0FH)
2777   1682 37                  SCF
2778   1683 3F                  CCF
2779   1684 ED 52               SBC HL,DE
2780   1686 22 0F 2A            LD (2A0FH),HL
2781   1689 EB                  EX DE,HL
2782   168A 01 00 00            LD BC,0000H
2783   168D CD D3 1A            CALL L0298
2784   1690 2A 11 2A            LD HL,(2A11H)
2785   1693 ED 5B 72 2A         LD DE,(2A72H)
2786   1697 37                  SCF
2787   1698 3F                  CCF
2788   1699 ED 52               SBC HL,DE
2789   169B 22 11 2A            LD (2A11H),HL
2790   169E EB                  EX DE,HL
2791   169F 21 00 00            LD HL,0000H
2792   16A2 22 72 2A            LD (2A72H),HL
2793   16A5 01 01 00            LD BC,0001H
2794   16A8 CD D3 1A            CALL L0298
2795   16AB 3A 06 2D    L0105:  LD A,(2D06H)
2796   16AE A7                  AND A
2797   16AF C2 2B 17            JP NZ,L0299
2798   16B2 3E 45               LD A,45H
2799   16B4 D3 F1               OUT (0F1H),A
2800   16B6 2A 25 2A            LD HL,(2A25H)
2801   16B9 7D                  LD A,L
2802   16BA CB 7F               BIT 7,A
2803   16BC 28 02               JR Z,L0300
2804   16BE ED 44               NEG
2805   16C0 FE 78       L0300:  CP 78H
2806   16C2 3E FF               LD A,0FFH
2807   16C4 30 01               JR NC,L0301
2808   16C6 AF                  XOR A
2809   16C7 32 7C 2A    L0301:  LD (2A7CH),A
2810   16CA CD 0C 1A            CALL L0302
2811   16CD D3 F1               OUT (0F1H),A
2812   16CF CB 3F               SRL A
2813   16D1 32 21 2A            LD (2A21H),A
2814   16D4 3A 34 32            LD A,(3234H)
2815   16D7 AD                  XOR L
2816   16D8 CB 7F               BIT 7,A
2817   16DA 28 05               JR Z,L0303
2818   16DC 32 00 A0            LD (0A000H),A
2819   16DF 18 03               JR L0304
2820   16E1 32 08 A0    L0303:  LD (0A008H),A
2821   16E4 3E 45       L0304:  LD A,45H
2822   16E6 D3 F0               OUT (0F0H),A
2823   16E8 2A 27 2A            LD HL,(2A27H)
2824   16EB 7D                  LD A,L
2825   16EC CB 7F               BIT 7,A
2826   16EE 28 02               JR Z,L0305
2827   16F0 ED 44               NEG
2828   16F2 FE 78       L0305:  CP 78H
2829   16F4 3E FF               LD A,0FFH
2830   16F6 30 01               JR NC,L0306
2831   16F8 AF                  XOR A
2832   16F9 32 7D 2A    L0306:  LD (2A7DH),A
2833   16FC CD 0C 1A            CALL L0302
2834   16FF D3 F0               OUT (0F0H),A
2835   1701 CB 3F               SRL A
2836   1703 32 23 2A            LD (2A23H),A
2837   1706 CB 7D               BIT 7,L
2838   1708 28 05               JR Z,L0307
2839   170A 32 0F A0            LD (0A00FH),A
2840   170D 18 03               JR L0308
2841   170F 32 07 A0    L0307:  LD (0A007H),A
2842   1712 3A 6C 2A    L0308:  LD A,(2A6CH)
2843   1715 A7                  AND A
2844   1716 20 08               JR NZ,L0309
2845   1718 32 52 32            LD (3252H),A
2846   171B 32 01 A0    L0310:  LD (0A001H),A
2847   171E 18 0B               JR L0299
2848   1720 21 52 32    L0309:  LD HL,3252H
2849   1723 34                  INC (HL)
2850   1724 CB 46               BIT 0,(HL)
2851   1726 28 F3               JR Z,L0310
2852   1728 32 09 A0            LD (0A009H),A
2853   172B FD E1       L0299:  POP IY
2854   172D DD E1               POP IX
2855   172F E1                  POP HL
2856   1730 D1                  POP DE
2857   1731 C1                  POP BC
2858   1732 F1                  POP AF
2859   1733 FB                  EI
2860   1734 ED 4D               RETI
2861   1736 EB          L0183:  EX DE,HL
2862   1737 ED 5B 5D 2A         LD DE,(2A5DH)
2863   173B CD D1 17            CALL L0158
2864   173E 37                  SCF
2865   173F 3F                  CCF
2866   1740 ED 52               SBC HL,DE
2867   1742 CD C4 17            CALL L0080
2868   1745 22 C7 31            LD (31C7H),HL
2869   1748 ED 5B 7E 2A         LD DE,(2A7EH)
2870   174C CB 7C               BIT 7,H
2871   174E C4 A1 17            CALL NZ,L0311
2872   1751 19                  ADD HL,DE
2873   1752 E5                  PUSH HL
2874   1753 CD 90 17            CALL L0180
2875   1756 ED 5B C5 31         LD DE,(31C5H)
2876   175A CD 9E 17            CALL L0160
2877   175D 37                  SCF
2878   175E 3F                  CCF
2879   175F ED 52               SBC HL,DE
2880   1761 E1                  POP HL
2881   1762 38 06               JR C,L0312
2882   1764 CB 7C               BIT 7,H
2883   1766 C4 A1 17            CALL NZ,L0311
2884   1769 EB                  EX DE,HL
2885   176A CD D2 10    L0312:  CALL L0118
2886   176D 38 05               JR C,L0313
2887   176F CD 49 19            CALL L0111
2888   1772 37                  SCF
2889   1773 3F                  CCF
2890   1774 C9          L0313:  RET
2891   1775 ED 5B C1 31 L0227:  LD DE,(31C1H)
2892   1779 CD 9E 17            CALL L0160
2893   177C ED 53 90 2A         LD (2A90H),DE
2894   1780 2A 76 2A            LD HL,(2A76H)
2895   1783 ED 5B 0D 2A         LD DE,(2A0DH)
2896   1787 CD 9E 17            CALL L0160
2897   178A ED 4B 05 2A         LD BC,(2A05H)
2898   178E 18 4E               JR L0286
2899   1790 CB 7C       L0180:  BIT 7,H
2900   1792 C8                  RET Z
2901   1793 D5          L0200:  PUSH DE
2902   1794 EB                  EX DE,HL
2903   1795 21 00 00            LD HL,0000H
2904   1798 37                  SCF
2905   1799 3F                  CCF
2906   179A ED 52               SBC HL,DE
2907   179C D1                  POP DE
2908   179D C9                  RET
2909   179E CB 7A       L0160:  BIT 7,D
2910   17A0 C8                  RET Z
2911   17A1 E5          L0311:  PUSH HL
2912   17A2 21 00 00            LD HL,0000H
2913   17A5 37                  SCF
2914   17A6 3F                  CCF
2915   17A7 ED 52               SBC HL,DE
2916   17A9 EB                  EX DE,HL
2917   17AA E1                  POP HL
2918   17AB C9                  RET
2919   17AC CB 78       L0330:  BIT 7,B
2920   17AE C8                  RET Z
2921   17AF E5          L0182:  PUSH HL
2922   17B0 21 00 00            LD HL,0000H
2923   17B3 37                  SCF
2924   17B4 3F                  CCF
2925   17B5 ED 42               SBC HL,BC
2926   17B7 44                  LD B,H
2927   17B8 4D                  LD C,L
2928   17B9 E1                  POP HL
2929   17BA C9                  RET
2930   17BB E5          L0150:  PUSH HL
2931   17BC 37                  SCF
2932   17BD 3F                  CCF
2933   17BE ED 52               SBC HL,DE
2934   17C0 E1                  POP HL
2935   17C1 D0                  RET NC
2936   17C2 EB                  EX DE,HL
2937   17C3 C9                  RET
2938   17C4 F5          L0080:  PUSH AF
2939   17C5 7C                  LD A,H
2940   17C6 E6 03               AND 03H
2941   17C8 CB 4F               BIT 1,A
2942   17CA 28 02               JR Z,L0314
2943   17CC F6 FC               OR 0FCH
2944   17CE 67          L0314:  LD H,A
2945   17CF F1                  POP AF
2946   17D0 C9                  RET
2947   17D1 F5          L0158:  PUSH AF
2948   17D2 7A                  LD A,D
2949   17D3 E6 03               AND 03H
2950   17D5 CB 4F               BIT 1,A
2951   17D7 28 02               JR Z,L0315
2952   17D9 F6 FC               OR 0FCH
2953   17DB 57          L0315:  LD D,A
2954   17DC F1                  POP AF
2955   17DD C9                  RET
2956   17DE ED 43 8E 2A L0286:  LD (2A8EH),BC
2957   17E2 D5                  PUSH DE
2958   17E3 EB                  EX DE,HL
2959   17E4 21 00 00            LD HL,0000H
2960   17E7 01 0A 00            LD BC,000AH
2961   17EA CD CC 1C            CALL L0162
2962   17ED ED 53 8A 2A         LD (2A8AH),DE
2963   17F1 D1                  POP DE
2964   17F2 21 00 00            LD HL,0000H
2965   17F5 01 0A 00            LD BC,000AH
2966   17F8 CD CC 1C            CALL L0162
2967   17FB ED 53 88 2A         LD (2A88H),DE
2968   17FF ED 4B 8E 2A         LD BC,(2A8EH)
2969   1803 CB 28               SRA B
2970   1805 CB 19               RR C
2971   1807 2A 8C 2A            LD HL,(2A8CH)
2972   180A ED 5B 88 2A         LD DE,(2A88H)
2973   180E CD A7 18            CALL L0316
2974   1811 DD E5               PUSH IX
2975   1813 2A 88 2A            LD HL,(2A88H)
2976   1816 CD 86 18            CALL L0317
2977   1819 DD E5               PUSH IX
2978   181B D1                  POP DE
2979   181C 2A 90 2A            LD HL,(2A90H)
2980   181F 37                  SCF
2981   1820 3F                  CCF
2982   1821 ED 52               SBC HL,DE
2983   1823 CB 7C               BIT 7,H
2984   1825 C1                  POP BC
2985   1826 28 58               JR Z,L0318
2986   1828 CB 78               BIT 7,B
2987   182A 20 0D               JR NZ,L0319
2988   182C 2A 8E 2A            LD HL,(2A8EH)
2989   182F 22 9C 2A            LD (2A9CH),HL
2990   1832 21 00 00            LD HL,0000H
2991   1835 3E 03               LD A,03H
2992   1837 18 49               JR L0320
2993   1839 ED 4B 8C 2A L0319:  LD BC,(2A8CH)
2994   183D ED 5B 8C 2A         LD DE,(2A8CH)
2995   1841 CD 78 1C            CALL L0086
2996   1844 DD E5               PUSH IX
2997   1846 ED 4B 88 2A         LD BC,(2A88H)
2998   184A ED 5B 88 2A         LD DE,(2A88H)
2999   184E CD 78 1C            CALL L0086
3000   1851 DD E5               PUSH IX
3001   1853 E1                  POP HL
3002   1854 D1                  POP DE
3003   1855 37                  SCF
3004   1856 3F                  CCF
3005   1857 ED 52               SBC HL,DE
3006   1859 EB                  EX DE,HL
3007   185A CB 7A               BIT 7,D
3008   185C 01 05 00            LD BC,0005H
3009   185F CD 78 1C            CALL L0086
3010   1862 DD E5               PUSH IX
3011   1864 D1                  POP DE
3012   1865 21 00 00            LD HL,0000H
3013   1868 ED 4B 90 2A         LD BC,(2A90H)
3014   186C CD CC 1C            CALL L0162
3015   186F 2A 3D 2D            LD HL,(2D3DH)
3016   1872 CD BB 17            CALL L0150
3017   1875 ED 53 9C 2A         LD (2A9CH),DE
3018   1879 21 00 00            LD HL,0000H
3019   187C 3E 04               LD A,04H
3020   187E 18 02               JR L0320
3021   1880 3E 02       L0318:  LD A,02H
3022   1882 32 67 2A    L0320:  LD (2A67H),A
3023   1885 C9                  RET
3024   1886 C5          L0317:  PUSH BC
3025   1887 DD E5               PUSH IX
3026   1889 C1                  POP BC
3027   188A CB 28               SRA B
3028   188C CB 19               RR C
3029   188E 09                  ADD HL,BC
3030   188F C1                  POP BC
3031   1890 E5                  PUSH HL
3032   1891 C5                  PUSH BC
3033   1892 01 0A 00            LD BC,000AH
3034   1895 CD 78 1C            CALL L0086
3035   1898 DD E5               PUSH IX
3036   189A D1                  POP DE
3037   189B C1                  POP BC
3038   189C 21 00 00            LD HL,0000H
3039   189F CD CC 1C            CALL L0162
3040   18A2 C1                  POP BC
3041   18A3 CD 78 1C            CALL L0086
3042   18A6 C9                  RET
3043   18A7 37          L0316:  SCF
3044   18A8 3F                  CCF
3045   18A9 ED 52               SBC HL,DE
3046   18AB E5                  PUSH HL
3047   18AC DD E1               POP IX
3048   18AE EB                  EX DE,HL
3049   18AF C5                  PUSH BC
3050   18B0 E1                  POP HL
3051   18B1 CB 7A               BIT 7,D
3052   18B3 28 06               JR Z,L0321
3053   18B5 CD A1 17            CALL L0311
3054   18B8 CD 93 17            CALL L0200
3055   18BB C9          L0321:  RET
3056   18BC 2A 45 2D            LD HL,(2D45H)
3057   18BF ED 5B 47 2D         LD DE,(2D47H)
3058   18C3 DD 2A 51 2A L0152:  LD IX,(2A51H)
3059   18C7 FD 2A 57 2A         LD IY,(2A57H)
3060   18CB E5          L0157:  PUSH HL
3061   18CC 01 00 00            LD BC,0000H
3062   18CF EB                  EX DE,HL
3063   18D0 FD E5               PUSH IY
3064   18D2 D1                  POP DE
3065   18D3 37                  SCF
3066   18D4 3F                  CCF
3067   18D5 ED 52               SBC HL,DE
3068   18D7 EC 46 19            CALL PE,L0322
3069   18DA EB                  EX DE,HL
3070   18DB CB 7A               BIT 7,D
3071   18DD 28 05               JR Z,L0323
3072   18DF CD A1 17            CALL L0311
3073   18E2 CB C0               SET 0,B
3074   18E4 E1          L0323:  POP HL
3075   18E5 D5                  PUSH DE
3076   18E6 DD E5               PUSH IX
3077   18E8 D1                  POP DE
3078   18E9 37                  SCF
3079   18EA 3F                  CCF
3080   18EB ED 52               SBC HL,DE
3081   18ED EC 46 19            CALL PE,L0322
3082   18F0 CB 7C               BIT 7,H
3083   18F2 28 07               JR Z,L0324
3084   18F4 CD 93 17            CALL L0200
3085   18F7 3E 03               LD A,03H
3086   18F9 A8                  XOR B
3087   18FA 47                  LD B,A
3088   18FB D1          L0324:  POP DE
3089   18FC C5                  PUSH BC
3090   18FD E5                  PUSH HL
3091   18FE D5                  PUSH DE
3092   18FF C1                  POP BC
3093   1900 CD 78 1C            CALL L0086
3094   1903 D1                  POP DE
3095   1904 E5                  PUSH HL
3096   1905 DD E5               PUSH IX
3097   1907 D5                  PUSH DE
3098   1908 C1                  POP BC
3099   1909 C5                  PUSH BC
3100   190A CD 78 1C            CALL L0086
3101   190D C1                  POP BC
3102   190E DD E5               PUSH IX
3103   1910 FD E1               POP IY
3104   1912 D1                  POP DE
3105   1913 FD 19               ADD IY,DE
3106   1915 D1                  POP DE
3107   1916 ED 5A               ADC HL,DE
3108   1918 C5                  PUSH BC
3109   1919 CD F3 1C            CALL L0325
3110   191C E1                  POP HL
3111   191D 11 00 00            LD DE,0000H
3112   1920 E5                  PUSH HL
3113   1921 37                  SCF
3114   1922 3F                  CCF
3115   1923 ED 42               SBC HL,BC
3116   1925 E1                  POP HL
3117   1926 C5                  PUSH BC
3118   1927 20 05               JR NZ,L0326
3119   1929 21 FF FF            LD HL,0FFFFH
3120   192C 18 04               JR L0327
3121   192E CD CC 1C    L0326:  CALL L0162
3122   1931 EB                  EX DE,HL
3123   1932 D1          L0327:  POP DE
3124   1933 C1                  POP BC
3125   1934 C5                  PUSH BC
3126   1935 D5                  PUSH DE
3127   1936 CD 9F 1D            CALL L0328
3128   1939 CD D1 17            CALL L0158
3129   193C E1                  POP HL
3130   193D C1                  POP BC
3131   193E CB 7C               BIT 7,H
3132   1940 C4 46 19            CALL NZ,L0322
3133   1943 CB 41               BIT 0,C
3134   1945 C9                  RET
3135   1946 CB C1       L0322:  SET 0,C
3136   1948 C9                  RET
3137   1949 22 0D 2A    L0111:  LD (2A0DH),HL
3138   194C ED 4B 11 2A         LD BC,(2A11H)
3139   1950 ED 5B 09 32         LD DE,(3209H)
3140   1954 CD A7 19            CALL L0229
3141   1957 22 11 2A            LD (2A11H),HL
3142   195A ED 53 09 32         LD (3209H),DE
3143   195E C9                  RET
3144   195F 22 0B 2A    L0114:  LD (2A0BH),HL
3145   1962 ED 4B 0F 2A         LD BC,(2A0FH)
3146   1966 ED 5B 0B 32         LD DE,(320BH)
3147   196A CD A7 19            CALL L0229
3148   196D 22 0F 2A            LD (2A0FH),HL
3149   1970 ED 53 0B 32         LD (320BH),DE
3150   1974 ED 43 D9 2D         LD (2DD9H),BC
3151   1978 C9                  RET
3152   1979 ED 4B 57 2D L0175:  LD BC,(2D57H)
3153   197D ED 5B 53 32         LD DE,(3253H)
3154   1981 CD A7 19            CALL L0229
3155   1984 22 57 2D            LD (2D57H),HL
3156   1987 ED 53 53 32         LD (3253H),DE
3157   198B C9                  RET
3158   198C CD 93 17    L0169:  CALL L0200
3159   198F ED 4B 78 2A         LD BC,(2A78H)
3160   1993 ED 5B 7A 2A         LD DE,(2A7AH)
3161   1997 CD A7 19            CALL L0229
3162   199A 22 78 2A            LD (2A78H),HL
3163   199D ED 53 7A 2A         LD (2A7AH),DE
3164   19A1 ED 5B 29 2A         LD DE,(2A29H)
3165   19A5 19                  ADD HL,DE
3166   19A6 C9                  RET
3167   19A7 3A 06 2D    L0229:  LD A,(2D06H)
3168   19AA A7                  AND A
3169   19AB 28 0A               JR Z,L0329
3170   19AD AF                  XOR A
3171   19AE 32 06 2D            LD (2D06H),A
3172   19B1 32 0D A0            LD (0A00DH),A
3173   19B4 CD 7F 08            CALL L0055
3174   19B7 C5          L0329:  PUSH BC
3175   19B8 D5                  PUSH DE
3176   19B9 EB                  EX DE,HL
3177   19BA 01 99 19            LD BC,1999H
3178   19BD CD 4E 1C            CALL L0092
3179   19C0 44                  LD B,H
3180   19C1 4D                  LD C,L
3181   19C2 E1                  POP HL
3182   19C3 19                  ADD HL,DE
3183   19C4 EB                  EX DE,HL
3184   19C5 E1                  POP HL
3185   19C6 ED 4A               ADC HL,BC
3186   19C8 C9                  RET
3187   19C9 CD D2 10    L0179:  CALL L0118
3188   19CC ED 4B 0B 2A         LD BC,(2A0BH)
3189   19D0 CD AC 17            CALL L0330
3190   19D3 11 A3 00            LD DE,00A3H
3191   19D6 CD 78 1C            CALL L0086
3192   19D9 DD E5               PUSH IX
3193   19DB D1                  POP DE
3194   19DC ED 4B C7 2D         LD BC,(2DC7H)
3195   19E0 CD CC 1C            CALL L0162
3196   19E3 3A C2 31            LD A,(31C2H)
3197   19E6 CB 7F               BIT 7,A
3198   19E8 C4 A1 17            CALL NZ,L0311
3199   19EB ED 53 BF 31         LD (31BFH),DE
3200   19EF CD 89 10            CALL L0220
3201   19F2 C9                  RET
3202   19F3 37          L0120:  SCF
3203   19F4 3F                  CCF
3204   19F5 ED 52               SBC HL,DE
3205   19F7 CB 7C               BIT 7,H
3206   19F9 C4 AF 17            CALL NZ,L0182
3207   19FC E5                  PUSH HL
3208   19FD 37                  SCF
3209   19FE 3F                  CCF
3210   19FF ED 42               SBC HL,BC
3211   1A01 7C                  LD A,H
3212   1A02 A8                  XOR B
3213   1A03 CB 7F               BIT 7,A
3214   1A05 E1                  POP HL
3215   1A06 20 02               JR NZ,L0331
3216   1A08 60                  LD H,B
3217   1A09 69                  LD L,C
3218   1A0A 19          L0331:  ADD HL,DE
3219   1A0B C9                  RET
3220   1A0C 7D          L0302:  LD A,L
3221   1A0D CB 7F               BIT 7,A
3222   1A0F 28 02               JR Z,L0332
3223   1A11 ED 44               NEG
3224   1A13 CB 27       L0332:  SLA A
3225   1A15 A7                  AND A
3226   1A16 20 01               JR NZ,L0333
3227   1A18 3C                  INC A
3228   1A19 C9          L0333:  RET
3229   1A1A 08                  EX AF,AF'
3230   1A1B D9                  EXX
3231   1A1C DB E1       L0334:  IN A,(0E1H)
3232   1A1E 5F                  LD E,A
3233   1A1F DB E2               IN A,(0E2H)
3234   1A21 47                  LD B,A
3235   1A22 E6 03               AND 03H
3236   1A24 57                  LD D,A
3237   1A25 DB E1               IN A,(0E1H)
3238   1A27 BB                  CP E
3239   1A28 20 F2               JR NZ,L0334
3240   1A2A C5                  PUSH BC
3241   1A2B CB 10               RL B
3242   1A2D 30 05               JR NC,L0335
3243   1A2F 21 00 02            LD HL,0200H
3244   1A32 19                  ADD HL,DE
3245   1A33 EB                  EX DE,HL
3246   1A34 2A 74 2A    L0335:  LD HL,(2A74H)
3247   1A37 19                  ADD HL,DE
3248   1A38 ED 5B 12 2D         LD DE,(2D12H)
3249   1A3C 19                  ADD HL,DE
3250   1A3D 7C                  LD A,H
3251   1A3E E6 03               AND 03H
3252   1A40 67                  LD H,A
3253   1A41 EB                  EX DE,HL
3254   1A42 D5                  PUSH DE
3255   1A43 21 C2 2A            LD HL,2AC2H
3256   1A46 CD 82 1D            CALL L0336
3257   1A49 01 00 00            LD BC,0000H
3258   1A4C CB 4A               BIT 1,D
3259   1A4E EB                  EX DE,HL
3260   1A4F 28 06               JR Z,L0337
3261   1A51 CD A1 17            CALL L0311
3262   1A54 30 01               JR NC,L0337
3263   1A56 0B                  DEC BC
3264   1A57 2A A8 2A    L0337:  LD HL,(2AA8H)
3265   1A5A 19                  ADD HL,DE
3266   1A5B 22 A8 2A            LD (2AA8H),HL
3267   1A5E 2A 51 2A            LD HL,(2A51H)
3268   1A61 ED 4A               ADC HL,BC
3269   1A63 22 51 2A            LD (2A51H),HL
3270   1A66 2A AA 2A            LD HL,(2AAAH)
3271   1A69 19                  ADD HL,DE
3272   1A6A 22 AA 2A            LD (2AAAH),HL
3273   1A6D 2A 53 2A            LD HL,(2A53H)
3274   1A70 ED 4A               ADC HL,BC
3275   1A72 22 53 2A            LD (2A53H),HL
3276   1A75 D1                  POP DE
3277   1A76 21 C2 2A            LD HL,2AC2H
3278   1A79 CD 70 1D            CALL L0338
3279   1A7C 01 00 00            LD BC,0000H
3280   1A7F 7A                  LD A,D
3281   1A80 EB                  EX DE,HL
3282   1A81 A7                  AND A
3283   1A82 28 0A               JR Z,L0339
3284   1A84 FE 03               CP 03H
3285   1A86 28 06               JR Z,L0339
3286   1A88 CD A1 17            CALL L0311
3287   1A8B 30 01               JR NC,L0339
3288   1A8D 0B                  DEC BC
3289   1A8E 2A AC 2A    L0339:  LD HL,(2AACH)
3290   1A91 19                  ADD HL,DE
3291   1A92 22 AC 2A            LD (2AACH),HL
3292   1A95 2A 57 2A            LD HL,(2A57H)
3293   1A98 ED 4A               ADC HL,BC
3294   1A9A 22 57 2A            LD (2A57H),HL
3295   1A9D 2A AE 2A            LD HL,(2AAEH)
3296   1AA0 19                  ADD HL,DE
3297   1AA1 22 AE 2A            LD (2AAEH),HL
3298   1AA4 2A 59 2A            LD HL,(2A59H)
3299   1AA7 ED 4A               ADC HL,BC
3300   1AA9 22 59 2A            LD (2A59H),HL
3301   1AAC C1                  POP BC
3302   1AAD ED 5B 68 2A         LD DE,(2A68H)
3303   1AB1 3A 34 32            LD A,(3234H)
3304   1AB4 A8                  XOR B
3305   1AB5 CB 7F               BIT 7,A
3306   1AB7 01 00 00            LD BC,0000H
3307   1ABA 28 04               JR Z,L0340
3308   1ABC 0B                  DEC BC
3309   1ABD CD A1 17            CALL L0311
3310   1AC0 2A A6 2A    L0340:  LD HL,(2AA6H)
3311   1AC3 19                  ADD HL,DE
3312   1AC4 22 A6 2A            LD (2AA6H),HL
3313   1AC7 2A 70 2A            LD HL,(2A70H)
3314   1ACA ED 4A               ADC HL,BC
3315   1ACC 22 70 2A            LD (2A70H),HL
3316   1ACF D9                  EXX
3317   1AD0 08                  EX AF,AF'
3318   1AD1 ED 45               RETN
3319   1AD3 CB 21       L0298:  SLA C
3320   1AD5 CB 10               RL B
3321   1AD7 DD 21 29 2A         LD IX,2A29H
3322   1ADB DD 09               ADD IX,BC
3323   1ADD DD 73 00            LD (IX+00H),E
3324   1AE0 DD 72 01            LD (IX+01H),D
3325   1AE3 DD 21 4D 2A         LD IX,2A4DH
3326   1AE7 DD 09               ADD IX,BC
3327   1AE9 C5                  PUSH BC
3328   1AEA DD 4E 00            LD C,(IX+00H)
3329   1AED DD 46 01            LD B,(IX+01H)
3330   1AF0 CD 2F 1C            CALL L0341
3331   1AF3 ED 53 59 32         LD (3259H),DE
3332   1AF7 C1                  POP BC
3333   1AF8 DD 21 3D 2A         LD IX,2A3DH
3334   1AFC DD 09               ADD IX,BC
3335   1AFE DD 73 00            LD (IX+00H),E
3336   1B01 DD 72 01            LD (IX+01H),D
3337   1B04 DD 21 00 00         LD IX,0000H
3338   1B08 DD 22 5B 32         LD (325BH),IX
3339   1B0C DD 22 5D 32         LD (325DH),IX
3340   1B10 DD 21 41 2A         LD IX,2A41H
3341   1B14 DD 09               ADD IX,BC
3342   1B16 C5                  PUSH BC
3343   1B17 DD 4E 00            LD C,(IX+00H)
3344   1B1A DD 46 01            LD B,(IX+01H)
3345   1B1D CD 4E 1C            CALL L0092
3346   1B20 C1                  POP BC
3347   1B21 DD 21 2D 2A         LD IX,2A2DH
3348   1B25 DD 09               ADD IX,BC
3349   1B27 DD 75 00            LD (IX+00H),L
3350   1B2A DD 74 01            LD (IX+01H),H
3351   1B2D DD 21 5B 32         LD IX,325BH
3352   1B31 CD 02 1C            CALL L0342
3353   1B34 2A 59 32            LD HL,(3259H)
3354   1B37 DD 21 55 32         LD IX,3255H
3355   1B3B DD 09               ADD IX,BC
3356   1B3D DD 5E 00            LD E,(IX+00H)
3357   1B40 DD 56 01            LD D,(IX+01H)
3358   1B43 DD 75 00            LD (IX+00H),L
3359   1B46 DD 74 01            LD (IX+01H),H
3360   1B49 37                  SCF
3361   1B4A 3F                  CCF
3362   1B4B ED 52               SBC HL,DE
3363   1B4D EB                  EX DE,HL
3364   1B4E DD 21 49 2A         LD IX,2A49H
3365   1B52 DD 09               ADD IX,BC
3366   1B54 C5                  PUSH BC
3367   1B55 DD 4E 00            LD C,(IX+00H)
3368   1B58 DD 46 01            LD B,(IX+01H)
3369   1B5B CD 2F 1C            CALL L0341
3370   1B5E 6A                  LD L,D
3371   1B5F C1                  POP BC
3372   1B60 DD 21 4C 32         LD IX,324CH
3373   1B64 DD 09               ADD IX,BC
3374   1B66 DD 5E 00            LD E,(IX+00H)
3375   1B69 DD 56 01            LD D,(IX+01H)
3376   1B6C 19                  ADD HL,DE
3377   1B6D CB 2C               SRA H
3378   1B6F CB 1D               RR L
3379   1B71 DD 75 00            LD (IX+00H),L
3380   1B74 DD 74 01            LD (IX+01H),H
3381   1B77 DD 21 39 2A         LD IX,2A39H
3382   1B7B DD 09               ADD IX,BC
3383   1B7D DD 75 00            LD (IX+00H),L
3384   1B80 DD 74 01            LD (IX+01H),H
3385   1B83 DD 21 5B 32         LD IX,325BH
3386   1B87 CD 02 1C            CALL L0342
3387   1B8A DD 21 0B 2A         LD IX,2A0BH
3388   1B8E DD 09               ADD IX,BC
3389   1B90 DD 5E 00            LD E,(IX+00H)
3390   1B93 DD 56 01            LD D,(IX+01H)
3391   1B96 DD 21 45 2A         LD IX,2A45H
3392   1B9A DD 09               ADD IX,BC
3393   1B9C C5                  PUSH BC
3394   1B9D DD 4E 00            LD C,(IX+00H)
3395   1BA0 DD 46 01            LD B,(IX+01H)
3396   1BA3 CD 4E 1C            CALL L0092
3397   1BA6 65                  LD H,L
3398   1BA7 6A                  LD L,D
3399   1BA8 C1                  POP BC
3400   1BA9 DD 21 31 2A         LD IX,2A31H
3401   1BAD DD 09               ADD IX,BC
3402   1BAF DD 09               ADD IX,BC
3403   1BB1 DD 75 00            LD (IX+00H),L
3404   1BB4 DD 74 01            LD (IX+01H),H
3405   1BB7 DD 21 5B 32         LD IX,325BH
3406   1BBB CD 02 1C            CALL L0342
3407   1BBE ED 5B 5B 32         LD DE,(325BH)
3408   1BC2 CD 32 1C            CALL L0343
3409   1BC5 EB                  EX DE,HL
3410   1BC6 DD 21 2D 1C         LD IX,1C2DH
3411   1BCA DD 5E 00            LD E,(IX+00H)
3412   1BCD DD 56 01            LD D,(IX+01H)
3413   1BD0 E5                  PUSH HL
3414   1BD1 37                  SCF
3415   1BD2 3F                  CCF
3416   1BD3 ED 52               SBC HL,DE
3417   1BD5 CB 7C               BIT 7,H
3418   1BD7 E1                  POP HL
3419   1BD8 3E FF               LD A,0FFH
3420   1BDA 20 18               JR NZ,L0344
3421   1BDC DD 21 2B 1C         LD IX,1C2BH
3422   1BE0 DD 5E 00            LD E,(IX+00H)
3423   1BE3 DD 56 01            LD D,(IX+01H)
3424   1BE6 E5                  PUSH HL
3425   1BE7 37                  SCF
3426   1BE8 3F                  CCF
3427   1BE9 ED 52               SBC HL,DE
3428   1BEB CB 7C               BIT 7,H
3429   1BED E1                  POP HL
3430   1BEE 3E 00               LD A,00H
3431   1BF0 20 03               JR NZ,L0345
3432   1BF2 3E 01               LD A,01H
3433   1BF4 EB          L0344:  EX DE,HL
3434   1BF5 DD 21 25 2A L0345:  LD IX,2A25H
3435   1BF9 DD 09               ADD IX,BC
3436   1BFB DD 75 00            LD (IX+00H),L
3437   1BFE DD 74 01            LD (IX+01H),H
3438   1C01 C9                  RET
3439   1C02 C5          L0342:  PUSH BC
3440   1C03 DD 4E 00            LD C,(IX+00H)
3441   1C06 DD 46 01            LD B,(IX+01H)
3442   1C09 11 00 00            LD DE,0000H
3443   1C0C CB 7C               BIT 7,H
3444   1C0E 28 03               JR Z,L0346
3445   1C10 11 FF FF            LD DE,0FFFFH
3446   1C13 09          L0346:  ADD HL,BC
3447   1C14 DD 75 00            LD (IX+00H),L
3448   1C17 DD 74 01            LD (IX+01H),H
3449   1C1A DD 4E 02            LD C,(IX+02H)
3450   1C1D DD 46 03            LD B,(IX+03H)
3451   1C20 EB                  EX DE,HL
3452   1C21 ED 4A               ADC HL,BC
3453   1C23 DD 75 02            LD (IX+02H),L
3454   1C26 DD 74 03            LD (IX+03H),H
3455   1C29 C1                  POP BC
3456   1C2A C9                  RET
3457   1C2B 7F                  LD A,A
3458   1C2C 00                  NOP
3459   1C2D 81                  ADD A,C
3460   1C2E FF                  RST 38H
3461   1C2F CD 4E 1C    L0341:  CALL L0092
3462   1C32 CB 7A       L0343:  BIT 7,D
3463   1C34 20 07               JR NZ,L0347
3464   1C36 7D                  LD A,L
3465   1C37 B4                  OR H
3466   1C38 28 13               JR Z,L0348
3467   1C3A C3 43 1C            JP L0349
3468   1C3D 7D          L0347:  LD A,L
3469   1C3E A4                  AND H
3470   1C3F FE FF               CP 0FFH
3471   1C41 28 0A               JR Z,L0348
3472   1C43 11 FF 7F    L0349:  LD DE,7FFFH
3473   1C46 CB 7C               BIT 7,H
3474   1C48 28 03               JR Z,L0348
3475   1C4A 11 01 80            LD DE,8001H
3476   1C4D C9          L0348:  RET
3477   1C4E AF          L0092:  XOR A
3478   1C4F CB 78               BIT 7,B
3479   1C51 28 05               JR Z,L0350
3480   1C53 CD AF 17            CALL L0182
3481   1C56 EE 80               XOR 80H
3482   1C58 CB 7A       L0350:  BIT 7,D
3483   1C5A 28 05               JR Z,L0351
3484   1C5C CD A1 17            CALL L0311
3485   1C5F EE 80               XOR 80H
3486   1C61 F5          L0351:  PUSH AF
3487   1C62 CD 78 1C            CALL L0086
3488   1C65 F1                  POP AF
3489   1C66 DD E5               PUSH IX
3490   1C68 D1                  POP DE
3491   1C69 CB 7F               BIT 7,A
3492   1C6B 28 0A               JR Z,L0352
3493   1C6D CD A1 17            CALL L0311
3494   1C70 E5                  PUSH HL
3495   1C71 C1                  POP BC
3496   1C72 21 00 00            LD HL,0000H
3497   1C75 ED 42               SBC HL,BC
3498   1C77 C9          L0352:  RET
3499   1C78 FD E5       L0086:  PUSH IY
3500   1C7A D5                  PUSH DE
3501   1C7B FD E1               POP IY
3502   1C7D 11 00 00            LD DE,0000H
3503   1C80 79                  LD A,C
3504   1C81 48                  LD C,B
3505   1C82 06 10               LD B,10H
3506   1C84 21 00 00            LD HL,0000H
3507   1C87 DD 21 00 00         LD IX,0000H
3508   1C8B CB 39       L0354:  SRL C
3509   1C8D 1F                  RRA
3510   1C8E 30 09               JR NC,L0353
3511   1C90 C5                  PUSH BC
3512   1C91 FD E5               PUSH IY
3513   1C93 C1                  POP BC
3514   1C94 DD 09               ADD IX,BC
3515   1C96 C1                  POP BC
3516   1C97 ED 5A               ADC HL,DE
3517   1C99 FD 29       L0353:  ADD IY,IY
3518   1C9B EB                  EX DE,HL
3519   1C9C ED 6A               ADC HL,HL
3520   1C9E EB                  EX DE,HL
3521   1C9F 10 EA               DJNZ L0354
3522   1CA1 FD E1               POP IY
3523   1CA3 C9                  RET
3524   1CA4 AF          L0250:  XOR A
3525   1CA5 C5                  PUSH BC
3526   1CA6 AC                  XOR H
3527   1CA7 CB 7C               BIT 7,H
3528   1CA9 28 0F               JR Z,L0355
3529   1CAB E5                  PUSH HL
3530   1CAC 21 00 00            LD HL,0000H
3531   1CAF 37                  SCF
3532   1CB0 3F                  CCF
3533   1CB1 ED 52               SBC HL,DE
3534   1CB3 EB                  EX DE,HL
3535   1CB4 21 00 00            LD HL,0000H
3536   1CB7 C1                  POP BC
3537   1CB8 ED 42               SBC HL,BC
3538   1CBA C1          L0355:  POP BC
3539   1CBB A8                  XOR B
3540   1CBC CB 78               BIT 7,B
3541   1CBE C4 AF 17            CALL NZ,L0182
3542   1CC1 F5                  PUSH AF
3543   1CC2 CD CC 1C            CALL L0162
3544   1CC5 F1                  POP AF
3545   1CC6 CB 7F               BIT 7,A
3546   1CC8 C4 A1 17            CALL NZ,L0311
3547   1CCB C9                  RET
3548   1CCC 3E 11       L0162:  LD A,11H
3549   1CCE CB 78               BIT 7,B
3550   1CD0 28 0C               JR Z,L0356
3551   1CD2 CB 38               SRL B
3552   1CD4 CB 19               RR C
3553   1CD6 CB 3C               SRL H
3554   1CD8 CB 1D               RR L
3555   1CDA CB 1A               RR D
3556   1CDC CB 1B               RR E
3557   1CDE 37          L0356:  SCF
3558   1CDF 3F                  CCF
3559   1CE0 ED 42               SBC HL,BC
3560   1CE2 13                  INC DE
3561   1CE3 30 02               JR NC,L0357
3562   1CE5 09                  ADD HL,BC
3563   1CE6 1B                  DEC DE
3564   1CE7 3D          L0357:  DEC A
3565   1CE8 28 08               JR Z,L0358
3566   1CEA EB                  EX DE,HL
3567   1CEB 29                  ADD HL,HL
3568   1CEC EB                  EX DE,HL
3569   1CED ED 6A               ADC HL,HL
3570   1CEF C3 DE 1C            JP L0356
3571   1CF2 C9          L0358:  RET
3572   1CF3 DD E5       L0325:  PUSH IX
3573   1CF5 D5                  PUSH DE
3574   1CF6 01 00 80            LD BC,8000H
3575   1CF9 E5                  PUSH HL
3576   1CFA FD E5               PUSH IY
3577   1CFC FD 29       L0360:  ADD IY,IY
3578   1CFE ED 6A               ADC HL,HL
3579   1D00 38 0D               JR C,L0359
3580   1D02 FD 29               ADD IY,IY
3581   1D04 ED 6A               ADC HL,HL
3582   1D06 38 07               JR C,L0359
3583   1D08 CB 38               SRL B
3584   1D0A CB 19               RR C
3585   1D0C 30 EE               JR NC,L0360
3586   1D0E 3F                  CCF
3587   1D0F FD E1       L0359:  POP IY
3588   1D11 E1                  POP HL
3589   1D12 D2 51 1D            JP NC,L0361
3590   1D15 DD 21 00 00         LD IX,0000H
3591   1D19 E5          L0363:  PUSH HL
3592   1D1A FD E5               PUSH IY
3593   1D1C DD 09               ADD IX,BC
3594   1D1E DD E5               PUSH IX
3595   1D20 C5                  PUSH BC
3596   1D21 DD E5               PUSH IX
3597   1D23 DD E5               PUSH IX
3598   1D25 C1                  POP BC
3599   1D26 D1                  POP DE
3600   1D27 E5                  PUSH HL
3601   1D28 FD E5               PUSH IY
3602   1D2A CD 78 1C            CALL L0086
3603   1D2D DD E5               PUSH IX
3604   1D2F D1                  POP DE
3605   1D30 E5                  PUSH HL
3606   1D31 C1                  POP BC
3607   1D32 E1                  POP HL
3608   1D33 37                  SCF
3609   1D34 3F                  CCF
3610   1D35 ED 52               SBC HL,DE
3611   1D37 E1                  POP HL
3612   1D38 ED 42               SBC HL,BC
3613   1D3A C1                  POP BC
3614   1D3B E1                  POP HL
3615   1D3C 30 03               JR NC,L0362
3616   1D3E 3F                  CCF
3617   1D3F ED 42               SBC HL,BC
3618   1D41 E5          L0362:  PUSH HL
3619   1D42 DD E1               POP IX
3620   1D44 FD E1               POP IY
3621   1D46 E1                  POP HL
3622   1D47 CB 38               SRL B
3623   1D49 CB 19               RR C
3624   1D4B D2 19 1D            JP NC,L0363
3625   1D4E DD E5               PUSH IX
3626   1D50 C1                  POP BC
3627   1D51 D1          L0361:  POP DE
3628   1D52 DD E1               POP IX
3629   1D54 C9                  RET
3630   1D55 D5          L0163:  PUSH DE
3631   1D56 CD 6D 1D            CALL L0197
3632   1D59 E5                  PUSH HL
3633   1D5A CD 7F 1D            CALL L0199
3634   1D5D 11 00 00            LD DE,0000H
3635   1D60 CB 3C               SRL H
3636   1D62 CB 1D               RR L
3637   1D64 CB 1A               RR D
3638   1D66 C1                  POP BC
3639   1D67 CD CC 1C            CALL L0162
3640   1D6A EB                  EX DE,HL
3641   1D6B D1                  POP DE
3642   1D6C C9                  RET
3643   1D6D 21 FB 1D    L0197:  LD HL,1DFBH
3644   1D70 D5          L0338:  PUSH DE
3645   1D71 E5                  PUSH HL
3646   1D72 21 00 01            LD HL,0100H
3647   1D75 19                  ADD HL,DE
3648   1D76 CB 94               RES 2,H
3649   1D78 EB                  EX DE,HL
3650   1D79 E1                  POP HL
3651   1D7A CD 82 1D            CALL L0336
3652   1D7D D1                  POP DE
3653   1D7E C9                  RET
3654   1D7F 21 FB 1D    L0199:  LD HL,1DFBH
3655   1D82 D5          L0336:  PUSH DE
3656   1D83 CB 42               BIT 0,D
3657   1D85 16 00               LD D,00H
3658   1D87 28 0E               JR Z,L0364
3659   1D89 D5                  PUSH DE
3660   1D8A 11 00 02            LD DE,0200H
3661   1D8D 19                  ADD HL,DE
3662   1D8E D1                  POP DE
3663   1D8F 37                  SCF
3664   1D90 3F                  CCF
3665   1D91 ED 52               SBC HL,DE
3666   1D93 ED 52               SBC HL,DE
3667   1D95 18 02               JR L0365
3668   1D97 19          L0364:  ADD HL,DE
3669   1D98 19                  ADD HL,DE
3670   1D99 5E          L0365:  LD E,(HL)
3671   1D9A 23                  INC HL
3672   1D9B 56                  LD D,(HL)
3673   1D9C EB                  EX DE,HL
3674   1D9D D1                  POP DE
3675   1D9E C9                  RET
3676   1D9F C5          L0328:  PUSH BC
3677   1DA0 06 80               LD B,80H
3678   1DA2 11 00 00            LD DE,0000H
3679   1DA5 78          L0368:  LD A,B
3680   1DA6 B3                  OR E
3681   1DA7 5F                  LD E,A
3682   1DA8 E5                  PUSH HL
3683   1DA9 CD E6 1D            CALL L0366
3684   1DAC E1                  POP HL
3685   1DAD 30 03               JR NC,L0367
3686   1DAF 78                  LD A,B
3687   1DB0 AB                  XOR E
3688   1DB1 5F                  LD E,A
3689   1DB2 CB 38       L0367:  SRL B
3690   1DB4 30 EF               JR NC,L0368
3691   1DB6 E5                  PUSH HL
3692   1DB7 CD E6 1D            CALL L0366
3693   1DBA 44                  LD B,H
3694   1DBB 4D                  LD C,L
3695   1DBC E1                  POP HL
3696   1DBD 13                  INC DE
3697   1DBE CB 42               BIT 0,D
3698   1DC0 20 08               JR NZ,L0369
3699   1DC2 CD E6 1D            CALL L0366
3700   1DC5 09                  ADD HL,BC
3701   1DC6 CB 7C               BIT 7,H
3702   1DC8 28 01               JR Z,L0370
3703   1DCA 1B          L0369:  DEC DE
3704   1DCB C1          L0370:  POP BC
3705   1DCC CB 40               BIT 0,B
3706   1DCE 28 08               JR Z,L0371
3707   1DD0 21 00 02            LD HL,0200H
3708   1DD3 37                  SCF
3709   1DD4 3F                  CCF
3710   1DD5 ED 52               SBC HL,DE
3711   1DD7 EB                  EX DE,HL
3712   1DD8 CB 48       L0371:  BIT 1,B
3713   1DDA 28 07               JR Z,L0372
3714   1DDC 21 00 02            LD HL,0200H
3715   1DDF 37                  SCF
3716   1DE0 3F                  CCF
3717   1DE1 19                  ADD HL,DE
3718   1DE2 EB                  EX DE,HL
3719   1DE3 CB 92       L0372:  RES 2,D
3720   1DE5 C9          L0376:  RET
3721   1DE6 DD 21 FB 1D L0366:  LD IX,1DFBH
3722   1DEA DD 19               ADD IX,DE
3723   1DEC DD 19               ADD IX,DE
3724   1DEE D5                  PUSH DE
3725   1DEF DD 5E 00            LD E,(IX+00H)
3726   1DF2 DD 56 01            LD D,(IX+01H)
3727   1DF5 37                  SCF
3728   1DF6 3F                  CCF
3729   1DF7 ED 52               SBC HL,DE
3730   1DF9 D1                  POP DE
3731   1DFA C9                  RET
3732   1DFB 00                  NOP
3733   1DFC 00                  NOP
3734   1DFD 92                  SUB D
3735   1DFE 01 24 03            LD BC,0324H
3736   1E01 B6                  OR (HL)
3737   1E02 04                  INC B
3738   1E03 48                  LD C,B
3739   1E04 06 DA               LD B,0DAH
3740   1E06 07                  RLCA
3741   1E07 6C                  LD L,H
3742   1E08 09                  ADD HL,BC
3743   1E09 FE 0A               CP 0AH
3744   1E0B 8F                  ADC A,A
3745   1E0C 0C                  INC C
3746   1E0D 21 0E B2            LD HL,0B20EH
3747   1E10 0F                  RRCA
3748   1E11 44                  LD B,H
3749   1E12 11 D5 12            LD DE,12D5H
3750   1E15 66                  LD H,(HL)
3751   1E16 14                  INC D
3752   1E17 F6 15               OR 15H
3753   1E19 87                  ADD A,A
3754   1E1A 17                  RLA
3755   1E1B 17                  RLA
3756   1E1C 19                  ADD HL,DE
3757   1E1D A7                  AND A
3758   1E1E 1A                  LD A,(DE)
3759   1E1F 37                  SCF
3760   1E20 1C                  INC E
3761   1E21 C7                  RST 00H
3762   1E22 1D                  DEC E
3763   1E23 56                  LD D,(HL)
3764   1E24 1F                  RRA
3765   1E25 E5                  PUSH HL
3766   1E26 20 73               JR NZ,L0373
3767   1E28 22 02 24            LD (2402H),HL
3768   1E2B 90                  SUB B
3769   1E2C 25                  DEC H
3770   1E2D 1D          L0375:  DEC E
3771   1E2E 27                  DAA
3772   1E2F AA                  XOR D
3773   1E30 28 37               JR Z,L0374
3774   1E32 2A C4 2B            LD HL,(2BC4H)
3775   1E35 50                  LD D,B
3776   1E36 2D                  DEC L
3777   1E37 DB 2E               IN A,(2EH)
3778   1E39 66                  LD H,(HL)
3779   1E3A 30 F1               JR NC,L0375
3780   1E3C 31 7B 33            LD SP,337BH
3781   1E3F 05                  DEC B
3782   1E40 35                  DEC (HL)
3783   1E41 8E                  ADC A,(HL)
3784   1E42 36 17               LD (HL),17H
3785   1E44 38 9F               JR C,L0376
3786   1E46 39                  ADD HL,SP
3787   1E47 26 3B               LD H,3BH
3788   1E49 AD                  XOR L
3789   1E4A 3C                  INC A
3790   1E4B 33                  INC SP
3791   1E4C 3E B9               LD A,0B9H
3792   1E4E 3F                  CCF
3793   1E4F 3E 41               LD A,41H
3794   1E51 C3 42 47            JP L0377
3795   1E54 44                  LD B,H
3796   1E55 CA 45 4D            JP Z,L0378
3797   1E58 47                  LD B,A
3798   1E59 CE 48               ADC A,48H
3799   1E5B 50                  LD D,B
3800   1E5C 4A                  LD C,D
3801   1E5D D0                  RET NC
3802   1E5E 4B                  LD C,E
3803   1E5F 50                  LD D,B
3804   1E60 4D                  LD C,L
3805   1E61 CF                  RST 08H
3806   1E62 4E                  LD C,(HL)
3807   1E63 4D                  LD C,L
3808   1E64 50                  LD D,B
3809   1E65 CA 51 47            JP Z,L0379
3810   1E68 53                  LD D,E
3811   1E69 C3 54 3E    L0374:  JP L0380
3812   1E6C 56                  LD D,(HL)
3813   1E6D B8                  CP B
3814   1E6E 57                  LD D,A
3815   1E6F 31 59 AA            LD SP,0AA59H
3816   1E72 5A                  LD E,D
3817   1E73 22 5C 98            LD (985CH),HL
3818   1E76 5D                  LD E,L
3819   1E77 0E 5F               LD C,5FH
3820   1E79 83                  ADD A,E
3821   1E7A 60                  LD H,B
3822   1E7B F7                  RST 30H
3823   1E7C 61                  LD H,C
3824   1E7D 6A                  LD L,D
3825   1E7E 63                  LD H,E
3826   1E7F DC 64 4D            CALL C,L0381
3827   1E82 66                  LD H,(HL)
3828   1E83 BD                  CP L
3829   1E84 67                  LD H,A
3830   1E85 2D                  DEC L
3831   1E86 69                  LD L,C
3832   1E87 9B                  SBC A,E
3833   1E88 6A                  LD L,D
3834   1E89 08                  EX AF,AF'
3835   1E8A 6C                  LD L,H
3836   1E8B 74                  LD (HL),H
3837   1E8C 6D                  LD L,L
3838   1E8D DF                  RST 18H
3839   1E8E 6E                  LD L,(HL)
3840   1E8F 49                  LD C,C
3841   1E90 70                  LD (HL),B
3842   1E91 B1                  OR C
3843   1E92 71                  LD (HL),C
3844   1E93 19                  ADD HL,DE
3845   1E94 73                  LD (HL),E
3846   1E95 80                  ADD A,B
3847   1E96 74                  LD (HL),H
3848   1E97 E5                  PUSH HL
3849   1E98 75                  LD (HL),L
3850   1E99 4A                  LD C,D
3851   1E9A 77                  LD (HL),A
3852   1E9B AD          L0373:  XOR L
3853   1E9C 78                  LD A,B
3854   1E9D 0F                  RRCA
3855   1E9E 7A                  LD A,D
3856   1E9F 70                  LD (HL),B
3857   1EA0 7B                  LD A,E
3858   1EA1 D0                  RET NC
3859   1EA2 7C                  LD A,H
3860   1EA3 2E 7E               LD L,7EH
3861   1EA5 8B                  ADC A,E
3862   1EA6 7F                  LD A,A
3863   1EA7 E7                  RST 20H
3864   1EA8 80                  ADD A,B
3865   1EA9 42                  LD B,D
3866   1EAA 82                  ADD A,D
3867   1EAB 9C                  SBC A,H
3868   1EAC 83                  ADD A,E
3869   1EAD F4 84 4B            CALL P,L0382
3870   1EB0 86                  ADD A,(HL)
3871   1EB1 A1                  AND C
3872   1EB2 87                  ADD A,A
3873   1EB3 F5                  PUSH AF
3874   1EB4 88                  ADC A,B
3875   1EB5 48          L0386:  LD C,B
3876   1EB6 8A                  ADC A,D
3877   1EB7 9A                  SBC A,D
3878   1EB8 8B                  ADC A,E
3879   1EB9 EA 8C 39            JP PE,L0383
3880   1EBC 8E                  ADC A,(HL)
3881   1EBD 87                  ADD A,A
3882   1EBE 8F                  ADC A,A
3883   1EBF D3 90               OUT (90H),A
3884   1EC1 1E 92               LD E,92H
3885   1EC3 68                  LD L,B
3886   1EC4 93                  SUB E
3887   1EC5 B0                  OR B
3888   1EC6 94                  SUB H
3889   1EC7 F6 95               OR 95H
3890   1EC9 3C                  INC A
3891   1ECA 97                  SUB A
3892   1ECB 7F                  LD A,A
3893   1ECC 98                  SBC A,B
3894   1ECD C2 99 02            JP NZ,L0384
3895   1ED0 9B                  SBC A,E
3896   1ED1 42                  LD B,D
3897   1ED2 9C                  SBC A,H
3898   1ED3 7F                  LD A,A
3899   1ED4 9D                  SBC A,L
3900   1ED5 BC                  CP H
3901   1ED6 9E                  SBC A,(HL)
3902   1ED7 F6 9F               OR 9FH
3903   1ED9 2F                  CPL
3904   1EDA A1                  AND C
3905   1EDB 67                  LD H,A
3906   1EDC A2                  AND D
3907   1EDD 9D                  SBC A,L
3908   1EDE A3                  AND E
3909   1EDF D2 A4 05            JP NC,L0385
3910   1EE2 A6                  AND (HL)
3911   1EE3 36 A7               LD (HL),0A7H
3912   1EE5 66                  LD H,(HL)
3913   1EE6 A8                  XOR B
3914   1EE7 94                  SUB H
3915   1EE8 A9                  XOR C
3916   1EE9 C0                  RET NZ
3917   1EEA AA                  XOR D
3918   1EEB EB                  EX DE,HL
3919   1EEC AB                  XOR E
3920   1EED 14                  INC D
3921   1EEE AD                  XOR L
3922   1EEF 3B                  DEC SP
3923   1EF0 AE                  XOR (HL)
3924   1EF1 61                  LD H,C
3925   1EF2 AF                  XOR A
3926   1EF3 85                  ADD A,L
3927   1EF4 B0                  OR B
3928   1EF5 A8                  XOR B
3929   1EF6 B1                  OR C
3930   1EF7 C8                  RET Z
3931   1EF8 B2                  OR D
3932   1EF9 E7                  RST 20H
3933   1EFA B3                  OR E
3934   1EFB 04                  INC B
3935   1EFC B5                  OR L
3936   1EFD 20 B6               JR NZ,L0386
3937   1EFF 3A B7 52            LD A,(52B7H)
3938   1F02 B8                  CP B
3939   1F03 68                  LD L,B
3940   1F04 B9                  CP C
3941   1F05 7C                  LD A,H
3942   1F06 BA                  CP D
3943   1F07 8F                  ADC A,A
3944   1F08 BB                  CP E
3945   1F09 A0                  AND B
3946   1F0A BC                  CP H
3947   1F0B AE                  XOR (HL)
3948   1F0C BD                  CP L
3949   1F0D BC                  CP H
3950   1F0E BE                  CP (HL)
3951   1F0F C7                  RST 00H
3952   1F10 BF                  CP A
3953   1F11 D0                  RET NC
3954   1F12 C0                  RET NZ
3955   1F13 D8                  RET C
3956   1F14 C1                  POP BC
3957   1F15 DE C2               SBC A,0C2H
3958   1F17 E2 C3 E3            JP PO,L0387
3959   1F1A C4 E4 C5            CALL NZ,L0388
3960   1F1D E2 C6 DE            JP PO,L0389
3961   1F20 C7                  RST 00H
3962   1F21 D8                  RET C
3963   1F22 C8                  RET Z
3964   1F23 D1                  POP DE
3965   1F24 C9                  RET
3966   1F25 C7                  RST 00H
3967   1F26 CA BB CB            JP Z,L0390
3968   1F29 AE                  XOR (HL)
3969   1F2A CC 9F CD            CALL Z,L0391
3970   1F2D 8D                  ADC A,L
3971   1F2E CE 7A               ADC A,7AH
3972   1F30 CF                  RST 08H
3973   1F31 64                  LD H,H
3974   1F32 D0                  RET NC
3975   1F33 4D                  LD C,L
3976   1F34 D1                  POP DE
3977   1F35 33                  INC SP
3978   1F36 D2 18 D3            JP NC,L0392
3979   1F39 FA D3 DB            JP M,L0393
3980   1F3C D4 B9 D5            CALL NC,L0394
3981   1F3F 95                  SUB L
3982   1F40 D6 70               SUB 70H
3983   1F42 D7                  RST 10H
3984   1F43 48                  LD C,B
3985   1F44 D8                  RET C
3986   1F45 1E D9               LD E,0D9H
3987   1F47 F2 D9 C4            JP P,L0395
3988   1F4A DA 94 DB            JP C,L0396
3989   1F4D 61                  LD H,C
3990   1F4E DC 2D DD            CALL C,L0397
3991   1F51 F6 DD               OR 0DDH
3992   1F53 BE                  CP (HL)
3993   1F54 DE 83               SBC A,83H
3994   1F56 DF                  RST 18H
3995   1F57 46                  LD B,(HL)
3996   1F58 E0                  RET PO
3997   1F59 06 E1               LD B,0E1H
3998   1F5B C5                  PUSH BC
3999   1F5C E1                  POP HL
4000   1F5D 82                  ADD A,D
4001   1F5E E2 3C E3            JP PO,L0398
4002   1F61 F4 E3 AA            CALL P,L0399
4003   1F64 E4 5E E5            CALL PO,L0400
4004   1F67 0F                  RRCA
4005   1F68 E6 BE               AND 0BEH
4006   1F6A E6 6B               AND 6BH
4007   1F6C E7                  RST 20H
4008   1F6D 16 E8               LD D,0E8H
4009   1F6F BF                  CP A
4010   1F70 E8                  RET PE
4011   1F71 65                  LD H,L
4012   1F72 E9                  JP (HL)
4013   1F73 09                  ADD HL,BC
4014   1F74 EA AB EA            JP PE,L0401
4015   1F77 4B                  LD C,E
4016   1F78 EB                  EX DE,HL
4017   1F79 E8                  RET PE
4018   1F7A EB                  EX DE,HL
4019   1F7B 83                  ADD A,E
4020   1F7C EC 1C ED            CALL PE,L0402
4021   1F7F B2                  OR D
4022   1F80 ED 46               IM 0
4023   1F82 EE D8               XOR 0D8H
4024   1F84 EE 68               XOR 68H
4025   1F86 EF                  RST 28H
4026   1F87 F5                  PUSH AF
4027   1F88 EF                  RST 28H
4028   1F89 80                  ADD A,B
4029   1F8A F0                  RET P
4030   1F8B 09                  ADD HL,BC
4031   1F8C F1                  POP AF
4032   1F8D 8F                  ADC A,A
4033   1F8E F1                  POP AF
4034   1F8F 13                  INC DE
4035   1F90 F2 94 F2            JP P,L0403
4036   1F93 14                  INC D
4037   1F94 F3                  DI
4038   1F95 91                  SUB C
4039   1F96 F3                  DI
4040   1F97 0B                  DEC BC
4041   1F98 F4 84 F4            CALL P,L0404
4042   1F9B FA F4 6D            JP M,L0405
4043   1F9E F5                  PUSH AF
4044   1F9F DE F5               SBC A,0F5H
4045   1FA1 4D                  LD C,L
4046   1FA2 F6 BA               OR 0BAH
4047   1FA4 F6 24               OR 24H
4048   1FA6 F7                  RST 30H
4049   1FA7 8B                  ADC A,E
4050   1FA8 F7                  RST 30H
4051   1FA9 F1                  POP AF
4052   1FAA F7                  RST 30H
4053   1FAB 53                  LD D,E
4054   1FAC F8                  RET M
4055   1FAD B4                  OR H
4056   1FAE F8                  RET M
4057   1FAF 12                  LD (DE),A
4058   1FB0 F9                  LD SP,HL
4059   1FB1 6E                  LD L,(HL)
4060   1FB2 F9                  LD SP,HL
4061   1FB3 C7                  RST 00H
4062   1FB4 F9                  LD SP,HL
4063   1FB5 1E FA               LD E,0FAH
4064   1FB7 73                  LD (HL),E
4065   1FB8 FA C5 FA            JP M,L0406
4066   1FBB 14                  INC D
4067   1FBC FB                  EI
4068   1FBD 61                  LD H,C
4069   1FBE FB                  EI
4070   1FBF AC                  XOR H
4071   1FC0 FB                  EI
4072   1FC1 F5                  PUSH AF
4073   1FC2 FB                  EI
4074   1FC3 3B                  DEC SP
4075   1FC4 FC 7E FC            CALL M,L0407
4076   1FC7 BF                  CP A
4077   1FC8 FC FE FC            CALL M,L0408
4078   1FCB 3A FD 74            LD A,(74FDH)
4079   1FCE FD                  .DB 0FDH ;UNRECOGNIZED
4080   1FCF AB                  XOR E
4081   1FD0 FD                  .DB 0FDH ;UNRECOGNIZED
4082   1FD1 E0                  RET PO
4083   1FD2 FD                  .DB 0FDH ;UNRECOGNIZED
4084   1FD3 13                  INC DE
4085   1FD4 FE 43               CP 43H
4086   1FD6 FE 70               CP 70H
4087   1FD8 FE 9B               CP 9BH
4088   1FDA FE C4               CP 0C4H
4089   1FDC FE EA               CP 0EAH
4090   1FDE FE 0E               CP 0EH
4091   1FE0 FF                  RST 38H
4092   1FE1 2F                  CPL
4093   1FE2 FF                  RST 38H
4094   1FE3 4E                  LD C,(HL)
4095   1FE4 FF                  RST 38H
4096   1FE5 6A                  LD L,D
4097   1FE6 FF                  RST 38H
4098   1FE7 84                  ADD A,H
4099   1FE8 FF                  RST 38H
4100   1FE9 9C                  SBC A,H
4101   1FEA FF                  RST 38H
4102   1FEB B1                  OR C
4103   1FEC FF                  RST 38H
4104   1FED C3 FF D3            JP L0409
4105   1FF0 FF                  RST 38H
4106   1FF1 E1                  POP HL
4107   1FF2 FF                  RST 38H
4108   1FF3 EC FF F4            CALL PE,L0410
4109   1FF6 FF                  RST 38H
4110   1FF7 FB                  EI
4111   1FF8 FF                  RST 38H
4112   1FF9 FE FF               CP 0FFH
4113   1FFB FF                  RST 38H
4114   1FFC FF                  RST 38H
4115   1FFD 00                  NOP
4116   1FFE 00                  NOP
4117   1FFF 00                  NOP

---------------------------------------------
LIST OF LABELS
Sorted by address:      Sorted by name:
---------------------------------------------

L0001:  006C            L0001:  006C
L0007:  0075            L0002:  007B
L0002:  007B            L0003:  00A9
L0006:  008C            L0004:  0096
L0005:  0091            L0005:  0091
L0004:  0096            L0006:  008C
L0003:  00A9            L0007:  0075
L0008:  00D2            L0008:  00D2
L0010:  00E8            L0009:  02E0
L0011:  00F8            L0010:  00E8
L0012:  00FA            L0011:  00F8
L0013:  00FC            L0012:  00FA
L0014:  0100            L0013:  00FC
L0015:  0102            L0014:  0100
L0022:  0146            L0015:  0102
L0018:  014B            L0016:  0290
L0017:  0156            L0017:  0156
L0023:  01BF            L0018:  014B
L0025:  01CC            L0019:  0245
L0020:  0207            L0020:  0207
L0026:  0216            L0021:  0231
L0027:  021C            L0022:  0146
L0028:  0228            L0023:  01BF
L0029:  022A            L0024:  023A
L0021:  0231            L0025:  01CC
L0024:  023A            L0026:  0216
L0019:  0245            L0027:  021C
L0030:  0253            L0028:  0228
L0031:  025C            L0029:  022A
L0033:  026F            L0030:  0253
L0032:  0279            L0031:  025C
L0016:  0290            L0032:  0279
L0384:  0299            L0033:  026F
L0034:  029C            L0034:  029C
L0036:  02CC            L0035:  02D6
L0037:  02D1            L0036:  02CC
L0035:  02D6            L0037:  02D1
L0009:  02E0            L0038:  02E7
L0038:  02E7            L0039:  0309
L0039:  0309            L0040:  0325
L0042:  031E            L0041:  040E
L0040:  0325            L0042:  031E
L0043:  0360            L0043:  0360
L0044:  036B            L0044:  036B
L0045:  036F            L0045:  036F
L0046:  0383            L0046:  0383
L0047:  0394            L0047:  0394
L0048:  03A8            L0048:  03A8
L0051:  03B8            L0049:  03E1
L0052:  03BF            L0050:  03C0
L0050:  03C0            L0051:  03B8
L0049:  03E1            L0052:  03BF
L0054:  0405            L0053:  1304
L0041:  040E            L0054:  0405
L0059:  042C            L0055:  087F
L0060:  0447            L0056:  06A8
L0061:  0484            L0057:  8007
L0062:  04D8            L0058:  06F1
L0063:  04E0            L0059:  042C
L0064:  04F4            L0060:  0447
L0066:  0505            L0061:  0484
L0068:  0521            L0062:  04D8
L0070:  052D            L0063:  04E0
L0069:  0563            L0064:  04F4
L0071:  0565            L0065:  3605
L0072:  0573            L0066:  0505
L0075:  0575            L0067:  322D
L0076:  0577            L0068:  0521
L0077:  0579            L0069:  0563
L0073:  057A            L0070:  052D
L0078:  057D            L0071:  0565
L0385:  05A4            L0072:  0573
L0079:  0611            L0073:  057A
L0082:  0656            L0074:  FB1E
L0083:  0665            L0075:  0575
L0081:  0671            L0076:  0577
L0084:  0694            L0077:  0579
L0056:  06A8            L0078:  057D
L0087:  06C4            L0079:  0611
L0085:  06F0            L0080:  17C4
L0058:  06F1            L0081:  0671
L0088:  06FE            L0082:  0656
L0091:  0718            L0083:  0665
L0093:  0782            L0084:  0694
L0089:  0789            L0085:  06F0
L0095:  079C            L0086:  1C78
L0094:  07BE            L0087:  06C4
L0090:  07EA            L0088:  06FE
L0097:  083E            L0089:  0789
L0149:  084E            L0090:  07EA
L0128:  0867            L0091:  0718
L0055:  087F            L0092:  1C4E
L0147:  0882            L0093:  0782
L0101:  08A3            L0094:  07BE
L0297:  08BE            L0095:  079C
L0102:  08CF            L0096:  9270
L0104:  08E7            L0097:  083E
L0106:  0915            L0098:  0F7D
L0108:  093C            L0099:  0981
L0110:  0948            L0100:  0F75
L0112:  095C            L0101:  08A3
L0113:  0965            L0102:  08CF
L0109:  0968            L0103:  0F79
L0107:  096C            L0104:  08E7
L0116:  096E            L0105:  16AB
L0099:  0981            L0106:  0915
L0119:  09A6            L0107:  096C
L0117:  09B8            L0108:  093C
L0123:  09C4            L0109:  0968
L0126:  09FB            L0110:  0948
L0125:  0A0E            L0111:  1949
L0174:  0A24            L0112:  095C
L0131:  0A3A            L0113:  0965
L0243:  0A3D            L0114:  195F
L0129:  0A41            L0115:  1671
L0134:  0AA5            L0116:  096E
L0135:  0AAA            L0117:  09B8
L0136:  0ADD            L0118:  10D2
L0139:  0AE7            L0119:  09A6
L0140:  0AEB            L0120:  19F3
L0142:  0B4B            L0121:  13CE
L0137:  0B59            L0122:  0EDF
L0143:  0B8C            L0123:  09C4
L0153:  0B90            L0124:  0BB4
L0133:  0B94            L0125:  0A0E
L0209:  0B9C            L0126:  09FB
L0292:  0BA0            L0127:  845B
L0167:  0BA4            L0128:  0867
L0124:  0BB4            L0129:  0A41
L0145:  0BB6            L0130:  0BBB
L0130:  0BBB            L0131:  0A3A
L0144:  0BBF            L0132:  0F6B
L0173:  0BE1            L0133:  0B94
L0151:  0C1D            L0134:  0AA5
L0155:  0C55            L0135:  0AAA
L0156:  0C81            L0136:  0ADD
L0161:  0CF2            L0137:  0B59
L0159:  0CF7            L0138:  A08A
L0164:  0D04            L0139:  0AE7
L0165:  0D34            L0140:  0AEB
L0186:  0D51            L0141:  740F
L0171:  0D6D            L0142:  0B4B
L0176:  0DB0            L0143:  0B8C
L0178:  0DC0            L0144:  0BBF
L0181:  0E1E            L0145:  0BB6
L0170:  0E6C            L0146:  0F6E
L0177:  0E78            L0147:  0882
L0187:  0E85            L0148:  1642
L0189:  0E98            L0149:  084E
L0191:  0EB9            L0150:  17BB
L0192:  0ED3            L0151:  0C1D
L0193:  0EDD            L0152:  18C3
L0122:  0EDF            L0153:  0B90
L0194:  0F08            L0154:  0F98
L0269:  0F09            L0155:  0C55
L0196:  0F17            L0156:  0C81
L0198:  0F29            L0157:  18CB
L0257:  0F39            L0158:  17D1
L0201:  0F55            L0159:  0CF7
L0202:  0F5A            L0160:  179E
L0258:  0F5C            L0161:  0CF2
L0132:  0F6B            L0162:  1CCC
L0146:  0F6E            L0163:  1D55
L0203:  0F70            L0164:  0D04
L0100:  0F75            L0165:  0D34
L0103:  0F79            L0166:  0FE3
L0098:  0F7D            L0167:  0BA4
L0205:  0F7F            L0168:  81C3
L0204:  0F82            L0169:  198C
L0206:  0F97            L0170:  0E6C
L0154:  0F98            L0171:  0D6D
L0208:  0FA7            L0172:  8F41
L0210:  0FDA            L0173:  0BE1
L0166:  0FE3            L0174:  0A24
L0212:  1005            L0175:  1979
L0211:  1009            L0176:  0DB0
L0213:  1010            L0177:  0E78
L0222:  1021            L0178:  0DC0
L0215:  103E            L0179:  19C9
L0217:  1048            L0180:  1790
L0216:  1055            L0181:  0E1E
L0219:  105B            L0182:  17AF
L0221:  1067            L0183:  1736
L0225:  107C            L0184:  81A1
L0218:  1087            L0185:  824B
L0220:  1089            L0186:  0D51
L0226:  109A            L0187:  0E85
L0228:  109D            L0188:  8173
L0230:  10D1            L0189:  0E98
L0118:  10D2            L0190:  8181
L0231:  10E1            L0191:  0EB9
L0234:  10F6            L0192:  0ED3
L0233:  1109            L0193:  0EDD
L0232:  110D            L0194:  0F08
L0235:  111B            L0195:  8419
L0236:  1132            L0196:  0F17
L0238:  113D            L0197:  1D6D
L0237:  1140            L0198:  0F29
L0239:  1152            L0199:  1D7F
L0240:  1167            L0200:  1793
L0241:  117B            L0201:  0F55
L0245:  118A            L0202:  0F5A
L0246:  11BF            L0203:  0F70
L0249:  1267            L0204:  0F82
L0247:  127C            L0205:  0F7F
L0244:  1283            L0206:  0F97
L0251:  1296            L0207:  91F1
L0252:  12A6            L0208:  0FA7
L0248:  12AB            L0209:  0B9C
L0253:  12C7            L0210:  0FDA
L0254:  12CD            L0211:  1009
L0224:  12CE            L0212:  1005
L0260:  12D8            L0213:  1010
L0255:  12E2            L0214:  1560
L0256:  12E4            L0215:  103E
L0223:  12F3            L0216:  1055
L0053:  1304            L0217:  1048
L0261:  1357            L0218:  1087
L0263:  135F            L0219:  105B
L0259:  1370            L0220:  1089
L0262:  1381            L0221:  1067
L0264:  1391            L0222:  1021
L0265:  139B            L0223:  12F3
L0266:  13B1            L0224:  12CE
L0121:  13CE            L0225:  107C
L0267:  13E5            L0226:  109A
L0268:  140D            L0227:  1775
L0273:  144A            L0228:  109D
L0274:  1466            L0229:  19A7
L0271:  1471            L0230:  10D1
L0275:  1475            L0231:  10E1
L0276:  148A            L0232:  110D
L0277:  149D            L0233:  1109
L0279:  14A9            L0234:  10F6
L0272:  14C1            L0235:  111B
L0283:  14D3            L0236:  1132
L0282:  14D7            L0237:  1140
L0270:  14E3            L0238:  113D
L0281:  14ED            L0239:  1152
L0285:  1510            L0240:  1167
L0287:  1543            L0241:  117B
L0284:  154A            L0242:  91E7
L0288:  1554            L0243:  0A3D
L0214:  1560            L0244:  1283
L0289:  156F            L0245:  118A
L0290:  1574            L0246:  11BF
L0291:  15B2            L0247:  127C
L0293:  15C0            L0248:  12AB
L0294:  1615            L0249:  1267
L0295:  1622            L0250:  1CA4
L0296:  162B            L0251:  1296
L0148:  1642            L0252:  12A6
L0115:  1671            L0253:  12C7
L0105:  16AB            L0254:  12CD
L0300:  16C0            L0255:  12E2
L0301:  16C7            L0256:  12E4
L0303:  16E1            L0257:  0F39
L0304:  16E4            L0258:  0F5C
L0305:  16F2            L0259:  1370
L0306:  16F9            L0260:  12D8
L0307:  170F            L0261:  1357
L0308:  1712            L0262:  1381
L0310:  171B            L0263:  135F
L0309:  1720            L0264:  1391
L0299:  172B            L0265:  139B
L0183:  1736            L0266:  13B1
L0312:  176A            L0267:  13E5
L0313:  1774            L0268:  140D
L0227:  1775            L0269:  0F09
L0180:  1790            L0270:  14E3
L0200:  1793            L0271:  1471
L0160:  179E            L0272:  14C1
L0311:  17A1            L0273:  144A
L0330:  17AC            L0274:  1466
L0182:  17AF            L0275:  1475
L0150:  17BB            L0276:  148A
L0080:  17C4            L0277:  149D
L0314:  17CE            L0278:  83F4
L0158:  17D1            L0279:  14A9
L0315:  17DB            L0280:  83E2
L0286:  17DE            L0281:  14ED
L0319:  1839            L0282:  14D7
L0318:  1880            L0283:  14D3
L0320:  1882            L0284:  154A
L0317:  1886            L0285:  1510
L0316:  18A7            L0286:  17DE
L0321:  18BB            L0287:  1543
L0152:  18C3            L0288:  1554
L0157:  18CB            L0289:  156F
L0323:  18E4            L0290:  1574
L0324:  18FB            L0291:  15B2
L0326:  192E            L0292:  0BA0
L0327:  1932            L0293:  15C0
L0322:  1946            L0294:  1615
L0111:  1949            L0295:  1622
L0114:  195F            L0296:  162B
L0175:  1979            L0297:  08BE
L0169:  198C            L0298:  1AD3
L0229:  19A7            L0299:  172B
L0329:  19B7            L0300:  16C0
L0179:  19C9            L0301:  16C7
L0120:  19F3            L0302:  1A0C
L0331:  1A0A            L0303:  16E1
L0302:  1A0C            L0304:  16E4
L0332:  1A13            L0305:  16F2
L0333:  1A19            L0306:  16F9
L0334:  1A1C            L0307:  170F
L0335:  1A34            L0308:  1712
L0337:  1A57            L0309:  1720
L0339:  1A8E            L0310:  171B
L0340:  1AC0            L0311:  17A1
L0298:  1AD3            L0312:  176A
L0344:  1BF4            L0313:  1774
L0345:  1BF5            L0314:  17CE
L0342:  1C02            L0315:  17DB
L0346:  1C13            L0316:  18A7
L0341:  1C2F            L0317:  1886
L0343:  1C32            L0318:  1880
L0347:  1C3D            L0319:  1839
L0349:  1C43            L0320:  1882
L0348:  1C4D            L0321:  18BB
L0092:  1C4E            L0322:  1946
L0350:  1C58            L0323:  18E4
L0351:  1C61            L0324:  18FB
L0352:  1C77            L0325:  1CF3
L0086:  1C78            L0326:  192E
L0354:  1C8B            L0327:  1932
L0353:  1C99            L0328:  1D9F
L0250:  1CA4            L0329:  19B7
L0355:  1CBA            L0330:  17AC
L0162:  1CCC            L0331:  1A0A
L0356:  1CDE            L0332:  1A13
L0357:  1CE7            L0333:  1A19
L0358:  1CF2            L0334:  1A1C
L0325:  1CF3            L0335:  1A34
L0360:  1CFC            L0336:  1D82
L0359:  1D0F            L0337:  1A57
L0363:  1D19            L0338:  1D70
L0362:  1D41            L0339:  1A8E
L0361:  1D51            L0340:  1AC0
L0163:  1D55            L0341:  1C2F
L0197:  1D6D            L0342:  1C02
L0338:  1D70            L0343:  1C32
L0199:  1D7F            L0344:  1BF4
L0336:  1D82            L0345:  1BF5
L0364:  1D97            L0346:  1C13
L0365:  1D99            L0347:  1C3D
L0328:  1D9F            L0348:  1C4D
L0368:  1DA5            L0349:  1C43
L0367:  1DB2            L0350:  1C58
L0369:  1DCA            L0351:  1C61
L0370:  1DCB            L0352:  1C77
L0371:  1DD8            L0353:  1C99
L0372:  1DE3            L0354:  1C8B
L0376:  1DE5            L0355:  1CBA
L0366:  1DE6            L0356:  1CDE
L0375:  1E2D            L0357:  1CE7
L0374:  1E69            L0358:  1CF2
L0373:  1E9B            L0359:  1D0F
L0386:  1EB5            L0360:  1CFC
L0067:  322D            L0361:  1D51
L0065:  3605            L0362:  1D41
L0383:  398C            L0363:  1D19
L0380:  3E54            L0364:  1D97
L0377:  4742            L0365:  1D99
L0379:  4751            L0366:  1DE6
L0382:  4B84            L0367:  1DB2
L0378:  4D45            L0368:  1DA5
L0381:  4D64            L0369:  1DCA
L0405:  6DF4            L0370:  1DCB
L0141:  740F            L0371:  1DD8
L0057:  8007            L0372:  1DE3
L0188:  8173            L0373:  1E9B
L0190:  8181            L0374:  1E69
L0184:  81A1            L0375:  1E2D
L0168:  81C3            L0376:  1DE5
L0185:  824B            L0377:  4742
L0280:  83E2            L0378:  4D45
L0278:  83F4            L0379:  4751
L0195:  8419            L0380:  3E54
L0127:  845B            L0381:  4D64
L0172:  8F41            L0382:  4B84
L0242:  91E7            L0383:  398C
L0207:  91F1            L0384:  0299
L0096:  9270            L0385:  05A4
L0138:  A08A            L0386:  1EB5
L0399:  AAE3            L0387:  E3C3
L0395:  C4D9            L0388:  C5E4
L0388:  C5E4            L0389:  DEC6
L0390:  CBBB            L0390:  CBBB
L0391:  CD9F            L0391:  CD9F
L0392:  D318            L0392:  D318
L0409:  D3FF            L0393:  DBD3
L0394:  D5B9            L0394:  D5B9
L0396:  DB94            L0395:  C4D9
L0393:  DBD3            L0396:  DB94
L0397:  DD2D            L0397:  DD2D
L0389:  DEC6            L0398:  E33C
L0398:  E33C            L0399:  AAE3
L0387:  E3C3            L0400:  E55E
L0400:  E55E            L0401:  EAAB
L0401:  EAAB            L0402:  ED1C
L0402:  ED1C            L0403:  F294
L0403:  F294            L0404:  F484
L0404:  F484            L0405:  6DF4
L0410:  F4FF            L0406:  FAC5
L0406:  FAC5            L0407:  FC7E
L0074:  FB1E            L0408:  FCFE
L0407:  FC7E            L0409:  D3FF
L0408:  FCFE            L0410:  F4FF
