--------------------------------------------------
Z80 DISASSEMBLER LISTING
Line   Addr Opcodes     Label   Instruction
--------------------------------------------------

0001   0000 C3 6C 00            JP L0001
0002   0003 DF                  RST 18H
0003   0004 00                  NOP
0004   0005 03                  INC BC
0005   0006 00                  NOP
0006   0007 00                  NOP
0007   0008 00                  NOP
0008   0009 00                  NOP
0009   000A 00                  NOP
0010   000B 00                  NOP
0011   000C 00                  NOP
0012   000D 00                  NOP
0013   000E 00                  NOP
0014   000F 00                  NOP
0015   0010 00                  NOP
0016   0011 00                  NOP
0017   0012 00                  NOP
0018   0013 00                  NOP
0019   0014 00                  NOP
0020   0015 00                  NOP
0021   0016 00                  NOP
0022   0017 00                  NOP
0023   0018 00                  NOP
0024   0019 00                  NOP
0025   001A 00                  NOP
0026   001B 00                  NOP
0027   001C 00                  NOP
0028   001D 00                  NOP
0029   001E 00                  NOP
0030   001F 00                  NOP
0031   0020 00                  NOP
0032   0021 00                  NOP
0033   0022 00                  NOP
0034   0023 00                  NOP
0035   0024 00                  NOP
0036   0025 00                  NOP
0037   0026 00                  NOP
0038   0027 00                  NOP
0039   0028 00                  NOP
0040   0029 00                  NOP
0041   002A 00                  NOP
0042   002B 00                  NOP
0043   002C 00                  NOP
0044   002D 00                  NOP
0045   002E 00                  NOP
0046   002F 00                  NOP
0047   0030 00                  NOP
0048   0031 00                  NOP
0049   0032 00                  NOP
0050   0033 00                  NOP
0051   0034 00                  NOP
0052   0035 00                  NOP
0053   0036 00                  NOP
0054   0037 00                  NOP
0055   0038 00                  NOP
0056   0039 00                  NOP
0057   003A 00                  NOP
0058   003B 00                  NOP
0059   003C 00                  NOP
0060   003D 00                  NOP
0061   003E 00                  NOP
0062   003F 00                  NOP
0063   0040 00                  NOP
0064   0041 00                  NOP
0065   0042 00                  NOP
0066   0043 00                  NOP
0067   0044 00                  NOP
0068   0045 00                  NOP
0069   0046 00                  NOP
0070   0047 00                  NOP
0071   0048 00                  NOP
0072   0049 00                  NOP
0073   004A 00                  NOP
0074   004B 00                  NOP
0075   004C 00                  NOP
0076   004D 00                  NOP
0077   004E 00                  NOP
0078   004F 00                  NOP
0079   0050 00                  NOP
0080   0051 00                  NOP
0081   0052 00                  NOP
0082   0053 00                  NOP
0083   0054 00                  NOP
0084   0055 00                  NOP
0085   0056 00                  NOP
0086   0057 00                  NOP
0087   0058 00                  NOP
0088   0059 00                  NOP
0089   005A 00                  NOP
0090   005B 00                  NOP
0091   005C 00                  NOP
0092   005D 00                  NOP
0093   005E 00                  NOP
0094   005F 00                  NOP
0095   0060 00                  NOP
0096   0061 00                  NOP
0097   0062 00                  NOP
0098   0063 00                  NOP
0099   0064 00                  NOP
0100   0065 00                  NOP
0101   0066 E5                  PUSH HL
0102   0067 2A 98 20            LD HL,(2098H)
0103   006A E3                  EX (SP),HL
0104   006B C9                  RET
0105   006C F3          L0001:  DI
0106   006D 21 38 01            LD HL,0138H
0107   0070 22 98 20            LD (2098H),HL
0108   0073 32 03 C0            LD (0C003H),A
0109   0076 21 03 60            LD HL,6003H
0110   0079 36 B6               LD (HL),0B6H
0111   007B 21 02 60            LD HL,6002H
0112   007E 36 9A               LD (HL),9AH
0113   0080 36 09               LD (HL),09H
0114   0082 32 0D C0            LD (0C00DH),A
0115   0085 32 06 C0            LD (0C006H),A
0116   0088 1E 00               LD E,00H
0117   008A 01 FF 1F    L0007:  LD BC,1FFFH
0118   008D 21 20 20            LD HL,2020H
0119   0090 79          L0002:  LD A,C
0120   0091 AB                  XOR E
0121   0092 77                  LD (HL),A
0122   0093 23                  INC HL
0123   0094 0D                  DEC C
0124   0095 20 F9               JR NZ,L0002
0125   0097 05                  DEC B
0126   0098 F2 90 00            JP P,L0002
0127   009B 01 FF 1F            LD BC,1FFFH
0128   009E 21 20 20            LD HL,2020H
0129   00A1 79          L0006:  LD A,C
0130   00A2 AB                  XOR E
0131   00A3 BE                  CP (HL)
0132   00A4 28 18               JR Z,L0003
0133   00A6 3E 04       L0005:  LD A,04H
0134   00A8 32 06 C0            LD (0C006H),A
0135   00AB 0D          L0004:  DEC C
0136   00AC 20 FD               JR NZ,L0004
0137   00AE 05                  DEC B
0138   00AF C2 AB 00            JP NZ,L0004
0139   00B2 3D                  DEC A
0140   00B3 28 F1               JR Z,L0005
0141   00B5 FE 02               CP 02H
0142   00B7 20 F2               JR NZ,L0004
0143   00B9 32 0E C0            LD (0C00EH),A
0144   00BC 18 ED               JR L0004
0145   00BE 36 00       L0003:  LD (HL),00H
0146   00C0 23                  INC HL
0147   00C1 0D                  DEC C
0148   00C2 20 DD               JR NZ,L0006
0149   00C4 05                  DEC B
0150   00C5 F2 A1 00            JP P,L0006
0151   00C8 1D                  DEC E
0152   00C9 7B                  LD A,E
0153   00CA FE FE               CP 0FEH
0154   00CC 20 BC               JR NZ,L0007
0155   00CE 32 0E C0            LD (0C00EH),A
0156   00D1 32 05 C0            LD (0C005H),A
0157   00D4 31 5A 21            LD SP,215AH
0158   00D7 21 4F 01            LD HL,014FH
0159   00DA E5                  PUSH HL
0160   00DB ED 73 90 20         LD (2090H),SP
0161   00DF 31 1A 22            LD SP,221AH
0162   00E2 21 F1 02            LD HL,02F1H
0163   00E5 E5                  PUSH HL
0164   00E6 ED 73 94 20         LD (2094H),SP
0165   00EA 31 FA 22            LD SP,22FAH
0166   00ED ED 5E               IM 2
0167   00EF 3E 20               LD A,20H
0168   00F1 ED 47               LD I,A
0169   00F3 21 26 01            LD HL,0126H
0170   00F6 06 00               LD B,00H
0171   00F8 1E 09               LD E,09H
0172   00FA 4E          L0008:  LD C,(HL)
0173   00FB 23                  INC HL
0174   00FC 7E                  LD A,(HL)
0175   00FD 23                  INC HL
0176   00FE ED 79               OUT (C),A
0177   0100 1D                  DEC E
0178   0101 20 F7               JR NZ,L0008
0179   0103 ED 38               .DB 0EDH 38H ;UNRECOGNIZED
0180   0105 08                  EX AF,AF'
0181   0106 ED 38               .DB 0EDH 38H ;UNRECOGNIZED
0182   0108 09                  ADD HL,BC
0183   0109 21 3A 01            LD HL,013AH
0184   010C 11 00 20            LD DE,2000H
0185   010F 01 12 00            LD BC,0012H
0186   0112 ED B0               LDIR
0187   0114 FB                  EI
0188   0115 3A 00 A0    L0010:  LD A,(0A000H)
0189   0118 CB 77               BIT 6,A
0190   011A C2 00 05            JP NZ,L0009
0191   011D 2A 20 20            LD HL,(2020H)
0192   0120 3E 00               LD A,00H
0193   0122 B4                  OR H
0194   0123 28 F0               JR Z,L0010
0195   0125 E9                  JP (HL)
0196   0126 00                  NOP
0197   0127 64                  LD H,H
0198   0128 01 64 02            LD BC,0264H
0199   012B 02                  LD (BC),A
0200   012C 03                  INC BC
0201   012D 02                  LD (BC),A
0202   012E 04                  INC B
0203   012F 08                  EX AF,AF'
0204   0130 05                  DEC B
0205   0131 08                  EX AF,AF'
0206   0132 32 00 36            LD (3600H),A
0207   0135 00                  NOP
0208   0136 33                  INC SP
0209   0137 00                  NOP
0210   0138 ED 45               RETN
0211   013A 4C                  LD C,H
0212   013B 01 4C 01            LD BC,014CH
0213   013E 4C                  LD C,H
0214   013F 01 4C 01            LD BC,014CH
0215   0142 4C                  LD C,H
0216   0143 01 4C 01            LD BC,014CH
0217   0146 4C                  LD C,H
0218   0147 01 6C 02            LD BC,026CH
0219   014A E5                  PUSH HL
0220   014B 03                  INC BC
0221   014C FB                  EI
0222   014D ED 4D               RETI
0223   014F 3E 00       L0017:  LD A,00H
0224   0151 32 54 20            LD (2054H),A
0225   0154 CD A6 02    L0013:  CALL L0011
0226   0157 FE 3A               CP 3AH
0227   0159 28 04               JR Z,L0012
0228   015B FE 3B               CP 3BH
0229   015D 20 F5               JR NZ,L0013
0230   015F 32 28 20    L0012:  LD (2028H),A
0231   0162 CD 5E 02            CALL L0014
0232   0165 DA 37 02            JP C,L0015
0233   0168 32 26 20            LD (2026H),A
0234   016B CD 4A 02            CALL L0016
0235   016E CD 5E 02            CALL L0014
0236   0171 DA 37 02            JP C,L0015
0237   0174 32 53 20            LD (2053H),A
0238   0177 CD 4A 02            CALL L0016
0239   017A CD 5E 02            CALL L0014
0240   017D DA 37 02            JP C,L0015
0241   0180 32 52 20            LD (2052H),A
0242   0183 CD 4A 02            CALL L0016
0243   0186 CD 5E 02            CALL L0014
0244   0189 DA 37 02            JP C,L0015
0245   018C FE 03               CP 03H
0246   018E C2 4F 01            JP NZ,L0017
0247   0191 CD 4A 02            CALL L0016
0248   0194 3A 28 20            LD A,(2028H)
0249   0197 FE 3A               CP 3AH
0250   0199 28 54               JR Z,L0018
0251   019B 2A 52 20            LD HL,(2052H)
0252   019E 11 B4 24            LD DE,24B4H
0253   01A1 37                  SCF
0254   01A2 3F                  CCF
0255   01A3 ED 52               SBC HL,DE
0256   01A5 C2 C4 01            JP NZ,L0019
0257   01A8 ED 5B B2 24         LD DE,(24B2H)
0258   01AC 13                  INC DE
0259   01AD 2A B0 24            LD HL,(24B0H)
0260   01B0 37                  SCF
0261   01B1 ED 52               SBC HL,DE
0262   01B3 30 03               JR NC,L0020
0263   01B5 11 00 00            LD DE,0000H
0264   01B8 ED 53 B2 24 L0020:  LD (24B2H),DE
0265   01BC 2A AE 24            LD HL,(24AEH)
0266   01BF 19                  ADD HL,DE
0267   01C0 7E                  LD A,(HL)
0268   01C1 32 B4 24            LD (24B4H),A
0269   01C4 3A 54 20    L0019:  LD A,(2054H)
0270   01C7 32 56 20            LD (2056H),A
0271   01CA 2A 52 20            LD HL,(2052H)
0272   01CD ED 4B 26 20         LD BC,(2026H)
0273   01D1 06 00               LD B,00H
0274   01D3 11 FC 22            LD DE,22FCH
0275   01D6 ED B0               LDIR
0276   01D8 21 FC 22            LD HL,22FCH
0277   01DB 22 22 20            LD (2022H),HL
0278   01DE 3A 26 20            LD A,(2026H)
0279   01E1 32 24 20            LD (2024H),A
0280   01E4 3A 8E 20            LD A,(208EH)
0281   01E7 F6 01               OR 01H
0282   01E9 32 8E 20            LD (208EH),A
0283   01EC C3 4F 01            JP L0017
0284   01EF DD 21 2A 20 L0018:  LD IX,202AH
0285   01F3 3A 26 20            LD A,(2026H)
0286   01F6 FE 00               CP 00H
0287   01F8 CA 54 01            JP Z,L0013
0288   01FB 47                  LD B,A
0289   01FC CD 5E 02    L0021:  CALL L0014
0290   01FF DA 37 02            JP C,L0015
0291   0202 DD 77 00            LD (IX+00H),A
0292   0205 CD 4A 02            CALL L0016
0293   0208 DD 23               INC IX
0294   020A 10 F0               DJNZ L0021
0295   020C CD 5E 02            CALL L0014
0296   020F DA 37 02            JP C,L0015
0297   0212 21 54 20            LD HL,2054H
0298   0215 BE                  CP (HL)
0299   0216 20 1F               JR NZ,L0015
0300   0218 CD A6 02            CALL L0011
0301   021B FE 0D               CP 0DH
0302   021D 20 18               JR NZ,L0015
0303   021F 3A 54 20            LD A,(2054H)
0304   0222 CD 46 02            CALL L0022
0305   0225 ED 5B 52 20         LD DE,(2052H)
0306   0229 21 2A 20            LD HL,202AH
0307   022C ED 4B 26 20         LD BC,(2026H)
0308   0230 06 00               LD B,00H
0309   0232 ED B0               LDIR
0310   0234 C3 4F 01            JP L0017
0311   0237 CD A6 02    L0015:  CALL L0011
0312   023A FE 0D               CP 0DH
0313   023C 20 F9               JR NZ,L0015
0314   023E 3E FF               LD A,0FFH
0315   0240 CD 46 02            CALL L0022
0316   0243 C3 4F 01            JP L0017
0317   0246 ED 39       L0022:  .DB 0EDH 39H ;UNRECOGNIZED
0318   0248 06 C9               LD B,0C9H
0319   024A 57          L0016:  LD D,A
0320   024B 3A 54 20            LD A,(2054H)
0321   024E 92                  SUB D
0322   024F 32 54 20            LD (2054H),A
0323   0252 C9                  RET
0324   0253 D5                  PUSH DE
0325   0254 57                  LD D,A
0326   0255 3A 56 20            LD A,(2056H)
0327   0258 92                  SUB D
0328   0259 32 56 20            LD (2056H),A
0329   025C D1                  POP DE
0330   025D C9                  RET
0331   025E C5          L0014:  PUSH BC
0332   025F CD A6 02            CALL L0011
0333   0262 67                  LD H,A
0334   0263 CD A6 02            CALL L0011
0335   0266 6F                  LD L,A
0336   0267 CD 82 04            CALL L0023
0337   026A C1                  POP BC
0338   026B C9                  RET
0339   026C F5                  PUSH AF
0340   026D ED 38               .DB 0EDH 38H ;UNRECOGNIZED
0341   026F 04                  INC B
0342   0270 32 8E 20            LD (208EH),A
0343   0273 E6 F6               AND 0F6H
0344   0275 ED 39               .DB 0EDH 39H ;UNRECOGNIZED
0345   0277 04                  INC B
0346   0278 FB                  EI
0347   0279 CB 7F               BIT 7,A
0348   027B CA C2 02            JP Z,L0024
0349   027E E6 70               AND 70H
0350   0280 28 11               JR Z,L0025
0351   0282 ED 38               .DB 0EDH 38H ;UNRECOGNIZED
0352   0284 08                  EX AF,AF'
0353   0285 3E 64               LD A,64H
0354   0287 ED 39               .DB 0EDH 39H ;UNRECOGNIZED
0355   0289 00                  NOP
0356   028A 3A 8E 20    L0027:  LD A,(208EH)
0357   028D ED 39               .DB 0EDH 39H ;UNRECOGNIZED
0358   028F 04                  INC B
0359   0290 F1                  POP AF
0360   0291 ED 4D               RETI
0361   0293 E5          L0025:  PUSH HL
0362   0294 D5                  PUSH DE
0363   0295 C5                  PUSH BC
0364   0296 DD E5               PUSH IX
0365   0298 ED 73 92 20         LD (2092H),SP
0366   029C ED 7B 90 20         LD SP,(2090H)
0367   02A0 ED 38               .DB 0EDH 38H ;UNRECOGNIZED
0368   02A2 08                  EX AF,AF'
0369   02A3 E6 7F               AND 7FH
0370   02A5 C9                  RET
0371   02A6 DD E5       L0011:  PUSH IX
0372   02A8 E5                  PUSH HL
0373   02A9 D5                  PUSH DE
0374   02AA CD B2 02            CALL L0026
0375   02AD D1                  POP DE
0376   02AE E1                  POP HL
0377   02AF DD E1               POP IX
0378   02B1 C9                  RET
0379   02B2 ED 73 90 20 L0026:  LD (2090H),SP
0380   02B6 ED 7B 92 20         LD SP,(2092H)
0381   02BA DD E1               POP IX
0382   02BC C1                  POP BC
0383   02BD D1                  POP DE
0384   02BE E1                  POP HL
0385   02BF C3 8A 02            JP L0027
0386   02C2 E5          L0024:  PUSH HL
0387   02C3 3A 24 20            LD A,(2024H)
0388   02C6 FE FF               CP 0FFH
0389   02C8 28 1B               JR Z,L0028
0390   02CA 3D                  DEC A
0391   02CB 32 24 20            LD (2024H),A
0392   02CE FE FF               CP 0FFH
0393   02D0 3A 56 20            LD A,(2056H)
0394   02D3 28 08               JR Z,L0029
0395   02D5 2A 22 20            LD HL,(2022H)
0396   02D8 7E                  LD A,(HL)
0397   02D9 23                  INC HL
0398   02DA 22 22 20            LD (2022H),HL
0399   02DD ED 39       L0029:  .DB 0EDH 39H ;UNRECOGNIZED
0400   02DF 06 CD               LD B,0CDH
0401   02E1 53                  LD D,E
0402   02E2 02                  LD (BC),A
0403   02E3 18 08               JR L0030
0404   02E5 3A 8E 20    L0028:  LD A,(208EH)
0405   02E8 E6 FE               AND 0FEH
0406   02EA 32 8E 20            LD (208EH),A
0407   02ED E1          L0030:  POP HL
0408   02EE C3 8A 02            JP L0027
0409   02F1 3E 00       L0037:  LD A,00H
0410   02F3 32 8A 20            LD (208AH),A
0411   02F6 CD 1F 04    L0033:  CALL L0031
0412   02F9 FE 3A               CP 3AH
0413   02FB 28 04               JR Z,L0032
0414   02FD FE 3B               CP 3BH
0415   02FF 20 F5               JR NZ,L0033
0416   0301 32 5E 20    L0032:  LD (205EH),A
0417   0304 CD D7 03            CALL L0034
0418   0307 DA B0 03            JP C,L0035
0419   030A 32 5C 20            LD (205CH),A
0420   030D CD C3 03            CALL L0036
0421   0310 CD D7 03            CALL L0034
0422   0313 DA B0 03            JP C,L0035
0423   0316 32 89 20            LD (2089H),A
0424   0319 CD C3 03            CALL L0036
0425   031C CD D7 03            CALL L0034
0426   031F DA B0 03            JP C,L0035
0427   0322 32 88 20            LD (2088H),A
0428   0325 CD C3 03            CALL L0036
0429   0328 CD D7 03            CALL L0034
0430   032B DA B0 03            JP C,L0035
0431   032E FE 03               CP 03H
0432   0330 C2 F1 02            JP NZ,L0037
0433   0333 CD C3 03            CALL L0036
0434   0336 3A 5E 20            LD A,(205EH)
0435   0339 FE 3A               CP 3AH
0436   033B 28 2B               JR Z,L0038
0437   033D 3A 8A 20            LD A,(208AH)
0438   0340 32 8C 20            LD (208CH),A
0439   0343 2A 88 20            LD HL,(2088H)
0440   0346 ED 4B 5C 20         LD BC,(205CH)
0441   034A 06 00               LD B,00H
0442   034C 11 7C 23            LD DE,237CH
0443   034F ED B0               LDIR
0444   0351 21 7C 23            LD HL,237CH
0445   0354 22 58 20            LD (2058H),HL
0446   0357 3A 5C 20            LD A,(205CH)
0447   035A 32 5A 20            LD (205AH),A
0448   035D 3A 8F 20            LD A,(208FH)
0449   0360 F6 01               OR 01H
0450   0362 32 8F 20            LD (208FH),A
0451   0365 C3 F1 02            JP L0037
0452   0368 DD 21 60 20 L0038:  LD IX,2060H
0453   036C 3A 5C 20            LD A,(205CH)
0454   036F FE 00               CP 00H
0455   0371 CA F6 02            JP Z,L0033
0456   0374 47                  LD B,A
0457   0375 CD D7 03    L0039:  CALL L0034
0458   0378 DA B0 03            JP C,L0035
0459   037B DD 77 00            LD (IX+00H),A
0460   037E CD C3 03            CALL L0036
0461   0381 DD 23               INC IX
0462   0383 10 F0               DJNZ L0039
0463   0385 CD D7 03            CALL L0034
0464   0388 DA B0 03            JP C,L0035
0465   038B 21 8A 20            LD HL,208AH
0466   038E BE                  CP (HL)
0467   038F 20 1F               JR NZ,L0035
0468   0391 CD 1F 04            CALL L0031
0469   0394 FE 0D               CP 0DH
0470   0396 20 18               JR NZ,L0035
0471   0398 3A 8A 20            LD A,(208AH)
0472   039B CD BF 03            CALL L0040
0473   039E ED 5B 88 20         LD DE,(2088H)
0474   03A2 21 60 20            LD HL,2060H
0475   03A5 ED 4B 5C 20         LD BC,(205CH)
0476   03A9 06 00               LD B,00H
0477   03AB ED B0               LDIR
0478   03AD C3 F1 02            JP L0037
0479   03B0 CD 1F 04    L0035:  CALL L0031
0480   03B3 FE 0D               CP 0DH
0481   03B5 20 F9               JR NZ,L0035
0482   03B7 3E FF               LD A,0FFH
0483   03B9 CD BF 03            CALL L0040
0484   03BC C3 F1 02            JP L0037
0485   03BF ED 39       L0040:  .DB 0EDH 39H ;UNRECOGNIZED
0486   03C1 07                  RLCA
0487   03C2 C9                  RET
0488   03C3 57          L0036:  LD D,A
0489   03C4 3A 8A 20            LD A,(208AH)
0490   03C7 92                  SUB D
0491   03C8 32 8A 20            LD (208AH),A
0492   03CB C9                  RET
0493   03CC D5          L0048:  PUSH DE
0494   03CD 57                  LD D,A
0495   03CE 3A 8C 20            LD A,(208CH)
0496   03D1 92                  SUB D
0497   03D2 32 8C 20            LD (208CH),A
0498   03D5 D1                  POP DE
0499   03D6 C9                  RET
0500   03D7 C5          L0034:  PUSH BC
0501   03D8 CD 1F 04            CALL L0031
0502   03DB 67                  LD H,A
0503   03DC CD 1F 04            CALL L0031
0504   03DF 6F                  LD L,A
0505   03E0 CD 82 04            CALL L0023
0506   03E3 C1                  POP BC
0507   03E4 C9                  RET
0508   03E5 F5                  PUSH AF
0509   03E6 ED 38               .DB 0EDH 38H ;UNRECOGNIZED
0510   03E8 05                  DEC B
0511   03E9 32 8F 20            LD (208FH),A
0512   03EC E6 F6               AND 0F6H
0513   03EE ED 39               .DB 0EDH 39H ;UNRECOGNIZED
0514   03F0 05                  DEC B
0515   03F1 FB                  EI
0516   03F2 CB 7F               BIT 7,A
0517   03F4 CA 3B 04    L0043:  JP Z,L0041
0518   03F7 E6 70               AND 70H
0519   03F9 28 11               JR Z,L0042
0520   03FB ED 38               .DB 0EDH 38H ;UNRECOGNIZED
0521   03FD 09                  ADD HL,BC
0522   03FE 3E 64               LD A,64H
0523   0400 ED 39               .DB 0EDH 39H ;UNRECOGNIZED
0524   0402 01 3A 8F            LD BC,8F3AH
0525   0405 20 ED               JR NZ,L0043
0526   0407 39                  ADD HL,SP
0527   0408 05                  DEC B
0528   0409 F1                  POP AF
0529   040A ED 4D               RETI
0530   040C E5          L0042:  PUSH HL
0531   040D D5                  PUSH DE
0532   040E C5                  PUSH BC
0533   040F DD E5               PUSH IX
0534   0411 ED 73 96 20         LD (2096H),SP
0535   0415 ED 7B 94 20         LD SP,(2094H)
0536   0419 ED 38               .DB 0EDH 38H ;UNRECOGNIZED
0537   041B 09                  ADD HL,BC
0538   041C E6 7F               AND 7FH
0539   041E C9                  RET
0540   041F DD E5       L0031:  PUSH IX
0541   0421 E5                  PUSH HL
0542   0422 D5                  PUSH DE
0543   0423 CD 2B 04            CALL L0044
0544   0426 D1                  POP DE
0545   0427 E1                  POP HL
0546   0428 DD E1               POP IX
0547   042A C9                  RET
0548   042B ED 73 94 20 L0044:  LD (2094H),SP
0549   042F ED 7B 96 20         LD SP,(2096H)
0550   0433 DD E1               POP IX
0551   0435 C1                  POP BC
0552   0436 D1                  POP DE
0553   0437 E1                  POP HL
0554   0438 C3 03 04            JP L0045
0555   043B E5          L0041:  PUSH HL
0556   043C 3A 5A 20            LD A,(205AH)
0557   043F FE FF               CP 0FFH
0558   0441 28 1B               JR Z,L0046
0559   0443 3D                  DEC A
0560   0444 32 5A 20            LD (205AH),A
0561   0447 FE FF               CP 0FFH
0562   0449 3A 8C 20            LD A,(208CH)
0563   044C 28 08               JR Z,L0047
0564   044E 2A 58 20            LD HL,(2058H)
0565   0451 7E                  LD A,(HL)
0566   0452 23                  INC HL
0567   0453 22 58 20            LD (2058H),HL
0568   0456 ED 39       L0047:  .DB 0EDH 39H ;UNRECOGNIZED
0569   0458 07                  RLCA
0570   0459 CD CC 03            CALL L0048
0571   045C 18 08               JR L0049
0572   045E 3A 8F 20    L0046:  LD A,(208FH)
0573   0461 E6 FE               AND 0FEH
0574   0463 32 8F 20            LD (208FH),A
0575   0466 E1          L0049:  POP HL
0576   0467 C3 03 04            JP L0045
0577   046A CD 6D 04            CALL L0050
0578   046D F5          L0050:  PUSH AF
0579   046E E6 0F               AND 0FH
0580   0470 6C                  LD L,H
0581   0471 FE 0A               CP 0AH
0582   0473 30 04               JR NC,L0051
0583   0475 F6 30               OR 30H
0584   0477 18 02               JR L0052
0585   0479 C6 37       L0051:  ADD A,37H
0586   047B 67          L0052:  LD H,A
0587   047C F1                  POP AF
0588   047D 0F                  RRCA
0589   047E 0F                  RRCA
0590   047F 0F                  RRCA
0591   0480 0F                  RRCA
0592   0481 C9                  RET
0593   0482 06 00       L0023:  LD B,00H
0594   0484 7D                  LD A,L
0595   0485 CD 8B 04            CALL L0053
0596   0488 38 1E               JR C,L0054
0597   048A 7C                  LD A,H
0598   048B FE 30       L0053:  CP 30H
0599   048D 38 19               JR C,L0054
0600   048F FE 3A               CP 3AH
0601   0491 38 0B               JR C,L0055
0602   0493 FE 41               CP 41H
0603   0495 38 11               JR C,L0054
0604   0497 FE 47               CP 47H
0605   0499 3F                  CCF
0606   049A 38 0C               JR C,L0054
0607   049C C6 09               ADD A,09H
0608   049E E6 0F       L0055:  AND 0FH
0609   04A0 B0                  OR B
0610   04A1 07                  RLCA
0611   04A2 07                  RLCA
0612   04A3 07                  RLCA
0613   04A4 07                  RLCA
0614   04A5 47                  LD B,A
0615   04A6 37                  SCF
0616   04A7 3F                  CCF
0617   04A8 C9          L0054:  RET
0618   04A9 00                  NOP
0619   04AA 00                  NOP
0620   04AB 00                  NOP
0621   04AC 00                  NOP
0622   04AD 00                  NOP
0623   04AE 00                  NOP
0624   04AF 00                  NOP
0625   04B0 00                  NOP
0626   04B1 00                  NOP
0627   04B2 00                  NOP
0628   04B3 00                  NOP
0629   04B4 00                  NOP
0630   04B5 00                  NOP
0631   04B6 00                  NOP
0632   04B7 00                  NOP
0633   04B8 00                  NOP
0634   04B9 00                  NOP
0635   04BA 00                  NOP
0636   04BB 00                  NOP
0637   04BC 00                  NOP
0638   04BD 00                  NOP
0639   04BE 00                  NOP
0640   04BF 00                  NOP
0641   04C0 00                  NOP
0642   04C1 00                  NOP
0643   04C2 00                  NOP
0644   04C3 00                  NOP
0645   04C4 00                  NOP
0646   04C5 00                  NOP
0647   04C6 00                  NOP
0648   04C7 00                  NOP
0649   04C8 00                  NOP
0650   04C9 00                  NOP
0651   04CA 00                  NOP
0652   04CB 00                  NOP
0653   04CC 00                  NOP
0654   04CD 00                  NOP
0655   04CE 00                  NOP
0656   04CF 00                  NOP
0657   04D0 00                  NOP
0658   04D1 00                  NOP
0659   04D2 00                  NOP
0660   04D3 00                  NOP
0661   04D4 00                  NOP
0662   04D5 00                  NOP
0663   04D6 00                  NOP
0664   04D7 00                  NOP
0665   04D8 00                  NOP
0666   04D9 00                  NOP
0667   04DA 00                  NOP
0668   04DB 00                  NOP
0669   04DC 00                  NOP
0670   04DD 00                  NOP
0671   04DE 00                  NOP
0672   04DF 00                  NOP
0673   04E0 00                  NOP
0674   04E1 00                  NOP
0675   04E2 00                  NOP
0676   04E3 00                  NOP
0677   04E4 00                  NOP
0678   04E5 00                  NOP
0679   04E6 00                  NOP
0680   04E7 00                  NOP
0681   04E8 00                  NOP
0682   04E9 00                  NOP
0683   04EA 00                  NOP
0684   04EB 00                  NOP
0685   04EC 00                  NOP
0686   04ED 00                  NOP
0687   04EE 00                  NOP
0688   04EF 00                  NOP
0689   04F0 00                  NOP
0690   04F1 00                  NOP
0691   04F2 00                  NOP
0692   04F3 00                  NOP
0693   04F4 00                  NOP
0694   04F5 00                  NOP
0695   04F6 00                  NOP
0696   04F7 00                  NOP
0697   04F8 00                  NOP
0698   04F9 00                  NOP
0699   04FA 00                  NOP
0700   04FB 00                  NOP
0701   04FC 00                  NOP
0702   04FD 00                  NOP
0703   04FE 00                  NOP
0704   04FF 00                  NOP
0705   0500 F3          L0009:  DI
0706   0501 21 03 60            LD HL,6003H
0707   0504 36 32               LD (HL),32H
0708   0506 21 00 60            LD HL,6000H
0709   0509 36 00               LD (HL),00H
0710   050B 36 00               LD (HL),00H
0711   050D 21 03 60            LD HL,6003H
0712   0510 36 72               LD (HL),72H
0713   0512 21 01 60            LD HL,6001H
0714   0515 36 00               LD (HL),00H
0715   0517 36 00               LD (HL),00H
0716   0519 21 CC 05            LD HL,05CCH
0717   051C 06 00               LD B,00H
0718   051E 1E 09               LD E,09H
0719   0520 4E          L0056:  LD C,(HL)
0720   0521 23                  INC HL
0721   0522 7E                  LD A,(HL)
0722   0523 23                  INC HL
0723   0524 ED 79               OUT (C),A
0724   0526 1D                  DEC E
0725   0527 20 F7               JR NZ,L0056
0726   0529 DD 21 54 05         LD IX,0554H
0727   052D 01 1E 00            LD BC,001EH
0728   0530 DD 6E 00    L0057:  LD L,(IX+00H)
0729   0533 DD 66 01            LD H,(IX+01H)
0730   0536 DD 5E 02            LD E,(IX+02H)
0731   0539 DD 56 03            LD D,(IX+03H)
0732   053C 73                  LD (HL),E
0733   053D 23                  INC HL
0734   053E 72                  LD (HL),D
0735   053F DD 23               INC IX
0736   0541 DD 23               INC IX
0737   0543 DD 23               INC IX
0738   0545 DD 23               INC IX
0739   0547 0B                  DEC BC
0740   0548 78                  LD A,B
0741   0549 B1                  OR C
0742   054A C2 30 05            JP NZ,L0057
0743   054D 32 0B C0            LD (0C00BH),A
0744   0550 FB                  EI
0745   0551 C3 DE 05            JP L0058
0746   0554 62                  LD H,D
0747   0555 24                  INC H
0748   0556 64          L0064:  LD H,H
0749   0557 00                  NOP
0750   0558 40                  LD B,B
0751   0559 24                  INC H
0752   055A 52                  LD D,D
0753   055B 00                  NOP
0754   055C 42                  LD B,D
0755   055D 24                  INC H
0756   055E 03                  INC BC
0757   055F 00                  NOP
0758   0560 44                  LD B,H
0759   0561 24                  INC H
0760   0562 5C                  LD E,H
0761   0563 00                  NOP
0762   0564 35                  DEC (HL)
0763   0565 24                  INC H
0764   0566 E8                  RET PE
0765   0567 03                  INC BC
0766   0568 37                  SCF
0767   0569 24                  INC H
0768   056A 3A 00 31            LD A,(3100H)
0769   056D 24                  INC H
0770   056E 14                  INC D
0771   056F 00                  NOP
0772   0570 33                  INC SP
0773   0571 24                  INC H
0774   0572 0F                  RRCA
0775   0573 00                  NOP
0776   0574 68                  LD L,B
0777   0575 24                  INC H
0778   0576 5E                  LD E,(HL)
0779   0577 01 39 24            LD BC,2439H
0780   057A DC 00 3A            CALL C,L0059
0781   057D 24                  INC H
0782   057E 1E 00               LD E,00H
0783   0580 3C                  INC A
0784   0581 24                  INC H
0785   0582 C8                  RET Z
0786   0583 00                  NOP
0787   0584 3E 24               LD A,24H
0788   0586 04                  INC B
0789   0587 00                  NOP
0790   0588 46                  LD B,(HL)
0791   0589 24                  INC H
0792   058A FC FF 4A            CALL M,L0060
0793   058D 24                  INC H
0794   058E 0C                  INC C
0795   058F 00                  NOP
0796   0590 48          L0065:  LD C,B
0797   0591 24                  INC H
0798   0592 06 00               LD B,00H
0799   0594 4C                  LD C,H
0800   0595 24                  INC H
0801   0596 05                  DEC B
0802   0597 00                  NOP
0803   0598 4E                  LD C,(HL)
0804   0599 24                  INC H
0805   059A 96                  SUB (HL)
0806   059B 00                  NOP
0807   059C 2D                  DEC L
0808   059D 24                  INC H
0809   059E A5                  AND L
0810   059F 00                  NOP
0811   05A0 2B                  DEC HL
0812   05A1 24                  INC H
0813   05A2 6C                  LD L,H
0814   05A3 00                  NOP
0815   05A4 2F          L0275:  CPL
0816   05A5 24                  INC H
0817   05A6 64                  LD H,H
0818   05A7 00                  NOP
0819   05A8 08                  EX AF,AF'
0820   05A9 24                  INC H
0821   05AA 20 03               JR NZ,L0061
0822   05AC 06 24               LD B,24H
0823   05AE 20 03               JR NZ,L0062
0824   05B0 5E                  LD E,(HL)
0825   05B1 24                  INC H
0826   05B2 02                  LD (BC),A
0827   05B3 00          L0062:  NOP
0828   05B4 60                  LD H,B
0829   05B5 24                  INC H
0830   05B6 28 00               JR Z,L0063
0831   05B8 5C          L0063:  LD E,H
0832   05B9 24                  INC H
0833   05BA C8                  RET Z
0834   05BB 00                  NOP
0835   05BC 97                  SUB A
0836   05BD 35                  DEC (HL)
0837   05BE E7                  RST 20H
0838   05BF 10 95               DJNZ L0064
0839   05C1 34                  INC (HL)
0840   05C2 97                  SUB A
0841   05C3 35                  DEC (HL)
0842   05C4 04                  INC B
0843   05C5 20 C9               JR NZ,L0065
0844   05C7 10 06               DJNZ L0066
0845   05C9 20 2B               JR NZ,L0067
0846   05CB 10 0E               DJNZ L0068
0847   05CD 14                  INC D
0848   05CE 0F                  RRCA
0849   05CF 00          L0066:  NOP
0850   05D0 0C                  INC C
0851   05D1 14                  INC D
0852   05D2 0D                  DEC C
0853   05D3 00                  NOP
0854   05D4 16 00               LD D,00H
0855   05D6 17                  RLA
0856   05D7 78                  LD A,B
0857   05D8 14                  INC D
0858   05D9 00                  NOP
0859   05DA 15                  DEC D
0860   05DB 78          L0068:  LD A,B
0861   05DC 10 22               DJNZ L0069
0862   05DE 21 1A 24    L0058:  LD HL,241AH
0863   05E1 3A 4A 24            LD A,(244AH)
0864   05E4 CB 46               BIT 0,(HL)
0865   05E6 28 03               JR Z,L0070
0866   05E8 3A 48 24            LD A,(2448H)
0867   05EB 32 9F 24    L0070:  LD (249FH),A
0868   05EE 3A 00 A0            LD A,(0A000H)
0869   05F1 47                  LD B,A
0870   05F2 CB 78               BIT 7,B
0871   05F4 20 12               JR NZ,L0071
0872   05F6 3E 01       L0067:  LD A,01H
0873   05F8 CB 70               BIT 6,B
0874   05FA 20 02               JR NZ,L0072
0875   05FC 3E 02               LD A,02H
0876   05FE 32 00 24    L0072:  LD (2400H),A
0877   0601 3E FF               LD A,0FFH
0878   0603 32 9D 35            LD (359DH),A
0879   0606 18 0F               JR L0073
0880   0608 3A 9D 35    L0071:  LD A,(359DH)
0881   060B FE 00               CP 00H
0882   060D 28 08               JR Z,L0073
0883   060F 3E 00               LD A,00H
0884   0611 32 00 24            LD (2400H),A
0885   0614 32 9D 35            LD (359DH),A
0886   0617 3A 00 24    L0073:  LD A,(2400H)
0887   061A FE 05               CP 05H
0888   061C 38 05               JR C,L0074
0889   061E 3E 00               LD A,00H
0890   0620 32 00 24            LD (2400H),A
0891   0623 21 9B 35    L0074:  LD HL,359BH
0892   0626 46                  LD B,(HL)
0893   0627 77                  LD (HL),A
0894   0628 FE 00               CP 00H
0895   062A 28 17               JR Z,L0075
0896   062C B8                  CP B
0897   062D 28 14               JR Z,L0075
0898   062F F5                  PUSH AF
0899   0630 3E FF               LD A,0FFH
0900   0632 32 9C 35            LD (359CH),A
0901   0635 3E 00               LD A,00H
0902   0637 B8                  CP B
0903   0638 3A 62 24            LD A,(2462H)
0904   063B 28 02               JR Z,L0076
0905   063D 3E 0A               LD A,0AH
0906   063F 32 A4 24    L0076:  LD (24A4H),A
0907   0642 F1                  POP AF
0908   0643 CB 27       L0075:  SLA A
0909   0645 5F                  LD E,A
0910   0646 16 00               LD D,00H
0911   0648 DD 21 55 06         LD IX,0655H
0912   064C DD 19               ADD IX,DE
0913   064E DD 6E 00            LD L,(IX+00H)
0914   0651 DD 66 01            LD H,(IX+01H)
0915   0654 E9                  JP (HL)
0916   0655 5F                  LD E,A
0917   0656 06 7D               LD B,7DH
0918   0658 06 84               LD B,84H
0919   065A 06 04               LD B,04H
0920   065C 10 01               DJNZ L0077
0921   065E 10 F3               DJNZ L0078
0922   0660 ED 38               .DB 0EDH 38H ;UNRECOGNIZED
0923   0662 10 E6               DJNZ L0079
0924   0664 EF          L0080:  RST 28H
0925   0665 ED 39               .DB 0EDH 39H ;UNRECOGNIZED
0926   0667 10 FB               DJNZ L0080
0927   0669 32 00 C0            LD (0C000H),A
0928   066C CD BE 10            CALL L0081
0929   066F 3E 00               LD A,00H
0930   0671 32 67 24            LD (2467H),A
0931   0674 32 04 C0            LD (0C004H),A
0932   0677 32 07 C0            LD (0C007H),A
0933   067A C3 DE 05            JP L0058
0934   067D 32 04 C0            LD (0C004H),A
0935   0680 06 00               LD B,00H
0936   0682 18 05               JR L0082
0937   0684 32 0C C0            LD (0C00CH),A
0938   0687 06 01               LD B,01H
0939   0689 3A 00 A0    L0082:  LD A,(0A000H)
0940   068C A0                  AND B
0941   068D 28 05               JR Z,L0083
0942   068F 32 0F C0            LD (0C00FH),A
0943   0692 18 03               JR L0084
0944   0694 32 07 C0    L0083:  LD (0C007H),A
0945   0697 32 08 C0    L0084:  LD (0C008H),A
0946   069A 3A 9C 35            LD A,(359CH)
0947   069D FE 00               CP 00H
0948   069F CA C4 06            JP Z,L0085
0949   06A2 21 00 00            LD HL,0000H
0950   06A5 22 04 24            LD (2404H),HL
0951   06A8 22 06 24            LD (2406H),HL
0952   06AB 22 08 24            LD (2408H),HL
0953   06AE 3E 02               LD A,02H
0954   06B0 32 01 24            LD (2401H),A
0955   06B3 21 61 34            LD HL,3461H
0956   06B6 06 20               LD B,20H
0957   06B8 3A 60 24            LD A,(2460H)
0958   06BB 77          L0086:  LD (HL),A
0959   06BC 23                  INC HL
0960   06BD 10 FC               DJNZ L0086
0961   06BF 3E 00               LD A,00H
0962   06C1 32 9C 35            LD (359CH),A
0963   06C4 3E 0F       L0085:  LD A,0FH
0964   06C6 06 1F               LD B,1FH
0965   06C8 21 D6 27            LD HL,27D6H
0966   06CB 11 9E 28            LD DE,289EH
0967   06CE DD 21 4E 2D         LD IX,2D4EH
0968   06D2 FD 21 16 2E         LD IY,2E16H
0969   06D6 CD DC 0A            CALL L0087
0970   06D9 32 7C 24            LD (247CH),A
0971   06DC 79                  LD A,C
0972   06DD 32 78 24            LD (2478H),A
0973   06E0 7A                  LD A,D
0974   06E1 32 8F 24            LD (248FH),A
0975   06E4 7B                  LD A,E
0976   06E5 32 8D 24            LD (248DH),A
0977   06E8 ED 4B 78 24         LD BC,(2478H)
0978   06EC CD EA 0D            CALL L0088
0979   06EF ED 43 14 24         LD (2414H),BC
0980   06F3 2A 12 24            LD HL,(2412H)
0981   06F6 ED 5B 14 24         LD DE,(2414H)
0982   06FA 37                  SCF
0983   06FB 3F                  CCF
0984   06FC ED 52               SBC HL,DE
0985   06FE 30 04               JR NC,L0089
0986   0700 ED 5B 12 24         LD DE,(2412H)
0987   0704 ED 53 04 24 L0089:  LD (2404H),DE
0988   0708 ED 4B 8D 24         LD BC,(248DH)
0989   070C 06 00               LD B,00H
0990   070E ED 5B 31 24         LD DE,(2431H)
0991   0712 CD 10 0A            CALL L0090
0992   0715 DD 21 08 24         LD IX,2408H
0993   0719 FD 21 9F 35         LD IY,359FH
0994   071D CD D1 09            CALL L0091
0995   0720 DD 21 16 2E         LD IX,2E16H
0996   0724 ED 4B 8D 24         LD BC,(248DH)
0997   0728 CD 05 0F            CALL L0092
0998   072B 4F                  LD C,A
0999   072C 06 00               LD B,00H
1000   072E ED 5B 31 24         LD DE,(2431H)
1001   0732 CD 10 0A            CALL L0090
1002   0735 ED 5B 2F 24         LD DE,(242FH)
1003   0739 19                  ADD HL,DE
1004   073A 22 0C 24            LD (240CH),HL
1005   073D 3E 0E               LD A,0EH
1006   073F 06 1E               LD B,1EH
1007   0741 21 66 29            LD HL,2966H
1008   0744 11 2E 2A            LD DE,2A2EH
1009   0747 DD 21 F6 2A         LD IX,2AF6H
1010   074B FD 21 BE 2B         LD IY,2BBEH
1011   074F CD DC 0A            CALL L0087
1012   0752 32 7E 24            LD (247EH),A
1013   0755 79                  LD A,C
1014   0756 32 7A 24            LD (247AH),A
1015   0759 7A                  LD A,D
1016   075A 32 93 24            LD (2493H),A
1017   075D 7B                  LD A,E
1018   075E 32 91 24            LD (2491H),A
1019   0761 ED 4B 7A 24         LD BC,(247AH)
1020   0765 CD EA 0D            CALL L0088
1021   0768 ED 43 12 24         LD (2412H),BC
1022   076C 2A 12 24            LD HL,(2412H)
1023   076F ED 5B 14 24         LD DE,(2414H)
1024   0773 37                  SCF
1025   0774 3F                  CCF
1026   0775 ED 52               SBC HL,DE
1027   0777 30 04               JR NC,L0093
1028   0779 ED 5B 12 24         LD DE,(2412H)
1029   077D ED 53 04 24 L0093:  LD (2404H),DE
1030   0781 DD 21 9E 28         LD IX,289EH
1031   0785 ED 4B 78 24         LD BC,(2478H)
1032   0789 CD 05 0F            CALL L0092
1033   078C 4F                  LD C,A
1034   078D 06 00               LD B,00H
1035   078F ED 5B 37 24         LD DE,(2437H)
1036   0793 CD 10 0A            CALL L0090
1037   0796 ED 5B 2B 24         LD DE,(242BH)
1038   079A 19                  ADD HL,DE
1039   079B 22 82 24            LD (2482H),HL
1040   079E DD 21 2E 2A         LD IX,2A2EH
1041   07A2 ED 4B 7A 24         LD BC,(247AH)
1042   07A6 CD 05 0F            CALL L0092
1043   07A9 4F                  LD C,A
1044   07AA 06 00               LD B,00H
1045   07AC ED 5B 37 24         LD DE,(2437H)
1046   07B0 CD 10 0A            CALL L0090
1047   07B3 ED 5B 2B 24         LD DE,(242BH)
1048   07B7 19                  ADD HL,DE
1049   07B8 22 84 24            LD (2484H),HL
1050   07BB ED 5B 82 24         LD DE,(2482H)
1051   07BF CD 04 0A            CALL L0094
1052   07C2 30 22               JR NC,L0095
1053   07C4 EB                  EX DE,HL
1054   07C5 CD 04 0A            CALL L0094
1055   07C8 30 1C               JR NC,L0095
1056   07CA ED 52               SBC HL,DE
1057   07CC CD 8C 0E            CALL L0096
1058   07CF 01 32 00            LD BC,0032H
1059   07D2 37                  SCF
1060   07D3 3F                  CCF
1061   07D4 ED 42               SBC HL,BC
1062   07D6 30 0E               JR NC,L0095
1063   07D8 ED 5B 84 24         LD DE,(2484H)
1064   07DC 2A 82 24            LD HL,(2482H)
1065   07DF 19                  ADD HL,DE
1066   07E0 CB 2C               SRA H
1067   07E2 CB 1D               RR L
1068   07E4 18 03               JR L0097
1069   07E6 21 00 00    L0095:  LD HL,0000H
1070   07E9 22 0E 24    L0097:  LD (240EH),HL
1071   07EC ED 4B 91 24         LD BC,(2491H)
1072   07F0 06 00               LD B,00H
1073   07F2 ED 5B 31 24         LD DE,(2431H)
1074   07F6 CD 10 0A            CALL L0090
1075   07F9 DD 21 06 24         LD IX,2406H
1076   07FD FD 21 A3 35         LD IY,35A3H
1077   0801 CD D1 09            CALL L0091
1078   0804 DD 21 BE 2B         LD IX,2BBEH
1079   0808 ED 4B 91 24         LD BC,(2491H)
1080   080C CD 05 0F            CALL L0092
1081   080F 4F                  LD C,A
1082   0810 06 00               LD B,00H
1083   0812 ED 5B 31 24         LD DE,(2431H)
1084   0816 CD 10 0A            CALL L0090
1085   0819 ED 5B 2F 24         LD DE,(242FH)
1086   081D 19                  ADD HL,DE
1087   081E 22 0A 24            LD (240AH),HL
1088   0821 3A 7C 24            LD A,(247CH)
1089   0824 4F                  LD C,A
1090   0825 3A 7E 24            LD A,(247EH)
1091   0828 B9                  CP C
1092   0829 38 01               JR C,L0098
1093   082B 4F                  LD C,A
1094   082C 06 00       L0098:  LD B,00H
1095   082E ED 5B 37 24         LD DE,(2437H)
1096   0832 CD 10 0A            CALL L0090
1097   0835 ED 5B 02 24         LD DE,(2402H)
1098   0839 19                  ADD HL,DE
1099   083A CB 3C               SRL H
1100   083C CB 1D               RR L
1101   083E 22 02 24            LD (2402H),HL
1102   0841 DD 21 A1 24         LD IX,24A1H
1103   0845 FD 21 00 A0         LD IY,0A000H
1104   0849 2A 04 24            LD HL,(2404H)
1105   084C ED 5B 68 24         LD DE,(2468H)
1106   0850 37                  SCF
1107   0851 ED 52               SBC HL,DE
1108   0853 DD CB 00 16         RL (IX+00H)
1109   0857 DD CB 00 AE         RES 5,(IX+00H)
1110   085B DD 7E 00            LD A,(IX+00H)
1111   085E FE 00               CP 00H
1112   0860 28 0C               JR Z,L0099
1113   0862 DD CB 00 46         BIT 0,(IX+00H)
1114   0866 28 25               JR Z,L0100
1115   0868 E6 1E               AND 1EH
1116   086A 28 21               JR Z,L0100
1117   086C 18 0B               JR L0101
1118   086E FD CB 00 6E L0099:  BIT 5,(IY+00H)
1119   0872 C4 BE 10            CALL NZ,L0081
1120   0875 06 00               LD B,00H
1121   0877 18 09               JR L0102
1122   0879 FD CB 00 6E L0101:  BIT 5,(IY+00H)
1123   087D C4 8C 10            CALL NZ,L0103
1124   0880 06 01               LD B,01H
1125   0882 3A 01 24    L0102:  LD A,(2401H)
1126   0885 FE 02               CP 02H
1127   0887 30 04               JR NC,L0100
1128   0889 78                  LD A,B
1129   088A 32 01 24            LD (2401H),A
1130   088D FD CB 00 6E L0100:  BIT 5,(IY+00H)
1131   0891 20 0E               JR NZ,L0104
1132   0893 DD CB 00 46         BIT 0,(IX+00H)
1133   0897 28 05               JR Z,L0105
1134   0899 CD 8C 10            CALL L0103
1135   089C 18 03               JR L0104
1136   089E CD BE 10    L0105:  CALL L0081
1137   08A1 ED 4B 7A 24 L0104:  LD BC,(247AH)
1138   08A5 ED 5B 78 24         LD DE,(2478H)
1139   08A9 CD 14 0D            CALL L0106
1140   08AC DD 22 27 24         LD (2427H),IX
1141   08B0 FD 22 29 24         LD (2429H),IY
1142   08B4 22 25 24            LD (2425H),HL
1143   08B7 ED 53 23 24         LD (2423H),DE
1144   08BB 2A 14 24            LD HL,(2414H)
1145   08BE ED 5B 12 24         LD DE,(2412H)
1146   08C2 37                  SCF
1147   08C3 3F                  CCF
1148   08C4 ED 52               SBC HL,DE
1149   08C6 28 2C               JR Z,L0107
1150   08C8 3A 00 24            LD A,(2400H)
1151   08CB FE 02               CP 02H
1152   08CD 20 04               JR NZ,L0108
1153   08CF 7C                  LD A,H
1154   08D0 EE 80               XOR 80H
1155   08D2 67                  LD H,A
1156   08D3 CB 7C       L0108:  BIT 7,H
1157   08D5 20 0B               JR NZ,L0109
1158   08D7 2A 08 24            LD HL,(2408H)
1159   08DA ED 5B 12 24         LD DE,(2412H)
1160   08DE 3E FF               LD A,0FFH
1161   08E0 18 09               JR L0110
1162   08E2 2A 06 24    L0109:  LD HL,(2406H)
1163   08E5 ED 5B 14 24         LD DE,(2414H)
1164   08E9 3E 01               LD A,01H
1165   08EB ED 4B 2D 24 L0110:  LD BC,(242DH)
1166   08EF 09                  ADD HL,BC
1167   08F0 ED 52               SBC HL,DE
1168   08F2 30 02               JR NC,L0111
1169   08F4 3E 00       L0107:  LD A,00H
1170   08F6 32 10 24    L0111:  LD (2410H),A
1171   08F9 21 9F 24            LD HL,249FH
1172   08FC 3A 4A 24            LD A,(244AH)
1173   08FF BE                  CP (HL)
1174   0900 77                  LD (HL),A
1175   0901 28 4A               JR Z,L0112
1176   0903 DD 21 9E 28         LD IX,289EH
1177   0907 ED 4B 78 24         LD BC,(2478H)
1178   090B CD 0E 0F            CALL L0113
1179   090E 32 88 24            LD (2488H),A
1180   0911 16 00               LD D,00H
1181   0913 5F                  LD E,A
1182   0914 D5                  PUSH DE
1183   0915 DD 21 2E 2A         LD IX,2A2EH
1184   0919 ED 4B 7A 24         LD BC,(247AH)
1185   091D CD 0E 0F            CALL L0113
1186   0920 32 8A 24            LD (248AH),A
1187   0923 06 00               LD B,00H
1188   0925 4F                  LD C,A
1189   0926 D1                  POP DE
1190   0927 CD 14 0D            CALL L0106
1191   092A DD 22 1F 24         LD (241FH),IX
1192   092E FD 22 21 24         LD (2421H),IY
1193   0932 22 1D 24            LD (241DH),HL
1194   0935 ED 53 1B 24         LD (241BH),DE
1195   0939 7C                  LD A,H
1196   093A B5                  OR L
1197   093B 20 08               JR NZ,L0114
1198   093D 3A 8C 24            LD A,(248CH)
1199   0940 3C                  INC A
1200   0941 FE 03               CP 03H
1201   0943 20 05               JR NZ,L0115
1202   0945 3E 00       L0114:  LD A,00H
1203   0947 32 1A 24            LD (241AH),A
1204   094A 32 8C 24    L0115:  LD (248CH),A
1205   094D 3A 6E 30    L0112:  LD A,(306EH)
1206   0950 FE 00               CP 00H
1207   0952 28 7A               JR Z,L0116
1208   0954 47                  LD B,A
1209   0955 3A 9E 35            LD A,(359EH)
1210   0958 B8                  CP B
1211   0959 38 38               JR C,L0117
1212   095B 21 9E 28            LD HL,289EH
1213   095E 11 6F 30            LD DE,306FH
1214   0961 CD F9 09            CALL L0118
1215   0964 21 2E 2A            LD HL,2A2EH
1216   0967 11 37 31            LD DE,3137H
1217   096A CD F9 09            CALL L0118
1218   096D 3A 00 A0            LD A,(0A000H)
1219   0970 CB 47               BIT 0,A
1220   0972 3E 0E               LD A,0EH
1221   0974 28 02               JR Z,L0119
1222   0976 3E 1F               LD A,1FH
1223   0978 47          L0119:  LD B,A
1224   0979 3E 0F               LD A,0FH
1225   097B 21 C7 32            LD HL,32C7H
1226   097E 11 8F 33            LD DE,338FH
1227   0981 DD 21 0E 27         LD IX,270EH
1228   0985 CD 2A 0A            CALL L0120
1229   0988 21 8F 33            LD HL,338FH
1230   098B 11 FF 31            LD DE,31FFH
1231   098E CD F9 09            CALL L0118
1232   0991 18 31               JR L0121
1233   0993 01 C8 00    L0117:  LD BC,00C8H
1234   0996 21 9E 28            LD HL,289EH
1235   0999 11 6F 30            LD DE,306FH
1236   099C ED B0               LDIR
1237   099E 01 C8 00            LD BC,00C8H
1238   09A1 21 2E 2A            LD HL,2A2EH
1239   09A4 11 37 31            LD DE,3137H
1240   09A7 ED B0               LDIR
1241   09A9 3A 00 A0            LD A,(0A000H)
1242   09AC CB 47               BIT 0,A
1243   09AE 3E 0E               LD A,0EH
1244   09B0 28 02               JR Z,L0122
1245   09B2 3E 1F               LD A,1FH
1246   09B4 47          L0122:  LD B,A
1247   09B5 3E 0F               LD A,0FH
1248   09B7 21 C7 32            LD HL,32C7H
1249   09BA 11 FF 31            LD DE,31FFH
1250   09BD DD 21 0E 27         LD IX,270EH
1251   09C1 CD 2A 0A            CALL L0120
1252   09C4 3A 6E 30    L0121:  LD A,(306EH)
1253   09C7 3D                  DEC A
1254   09C8 32 6E 30            LD (306EH),A
1255   09CB 32 9E 35            LD (359EH),A
1256   09CE C3 DE 05    L0116:  JP L0058
1257   09D1 3E 02       L0091:  LD A,02H
1258   09D3 4D                  LD C,L
1259   09D4 44                  LD B,H
1260   09D5 FD 5E 00    L0124:  LD E,(IY+00H)
1261   09D8 FD 56 01            LD D,(IY+01H)
1262   09DB FD 75 00            LD (IY+00H),L
1263   09DE FD 74 01            LD (IY+01H),H
1264   09E1 EB                  EX DE,HL
1265   09E2 E5                  PUSH HL
1266   09E3 37                  SCF
1267   09E4 ED 42               SBC HL,BC
1268   09E6 E1                  POP HL
1269   09E7 30 02               JR NC,L0123
1270   09E9 4D                  LD C,L
1271   09EA 44                  LD B,H
1272   09EB FD 23       L0123:  INC IY
1273   09ED FD 23               INC IY
1274   09EF 3D                  DEC A
1275   09F0 20 E3               JR NZ,L0124
1276   09F2 DD 71 00            LD (IX+00H),C
1277   09F5 DD 70 01            LD (IX+01H),B
1278   09F8 C9                  RET
1279   09F9 06 C8       L0118:  LD B,0C8H
1280   09FB 1A          L0125:  LD A,(DE)
1281   09FC 86                  ADD A,(HL)
1282   09FD 1F                  RRA
1283   09FE 12                  LD (DE),A
1284   09FF 13                  INC DE
1285   0A00 23                  INC HL
1286   0A01 10 F8               DJNZ L0125
1287   0A03 C9                  RET
1288   0A04 D5          L0094:  PUSH DE
1289   0A05 E5                  PUSH HL
1290   0A06 11 58 02            LD DE,0258H
1291   0A09 37                  SCF
1292   0A0A 3F                  CCF
1293   0A0B ED 52               SBC HL,DE
1294   0A0D E1                  POP HL
1295   0A0E D1                  POP DE
1296   0A0F C9                  RET
1297   0A10 78          L0090:  LD A,B
1298   0A11 B1                  OR C
1299   0A12 28 12               JR Z,L0126
1300   0A14 D5                  PUSH DE
1301   0A15 ED 5B 35 24         LD DE,(2435H)
1302   0A19 CD A1 12            CALL L0127
1303   0A1C DD E5               PUSH IX
1304   0A1E D1                  POP DE
1305   0A1F 65                  LD H,L
1306   0A20 6A                  LD L,D
1307   0A21 D1                  POP DE
1308   0A22 19                  ADD HL,DE
1309   0A23 F2 29 0A            JP P,L0128
1310   0A26 21 00 00    L0126:  LD HL,0000H
1311   0A29 C9          L0128:  RET
1312   0A2A 32 A7 35    L0120:  LD (35A7H),A
1313   0A2D 78                  LD A,B
1314   0A2E 32 98 24            LD (2498H),A
1315   0A31 3E 00               LD A,00H
1316   0A33 32 99 24            LD (2499H),A
1317   0A36 32 B8 35            LD (35B8H),A
1318   0A39 22 A8 35            LD (35A8H),HL
1319   0A3C ED 53 AA 35         LD (35AAH),DE
1320   0A40 DD 22 AC 35         LD (35ACH),IX
1321   0A44 3A A6 24            LD A,(24A6H)
1322   0A47 C6 0F               ADD A,0FH
1323   0A49 32 A6 24            LD (24A6H),A
1324   0A4C E6 7F               AND 7FH
1325   0A4E C6 1E               ADD A,1EH
1326   0A50 32 C4 35            LD (35C4H),A
1327   0A53 3A A7 35            LD A,(35A7H)
1328   0A56 32 97 24            LD (2497H),A
1329   0A59 2A A8 35            LD HL,(35A8H)
1330   0A5C 22 9A 24            LD (249AH),HL
1331   0A5F CD E0 0F            CALL L0129
1332   0A62 3E 00               LD A,00H
1333   0A64 32 97 24            LD (2497H),A
1334   0A67 21 B6 24            LD HL,24B6H
1335   0A6A 22 9A 24            LD (249AH),HL
1336   0A6D CD E0 0F            CALL L0129
1337   0A70 3A A7 35            LD A,(35A7H)
1338   0A73 32 97 24            LD (2497H),A
1339   0A76 21 46 26            LD HL,2646H
1340   0A79 22 9A 24            LD (249AH),HL
1341   0A7C CD E0 0F            CALL L0129
1342   0A7F FD 21 B6 24         LD IY,24B6H
1343   0A83 DD 2A AC 35         LD IX,(35ACH)
1344   0A87 11 A6 2F            LD DE,2FA6H
1345   0A8A 21 8A 0F            LD HL,0F8AH
1346   0A8D CD 5B 0F            CALL L0130
1347   0A90 21 B6 24            LD HL,24B6H
1348   0A93 ED 5B AC 35         LD DE,(35ACH)
1349   0A97 01 C8 00            LD BC,00C8H
1350   0A9A ED B0               LDIR
1351   0A9C DD 21 A6 2F         LD IX,2FA6H
1352   0AA0 FD 21 B6 24         LD IY,24B6H
1353   0AA4 CD 97 0F            CALL L0131
1354   0AA7 DD 2A A8 35         LD IX,(35A8H)
1355   0AAB FD 21 46 26         LD IY,2646H
1356   0AAF 21 B6 24            LD HL,24B6H
1357   0AB2 11 A6 2F            LD DE,2FA6H
1358   0AB5 CD 5B 0F            CALL L0130
1359   0AB8 DD 21 A6 2F         LD IX,2FA6H
1360   0ABC ED 5B AA 35         LD DE,(35AAH)
1361   0AC0 CD 16 0C            CALL L0132
1362   0AC3 21 B6 24            LD HL,24B6H
1363   0AC6 CD B7 0E            CALL L0133
1364   0AC9 F5                  PUSH AF
1365   0ACA DD 2A AA 35         LD IX,(35AAH)
1366   0ACE FD 21 B6 24         LD IY,24B6H
1367   0AD2 ED 5B 39 24         LD DE,(2439H)
1368   0AD6 CD E0 0E            CALL L0134
1369   0AD9 47                  LD B,A
1370   0ADA F1                  POP AF
1371   0ADB C9                  RET
1372   0ADC 32 AE 35    L0087:  LD (35AEH),A
1373   0ADF 78                  LD A,B
1374   0AE0 32 B3 35            LD (35B3H),A
1375   0AE3 3E 00               LD A,00H
1376   0AE5 32 99 24            LD (2499H),A
1377   0AE8 32 B8 35            LD (35B8H),A
1378   0AEB 22 AF 35            LD (35AFH),HL
1379   0AEE ED 53 B1 35         LD (35B1H),DE
1380   0AF2 DD 22 B4 35         LD (35B4H),IX
1381   0AF6 FD 22 B6 35         LD (35B6H),IY
1382   0AFA 3A A6 24            LD A,(24A6H)
1383   0AFD C6 0F               ADD A,0FH
1384   0AFF 32 A6 24            LD (24A6H),A
1385   0B02 E6 7F               AND 7FH
1386   0B04 C6 1E               ADD A,1EH
1387   0B06 32 C4 35            LD (35C4H),A
1388   0B09 3A AE 35            LD A,(35AEH)
1389   0B0C 32 97 24            LD (2497H),A
1390   0B0F 32 98 24            LD (2498H),A
1391   0B12 2A AF 35            LD HL,(35AFH)
1392   0B15 22 9A 24            LD (249AH),HL
1393   0B18 CD E0 0F            CALL L0129
1394   0B1B 3A B3 35            LD A,(35B3H)
1395   0B1E 32 97 24            LD (2497H),A
1396   0B21 32 98 24            LD (2498H),A
1397   0B24 2A B4 35            LD HL,(35B4H)
1398   0B27 22 9A 24            LD (249AH),HL
1399   0B2A 3E 32               LD A,32H
1400   0B2C 32 C4 35            LD (35C4H),A
1401   0B2F CD E0 0F            CALL L0129
1402   0B32 3A AE 35            LD A,(35AEH)
1403   0B35 32 97 24            LD (2497H),A
1404   0B38 32 98 24            LD (2498H),A
1405   0B3B 21 46 26            LD HL,2646H
1406   0B3E 22 9A 24            LD (249AH),HL
1407   0B41 CD E0 0F            CALL L0129
1408   0B44 DD 2A AF 35         LD IX,(35AFH)
1409   0B48 FD 21 46 26         LD IY,2646H
1410   0B4C 21 B6 24            LD HL,24B6H
1411   0B4F CD DF 0B            CALL L0135
1412   0B52 DD 2A AF 35         LD IX,(35AFH)
1413   0B56 FD 21 46 26         LD IY,2646H
1414   0B5A 21 B6 24            LD HL,24B6H
1415   0B5D 11 A6 2F            LD DE,2FA6H
1416   0B60 CD 5B 0F            CALL L0130
1417   0B63 DD 21 A6 2F         LD IX,2FA6H
1418   0B67 ED 5B B1 35         LD DE,(35B1H)
1419   0B6B CD 16 0C            CALL L0132
1420   0B6E 3A B3 35            LD A,(35B3H)
1421   0B71 32 97 24            LD (2497H),A
1422   0B74 32 98 24            LD (2498H),A
1423   0B77 21 0E 27            LD HL,270EH
1424   0B7A 22 9A 24            LD (249AH),HL
1425   0B7D CD E0 0F            CALL L0129
1426   0B80 DD 2A B4 35         LD IX,(35B4H)
1427   0B84 FD 21 0E 27         LD IY,270EH
1428   0B88 21 7E 25            LD HL,257EH
1429   0B8B CD DF 0B            CALL L0135
1430   0B8E DD 2A B4 35         LD IX,(35B4H)
1431   0B92 FD 21 0E 27         LD IY,270EH
1432   0B96 21 7E 25            LD HL,257EH
1433   0B99 11 A6 2F            LD DE,2FA6H
1434   0B9C CD 5B 0F            CALL L0130
1435   0B9F DD 21 A6 2F         LD IX,2FA6H
1436   0BA3 ED 5B B6 35         LD DE,(35B6H)
1437   0BA7 CD 16 0C            CALL L0132
1438   0BAA 21 B6 24            LD HL,24B6H
1439   0BAD CD B7 0E            CALL L0133
1440   0BB0 F5                  PUSH AF
1441   0BB1 DD 2A B1 35         LD IX,(35B1H)
1442   0BB5 FD 21 B6 24         LD IY,24B6H
1443   0BB9 ED 5B 39 24         LD DE,(2439H)
1444   0BBD CD E0 0E            CALL L0134
1445   0BC0 F5                  PUSH AF
1446   0BC1 21 7E 25            LD HL,257EH
1447   0BC4 CD B7 0E            CALL L0133
1448   0BC7 F5                  PUSH AF
1449   0BC8 DD 2A B6 35         LD IX,(35B6H)
1450   0BCC FD 21 7E 25         LD IY,257EH
1451   0BD0 ED 5B 39 24         LD DE,(2439H)
1452   0BD4 CD E0 0E            CALL L0134
1453   0BD7 5F                  LD E,A
1454   0BD8 F1                  POP AF
1455   0BD9 57                  LD D,A
1456   0BDA F1                  POP AF
1457   0BDB 4F                  LD C,A
1458   0BDC F1                  POP AF
1459   0BDD 47                  LD B,A
1460   0BDE C9                  RET
1461   0BDF 3A 60 24    L0135:  LD A,(2460H)
1462   0BE2 47                  LD B,A
1463   0BE3 0E 00               LD C,00H
1464   0BE5 3A 5C 24            LD A,(245CH)
1465   0BE8 DD BE 00    L0137:  CP (IX+00H)
1466   0BEB 30 0F               JR NC,L0136
1467   0BED FD BE 00            CP (IY+00H)
1468   0BF0 30 0A               JR NC,L0136
1469   0BF2 36 00               LD (HL),00H
1470   0BF4 23                  INC HL
1471   0BF5 DD 23               INC IX
1472   0BF7 FD 23               INC IY
1473   0BF9 0C                  INC C
1474   0BFA 10 EC               DJNZ L0137
1475   0BFC 3E C8       L0136:  LD A,0C8H
1476   0BFE 91                  SUB C
1477   0BFF 47                  LD B,A
1478   0C00 3E 00               LD A,00H
1479   0C02 DD BE 00    L0139:  CP (IX+00H)
1480   0C05 30 06               JR NC,L0138
1481   0C07 FD BE 00            CP (IY+00H)
1482   0C0A 30 01               JR NC,L0138
1483   0C0C 3C                  INC A
1484   0C0D 77          L0138:  LD (HL),A
1485   0C0E DD 23               INC IX
1486   0C10 FD 23               INC IY
1487   0C12 23                  INC HL
1488   0C13 10 ED               DJNZ L0139
1489   0C15 C9                  RET
1490   0C16 ED 4B 98 24 L0132:  LD BC,(2498H)
1491   0C1A 06 00               LD B,00H
1492   0C1C 3A 97 24            LD A,(2497H)
1493   0C1F B9                  CP C
1494   0C20 C2 B4 0C            JP NZ,L0140
1495   0C23 EE 0F               XOR 0FH
1496   0C25 E6 1F               AND 1FH
1497   0C27 4F                  LD C,A
1498   0C28 FD 21 61 34         LD IY,3461H
1499   0C2C FD 09               ADD IY,BC
1500   0C2E 21 D4 0C            LD HL,0CD4H
1501   0C31 3A 00 A0            LD A,(0A000H)
1502   0C34 CB 47               BIT 0,A
1503   0C36 20 03               JR NZ,L0141
1504   0C38 21 F4 0C            LD HL,0CF4H
1505   0C3B 09          L0141:  ADD HL,BC
1506   0C3C 7E                  LD A,(HL)
1507   0C3D 32 B9 35            LD (35B9H),A
1508   0C40 06 00               LD B,00H
1509   0C42 3A 5E 24    L0144:  LD A,(245EH)
1510   0C45 B8                  CP B
1511   0C46 38 11               JR C,L0142
1512   0C48 3A 5C 24            LD A,(245CH)
1513   0C4B DD BE 00            CP (IX+00H)
1514   0C4E 30 56               JR NC,L0143
1515   0C50 3E 00               LD A,00H
1516   0C52 12                  LD (DE),A
1517   0C53 DD 23               INC IX
1518   0C55 13                  INC DE
1519   0C56 04                  INC B
1520   0C57 18 E9               JR L0144
1521   0C59 3A 01 24    L0142:  LD A,(2401H)
1522   0C5C 21 B9 35            LD HL,35B9H
1523   0C5F BE                  CP (HL)
1524   0C60 20 05               JR NZ,L0145
1525   0C62 3E 00               LD A,00H
1526   0C64 32 01 24            LD (2401H),A
1527   0C67 2E FF       L0145:  LD L,0FFH
1528   0C69 FD 7E 00    L0151:  LD A,(IY+00H)
1529   0C6C B8                  CP B
1530   0C6D 30 0B               JR NC,L0146
1531   0C6F 7D                  LD A,L
1532   0C70 CB 3D               SRL L
1533   0C72 CB 3D               SRL L
1534   0C74 95                  SUB L
1535   0C75 30 02               JR NC,L0147
1536   0C77 3E 00               LD A,00H
1537   0C79 6F          L0147:  LD L,A
1538   0C7A FD 7E 00    L0146:  LD A,(IY+00H)
1539   0C7D C6 0F               ADD A,0FH
1540   0C7F B8                  CP B
1541   0C80 38 32               JR C,L0140
1542   0C82 7D                  LD A,L
1543   0C83 DD BE 00            CP (IX+00H)
1544   0C86 38 03               JR C,L0148
1545   0C88 DD 6E 00            LD L,(IX+00H)
1546   0C8B 3A 5C 24    L0148:  LD A,(245CH)
1547   0C8E DD BE 00            CP (IX+00H)
1548   0C91 30 04               JR NC,L0149
1549   0C93 78                  LD A,B
1550   0C94 32 BC 35            LD (35BCH),A
1551   0C97 DD 7E 00    L0149:  LD A,(IX+00H)
1552   0C9A 95                  SUB L
1553   0C9B 30 02               JR NC,L0150
1554   0C9D 3E 00               LD A,00H
1555   0C9F 12          L0150:  LD (DE),A
1556   0CA0 DD 23               INC IX
1557   0CA2 13                  INC DE
1558   0CA3 04                  INC B
1559   0CA4 18 C3               JR L0151
1560   0CA6 3A B9 35    L0143:  LD A,(35B9H)
1561   0CA9 32 01 24            LD (2401H),A
1562   0CAC 3E FF               LD A,0FFH
1563   0CAE 32 B8 35            LD (35B8H),A
1564   0CB1 32 BC 35            LD (35BCH),A
1565   0CB4 3E C8       L0140:  LD A,0C8H
1566   0CB6 90                  SUB B
1567   0CB7 4F                  LD C,A
1568   0CB8 06 00               LD B,00H
1569   0CBA DD E5               PUSH IX
1570   0CBC E1                  POP HL
1571   0CBD ED B0               LDIR
1572   0CBF 3A A4 24            LD A,(24A4H)
1573   0CC2 FE 00               CP 00H
1574   0CC4 20 0D               JR NZ,L0152
1575   0CC6 3A BC 35            LD A,(35BCH)
1576   0CC9 3C                  INC A
1577   0CCA 3C                  INC A
1578   0CCB FD BE 00            CP (IY+00H)
1579   0CCE 30 03               JR NC,L0152
1580   0CD0 FD 35 00            DEC (IY+00H)
1581   0CD3 C9          L0152:  RET
1582   0CD4 02                  LD (BC),A
1583   0CD5 FF                  RST 38H
1584   0CD6 FF                  RST 38H
1585   0CD7 FF                  RST 38H
1586   0CD8 FF                  RST 38H
1587   0CD9 FF                  RST 38H
1588   0CDA FF                  RST 38H
1589   0CDB FF                  RST 38H
1590   0CDC FF                  RST 38H
1591   0CDD FF                  RST 38H
1592   0CDE FF                  RST 38H
1593   0CDF FF                  RST 38H
1594   0CE0 FF                  RST 38H
1595   0CE1 FF                  RST 38H
1596   0CE2 FF                  RST 38H
1597   0CE3 FF                  RST 38H
1598   0CE4 03                  INC BC
1599   0CE5 FF                  RST 38H
1600   0CE6 FF                  RST 38H
1601   0CE7 FF                  RST 38H
1602   0CE8 FF                  RST 38H
1603   0CE9 FF                  RST 38H
1604   0CEA FF                  RST 38H
1605   0CEB FF                  RST 38H
1606   0CEC FF                  RST 38H
1607   0CED FF                  RST 38H
1608   0CEE FF                  RST 38H
1609   0CEF FF                  RST 38H
1610   0CF0 FF                  RST 38H
1611   0CF1 FF                  RST 38H
1612   0CF2 FF                  RST 38H
1613   0CF3 FF                  RST 38H
1614   0CF4 02                  LD (BC),A
1615   0CF5 03                  INC BC
1616   0CF6 FF                  RST 38H
1617   0CF7 FF                  RST 38H
1618   0CF8 FF                  RST 38H
1619   0CF9 FF                  RST 38H
1620   0CFA FF                  RST 38H
1621   0CFB FF                  RST 38H
1622   0CFC FF                  RST 38H
1623   0CFD FF                  RST 38H
1624   0CFE FF                  RST 38H
1625   0CFF FF                  RST 38H
1626   0D00 FF                  RST 38H
1627   0D01 FF                  RST 38H
1628   0D02 FF                  RST 38H
1629   0D03 FF                  RST 38H
1630   0D04 04                  INC B
1631   0D05 05                  DEC B
1632   0D06 FF                  RST 38H
1633   0D07 FF                  RST 38H
1634   0D08 FF                  RST 38H
1635   0D09 FF                  RST 38H
1636   0D0A FF                  RST 38H
1637   0D0B FF                  RST 38H
1638   0D0C FF                  RST 38H
1639   0D0D FF                  RST 38H
1640   0D0E FF                  RST 38H
1641   0D0F FF                  RST 38H
1642   0D10 FF                  RST 38H
1643   0D11 FF                  RST 38H
1644   0D12 FF                  RST 38H
1645   0D13 FF                  RST 38H
1646   0D14 CD E0 0D    L0106:  CALL L0153
1647   0D17 DA D1 0D            JP C,L0154
1648   0D1A CD EA 0D            CALL L0088
1649   0D1D CD F8 0D            CALL L0155
1650   0D20 22 C0 35            LD (35C0H),HL
1651   0D23 DD 22 BE 35         LD (35BEH),IX
1652   0D27 42                  LD B,D
1653   0D28 4B                  LD C,E
1654   0D29 CD E0 0D            CALL L0153
1655   0D2C DA D1 0D            JP C,L0154
1656   0D2F CD EA 0D            CALL L0088
1657   0D32 CD F8 0D            CALL L0155
1658   0D35 E5                  PUSH HL
1659   0D36 DD E5               PUSH IX
1660   0D38 E1                  POP HL
1661   0D39 ED 5B BE 35         LD DE,(35BEH)
1662   0D3D 37                  SCF
1663   0D3E 3F                  CCF
1664   0D3F ED 52               SBC HL,DE
1665   0D41 EB                  EX DE,HL
1666   0D42 E1                  POP HL
1667   0D43 ED 4B C0 35         LD BC,(35C0H)
1668   0D47 ED 42               SBC HL,BC
1669   0D49 ED 4B 2D 24         LD BC,(242DH)
1670   0D4D CB 21               SLA C
1671   0D4F CB 10               RL B
1672   0D51 CD CD 12            CALL L0156
1673   0D54 ED 53 C2 35         LD (35C2H),DE
1674   0D58 ED 4B 2D 24         LD BC,(242DH)
1675   0D5C CB 28               SRA B
1676   0D5E CB 19               RR C
1677   0D60 62                  LD H,D
1678   0D61 6B                  LD L,E
1679   0D62 37                  SCF
1680   0D63 3F                  CCF
1681   0D64 ED 42               SBC HL,BC
1682   0D66 44                  LD B,H
1683   0D67 4D                  LD C,L
1684   0D68 CD F8 0D            CALL L0155
1685   0D6B E5                  PUSH HL
1686   0D6C DD E5               PUSH IX
1687   0D6E D1                  POP DE
1688   0D6F 2A BE 35            LD HL,(35BEH)
1689   0D72 37                  SCF
1690   0D73 3F                  CCF
1691   0D74 ED 52               SBC HL,DE
1692   0D76 E5                  PUSH HL
1693   0D77 FD E1               POP IY
1694   0D79 2A C0 35            LD HL,(35C0H)
1695   0D7C C1                  POP BC
1696   0D7D ED 42               SBC HL,BC
1697   0D7F DA D1 0D            JP C,L0154
1698   0D82 CD 0D 13            CALL L0157
1699   0D85 FD 2A 2B 24         LD IY,(242BH)
1700   0D89 FD 09               ADD IY,BC
1701   0D8B 2A C2 35            LD HL,(35C2H)
1702   0D8E CD 8C 0E            CALL L0096
1703   0D91 ED 5B 2D 24         LD DE,(242DH)
1704   0D95 CB 2A               SRA D
1705   0D97 CB 1B               RR E
1706   0D99 37                  SCF
1707   0D9A 3F                  CCF
1708   0D9B ED 52               SBC HL,DE
1709   0D9D 38 06               JR C,L0158
1710   0D9F 29                  ADD HL,HL
1711   0DA0 ED 42               SBC HL,BC
1712   0DA2 D2 D1 0D            JP NC,L0154
1713   0DA5 2A C2 35    L0158:  LD HL,(35C2H)
1714   0DA8 FD E5               PUSH IY
1715   0DAA FD E5               PUSH IY
1716   0DAC D1                  POP DE
1717   0DAD DD 21 00 00         LD IX,0000H
1718   0DB1 FD 21 00 00         LD IY,0000H
1719   0DB5 CD 03 0E            CALL L0159
1720   0DB8 E5                  PUSH HL
1721   0DB9 3A 00 24            LD A,(2400H)
1722   0DBC FE 02               CP 02H
1723   0DBE 20 05               JR NZ,L0160
1724   0DC0 21 00 02            LD HL,0200H
1725   0DC3 19                  ADD HL,DE
1726   0DC4 EB                  EX DE,HL
1727   0DC5 CD 81 0E    L0160:  CALL L0161
1728   0DC8 E1                  POP HL
1729   0DC9 FD E1               POP IY
1730   0DCB DD 2A C2 35         LD IX,(35C2H)
1731   0DCF 18 0E               JR L0162
1732   0DD1 21 00 00    L0154:  LD HL,0000H
1733   0DD4 11 00 00            LD DE,0000H
1734   0DD7 DD 21 00 00         LD IX,0000H
1735   0DDB FD 21 00 00         LD IY,0000H
1736   0DDF C9          L0162:  RET
1737   0DE0 3E C3       L0153:  LD A,0C3H
1738   0DE2 B9                  CP C
1739   0DE3 38 04               JR C,L0163
1740   0DE5 3E 05               LD A,05H
1741   0DE7 B9                  CP C
1742   0DE8 3F                  CCF
1743   0DE9 C9          L0163:  RET
1744   0DEA D5          L0088:  PUSH DE
1745   0DEB E5                  PUSH HL
1746   0DEC ED 5B 37 24         LD DE,(2437H)
1747   0DF0 CD 10 0A            CALL L0090
1748   0DF3 44                  LD B,H
1749   0DF4 4D                  LD C,L
1750   0DF5 E1                  POP HL
1751   0DF6 D1                  POP DE
1752   0DF7 C9                  RET
1753   0DF8 D5          L0155:  PUSH DE
1754   0DF9 CD A8 0E            CALL L0164
1755   0DFC 50                  LD D,B
1756   0DFD 59                  LD E,C
1757   0DFE CD A1 12            CALL L0127
1758   0E01 D1                  POP DE
1759   0E02 C9                  RET
1760   0E03 E5          L0159:  PUSH HL
1761   0E04 01 00 00            LD BC,0000H
1762   0E07 EB                  EX DE,HL
1763   0E08 FD E5               PUSH IY
1764   0E0A D1                  POP DE
1765   0E0B 37                  SCF
1766   0E0C 3F                  CCF
1767   0E0D ED 52               SBC HL,DE
1768   0E0F EC 7E 0E            CALL PE,L0165
1769   0E12 EB                  EX DE,HL
1770   0E13 CB 7A               BIT 7,D
1771   0E15 28 05               JR Z,L0166
1772   0E17 CD 9D 0E            CALL L0167
1773   0E1A CB C0               SET 0,B
1774   0E1C E1          L0166:  POP HL
1775   0E1D D5                  PUSH DE
1776   0E1E DD E5               PUSH IX
1777   0E20 D1                  POP DE
1778   0E21 37                  SCF
1779   0E22 3F                  CCF
1780   0E23 ED 52               SBC HL,DE
1781   0E25 EC 7E 0E            CALL PE,L0165
1782   0E28 CB 7C               BIT 7,H
1783   0E2A 28 07               JR Z,L0168
1784   0E2C CD 8F 0E            CALL L0169
1785   0E2F 3E 03               LD A,03H
1786   0E31 A8                  XOR B
1787   0E32 47                  LD B,A
1788   0E33 D1          L0168:  POP DE
1789   0E34 C5                  PUSH BC
1790   0E35 E5                  PUSH HL
1791   0E36 D5                  PUSH DE
1792   0E37 C1                  POP BC
1793   0E38 CD A1 12            CALL L0127
1794   0E3B D1                  POP DE
1795   0E3C E5                  PUSH HL
1796   0E3D DD E5               PUSH IX
1797   0E3F D5                  PUSH DE
1798   0E40 C1                  POP BC
1799   0E41 C5                  PUSH BC
1800   0E42 CD A1 12            CALL L0127
1801   0E45 C1                  POP BC
1802   0E46 DD E5               PUSH IX
1803   0E48 FD E1               POP IY
1804   0E4A D1                  POP DE
1805   0E4B FD 19               ADD IY,DE
1806   0E4D D1                  POP DE
1807   0E4E ED 5A               ADC HL,DE
1808   0E50 C5                  PUSH BC
1809   0E51 CD 0D 13            CALL L0157
1810   0E54 E1                  POP HL
1811   0E55 11 00 00            LD DE,0000H
1812   0E58 E5                  PUSH HL
1813   0E59 37                  SCF
1814   0E5A 3F                  CCF
1815   0E5B ED 42               SBC HL,BC
1816   0E5D E1                  POP HL
1817   0E5E C5                  PUSH BC
1818   0E5F 20 05               JR NZ,L0170
1819   0E61 21 FF FF            LD HL,0FFFFH
1820   0E64 18 04               JR L0171
1821   0E66 CD F6 12    L0170:  CALL L0172
1822   0E69 EB                  EX DE,HL
1823   0E6A D1          L0171:  POP DE
1824   0E6B C1                  POP BC
1825   0E6C C5                  PUSH BC
1826   0E6D D5                  PUSH DE
1827   0E6E CD 9B 13            CALL L0173
1828   0E71 CD 81 0E            CALL L0161
1829   0E74 E1                  POP HL
1830   0E75 C1                  POP BC
1831   0E76 CB 7C               BIT 7,H
1832   0E78 C4 7E 0E            CALL NZ,L0165
1833   0E7B CB 41               BIT 0,C
1834   0E7D C9                  RET
1835   0E7E CB C1       L0165:  SET 0,C
1836   0E80 C9                  RET
1837   0E81 7A          L0161:  LD A,D
1838   0E82 E6 03               AND 03H
1839   0E84 CB 4F               BIT 1,A
1840   0E86 28 02               JR Z,L0174
1841   0E88 F6 FC               OR 0FCH
1842   0E8A 57          L0174:  LD D,A
1843   0E8B C9                  RET
1844   0E8C CB 7C       L0096:  BIT 7,H
1845   0E8E C8                  RET Z
1846   0E8F D5          L0169:  PUSH DE
1847   0E90 EB                  EX DE,HL
1848   0E91 21 00 00            LD HL,0000H
1849   0E94 37                  SCF
1850   0E95 3F                  CCF
1851   0E96 ED 52               SBC HL,DE
1852   0E98 D1                  POP DE
1853   0E99 C9                  RET
1854   0E9A CB 7A               BIT 7,D
1855   0E9C C8                  RET Z
1856   0E9D E5          L0167:  PUSH HL
1857   0E9E 21 00 00            LD HL,0000H
1858   0EA1 37                  SCF
1859   0EA2 3F                  CCF
1860   0EA3 ED 52               SBC HL,DE
1861   0EA5 EB                  EX DE,HL
1862   0EA6 E1                  POP HL
1863   0EA7 C9                  RET
1864   0EA8 CB 78       L0164:  BIT 7,B
1865   0EAA C8                  RET Z
1866   0EAB E5          L0247:  PUSH HL
1867   0EAC 21 00 00            LD HL,0000H
1868   0EAF 37                  SCF
1869   0EB0 3F                  CCF
1870   0EB1 ED 42               SBC HL,BC
1871   0EB3 44                  LD B,H
1872   0EB4 4D                  LD C,L
1873   0EB5 E1                  POP HL
1874   0EB6 C9                  RET
1875   0EB7 E5          L0133:  PUSH HL
1876   0EB8 3A 3A 24            LD A,(243AH)
1877   0EBB 67                  LD H,A
1878   0EBC 2E 00               LD L,00H
1879   0EBE ED 5B 39 24         LD DE,(2439H)
1880   0EC2 CD C6 0F            CALL L0175
1881   0EC5 E1                  POP HL
1882   0EC6 06 C8               LD B,0C8H
1883   0EC8 0E 08               LD C,08H
1884   0ECA BE          L0179:  CP (HL)
1885   0ECB 30 05               JR NC,L0176
1886   0ECD 0D                  DEC C
1887   0ECE 28 07               JR Z,L0177
1888   0ED0 18 02               JR L0178
1889   0ED2 0E 08       L0176:  LD C,08H
1890   0ED4 23          L0178:  INC HL
1891   0ED5 10 F3               DJNZ L0179
1892   0ED7 3E 08       L0177:  LD A,08H
1893   0ED9 91                  SUB C
1894   0EDA 4F                  LD C,A
1895   0EDB 3E C8               LD A,0C8H
1896   0EDD 90                  SUB B
1897   0EDE 91                  SUB C
1898   0EDF C9                  RET
1899   0EE0 06 C8       L0134:  LD B,0C8H
1900   0EE2 FD 6E 00    L0182:  LD L,(IY+00H)
1901   0EE5 CB 25               SLA L
1902   0EE7 63                  LD H,E
1903   0EE8 ED 6C               .DB 0EDH 6CH ;UNRECOGNIZED
1904   0EEA 7A                  LD A,D
1905   0EEB 84                  ADD A,H
1906   0EEC 38 05               JR C,L0180
1907   0EEE DD BE 00            CP (IX+00H)
1908   0EF1 38 06               JR C,L0181
1909   0EF3 DD 23       L0180:  INC IX
1910   0EF5 FD 23               INC IY
1911   0EF7 10 E9               DJNZ L0182
1912   0EF9 21 B8 35    L0181:  LD HL,35B8H
1913   0EFC 3E 00               LD A,00H
1914   0EFE BE                  CP (HL)
1915   0EFF 20 03               JR NZ,L0183
1916   0F01 3E C8               LD A,0C8H
1917   0F03 90                  SUB B
1918   0F04 C9          L0183:  RET
1919   0F05 3A 3C 24    L0092:  LD A,(243CH)
1920   0F08 ED 5B 3E 24         LD DE,(243EH)
1921   0F0C 18 07               JR L0184
1922   0F0E 3A 4E 24    L0113:  LD A,(244EH)
1923   0F11 ED 5B 4C 24         LD DE,(244CH)
1924   0F15 57          L0184:  LD D,A
1925   0F16 06 00               LD B,00H
1926   0F18 DD 09               ADD IX,BC
1927   0F1A 3E C8               LD A,0C8H
1928   0F1C 91                  SUB C
1929   0F1D DA 53 0F            JP C,L0185
1930   0F20 47                  LD B,A
1931   0F21 4A                  LD C,D
1932   0F22 53                  LD D,E
1933   0F23 5A          L0187:  LD E,D
1934   0F24 DD 7E 00            LD A,(IX+00H)
1935   0F27 B9                  CP C
1936   0F28 30 06               JR NC,L0186
1937   0F2A DD 23               INC IX
1938   0F2C 10 F5               DJNZ L0187
1939   0F2E 18 25               JR L0188
1940   0F30 CB 3F       L0186:  SRL A
1941   0F32 CB 3F               SRL A
1942   0F34 DD E5               PUSH IX
1943   0F36 D5                  PUSH DE
1944   0F37 ED 5B 46 24         LD DE,(2446H)
1945   0F3B DD 19               ADD IX,DE
1946   0F3D DD BE 00            CP (IX+00H)
1947   0F40 D1                  POP DE
1948   0F41 DD E1               POP IX
1949   0F43 38 0E               JR C,L0185
1950   0F45 69                  LD L,C
1951   0F46 DD 7E 00    L0189:  LD A,(IX+00H)
1952   0F49 BD                  CP L
1953   0F4A 38 07               JR C,L0185
1954   0F4C 1D                  DEC E
1955   0F4D 28 06               JR Z,L0188
1956   0F4F DD 23               INC IX
1957   0F51 10 F3               DJNZ L0189
1958   0F53 06 00       L0185:  LD B,00H
1959   0F55 3E C8       L0188:  LD A,0C8H
1960   0F57 90                  SUB B
1961   0F58 92                  SUB D
1962   0F59 83                  ADD A,E
1963   0F5A C9                  RET
1964   0F5B 06 C8       L0130:  LD B,0C8H
1965   0F5D D5          L0194:  PUSH DE
1966   0F5E E5                  PUSH HL
1967   0F5F DD 6E 00            LD L,(IX+00H)
1968   0F62 FD 66 00            LD H,(IY+00H)
1969   0F65 7D                  LD A,L
1970   0F66 84                  ADD A,H
1971   0F67 5F                  LD E,A
1972   0F68 CB 1B               RR E
1973   0F6A 20 03               JR NZ,L0190
1974   0F6C E1                  POP HL
1975   0F6D 18 09               JR L0191
1976   0F6F ED 6C       L0190:  .DB 0EDH 6CH ;UNRECOGNIZED
1977   0F71 CD C6 0F            CALL L0175
1978   0F74 E1                  POP HL
1979   0F75 96                  SUB (HL)
1980   0F76 30 02               JR NC,L0192
1981   0F78 3E 00       L0191:  LD A,00H
1982   0F7A D1          L0192:  POP DE
1983   0F7B 12                  LD (DE),A
1984   0F7C DD 23               INC IX
1985   0F7E FD 23               INC IY
1986   0F80 13                  INC DE
1987   0F81 7C                  LD A,H
1988   0F82 FE 0F               CP 0FH
1989   0F84 28 01               JR Z,L0193
1990   0F86 23                  INC HL
1991   0F87 10 D4       L0193:  DJNZ L0194
1992   0F89 C9                  RET
1993   0F8A 00                  NOP
1994   0F8B 06 C8               LD B,0C8H
1995   0F8D 1A          L0195:  LD A,(DE)
1996   0F8E 86                  ADD A,(HL)
1997   0F8F CB 1F               RR A
1998   0F91 77                  LD (HL),A
1999   0F92 23                  INC HL
2000   0F93 13                  INC DE
2001   0F94 10 F7               DJNZ L0195
2002   0F96 C9                  RET
2003   0F97 11 C8 00    L0131:  LD DE,00C8H
2004   0F9A DD 19               ADD IX,DE
2005   0F9C FD 19               ADD IY,DE
2006   0F9E 0E 00               LD C,00H
2007   0FA0 06 C8               LD B,0C8H
2008   0FA2 DD 7E 00    L0197:  LD A,(IX+00H)
2009   0FA5 B9                  CP C
2010   0FA6 4F                  LD C,A
2011   0FA7 FD 77 00            LD (IY+00H),A
2012   0FAA 38 09               JR C,L0196
2013   0FAC DD 2B               DEC IX
2014   0FAE FD 2B               DEC IY
2015   0FB0 10 F0               DJNZ L0197
2016   0FB2 C3 C5 0F            JP L0198
2017   0FB5 DD 7E 00    L0196:  LD A,(IX+00H)
2018   0FB8 B9                  CP C
2019   0FB9 30 01               JR NC,L0199
2020   0FBB 4F                  LD C,A
2021   0FBC FD 71 00    L0199:  LD (IY+00H),C
2022   0FBF DD 2B               DEC IX
2023   0FC1 FD 2B               DEC IY
2024   0FC3 10 F0               DJNZ L0196
2025   0FC5 C9          L0198:  RET
2026   0FC6 C5          L0175:  PUSH BC
2027   0FC7 7D                  LD A,L
2028   0FC8 6C                  LD L,H
2029   0FC9 26 00               LD H,00H
2030   0FCB 54                  LD D,H
2031   0FCC 06 09               LD B,09H
2032   0FCE 18 04               JR L0200
2033   0FD0 CB 27       L0202:  SLA A
2034   0FD2 ED 6A               ADC HL,HL
2035   0FD4 3C          L0200:  INC A
2036   0FD5 A7                  AND A
2037   0FD6 ED 52               SBC HL,DE
2038   0FD8 30 02               JR NC,L0201
2039   0FDA 19                  ADD HL,DE
2040   0FDB 3D                  DEC A
2041   0FDC 10 F2       L0201:  DJNZ L0202
2042   0FDE C1                  POP BC
2043   0FDF C9                  RET
2044   0FE0 3E C8       L0129:  LD A,0C8H
2045   0FE2 32 9E 24            LD (249EH),A
2046   0FE5 F3                  DI
2047   0FE6 ED 38               .DB 0EDH 38H ;UNRECOGNIZED
2048   0FE8 10 F6               DJNZ L0129
2049   0FEA 11 ED 39    L0203:  LD DE,39EDH
2050   0FED 10 FB               DJNZ L0203
2051   0FEF 3A 9E 24    L0204:  LD A,(249EH)
2052   0FF2 FE 00               CP 00H
2053   0FF4 20 F9               JR NZ,L0204
2054   0FF6 F3                  DI
2055   0FF7 ED 38               .DB 0EDH 38H ;UNRECOGNIZED
2056   0FF9 10 E6               DJNZ L0205
2057   0FFB EF          L0206:  RST 28H
2058   0FFC ED 39               .DB 0EDH 39H ;UNRECOGNIZED
2059   0FFE 10 FB               DJNZ L0206
2060   1000 C9                  RET
2061   1001 C3 DE 05            JP L0058
2062   1004 32 08 C0            LD (0C008H),A
2063   1007 F3                  DI
2064   1008 ED 38               .DB 0EDH 38H ;UNRECOGNIZED
2065   100A 10 F6               DJNZ L0207
2066   100C 11 ED 39    L0208:  LD DE,39EDH
2067   100F 10 FB               DJNZ L0208
2068   1011 21 B6 24            LD HL,24B6H
2069   1014 22 9A 24            LD (249AH),HL
2070   1017 CD E0 0F            CALL L0129
2071   101A 01 2C 01            LD BC,012CH
2072   101D CD 23 10            CALL L0209
2073   1020 C3 DE 05            JP L0058
2074   1023 F5          L0209:  PUSH AF
2075   1024 0B          L0210:  DEC BC
2076   1025 78                  LD A,B
2077   1026 B1                  OR C
2078   1027 20 FB               JR NZ,L0210
2079   1029 F1                  POP AF
2080   102A C9                  RET
2081   102B F5                  PUSH AF
2082   102C E5                  PUSH HL
2083   102D D5                  PUSH DE
2084   102E ED 38               .DB 0EDH 38H ;UNRECOGNIZED
2085   1030 10 ED               DJNZ L0211
2086   1032 38 14               JR C,L0212
2087   1034 FB                  EI
2088   1035 3A A4 24            LD A,(24A4H)
2089   1038 FE 00               CP 00H
2090   103A 28 04               JR Z,L0213
2091   103C 3D                  DEC A
2092   103D 32 A4 24            LD (24A4H),A
2093   1040 21 6A 24    L0213:  LD HL,246AH
2094   1043 35                  DEC (HL)
2095   1044 20 37               JR NZ,L0214
2096   1046 2A 68 24            LD HL,(2468H)
2097   1049 ED 5B 04 24         LD DE,(2404H)
2098   104D 37                  SCF
2099   104E ED 52               SBC HL,DE
2100   1050 38 32               JR C,L0215
2101   1052 CB 23               SLA E
2102   1054 CB 12               RL D
2103   1056 14                  INC D
2104   1057 7A                  LD A,D
2105   1058 32 6A 24            LD (246AH),A
2106   105B 21 6D 24            LD HL,246DH
2107   105E 34                  INC (HL)
2108   105F CB 46               BIT 0,(HL)
2109   1061 28 0E               JR Z,L0216
2110   1063 21 03 60            LD HL,6003H
2111   1066 36 B6               LD (HL),0B6H
2112   1068 21 02 60            LD HL,6002H
2113   106B 36 00               LD (HL),00H
2114   106D 36 0C               LD (HL),0CH
2115   106F 18 0C               JR L0214
2116   1071 21 03 60    L0216:  LD HL,6003H
2117   1074 36 B6               LD (HL),0B6H
2118   1076 21 02 60            LD HL,6002H
2119   1079 36 9A               LD (HL),9AH
2120   107B 36 09               LD (HL),09H
2121   107D 3A 67 24    L0214:  LD A,(2467H)
2122   1080 FE 01               CP 01H
2123   1082 20 03               JR NZ,L0217
2124   1084 CD BE 10    L0215:  CALL L0081
2125   1087 D1          L0217:  POP DE
2126   1088 E1                  POP HL
2127   1089 F1                  POP AF
2128   108A ED 4D               RETI
2129   108C F5          L0103:  PUSH AF
2130   108D E5                  PUSH HL
2131   108E D5                  PUSH DE
2132   108F 3A 67 24            LD A,(2467H)
2133   1092 21 6C 24            LD HL,246CH
2134   1095 B6                  OR (HL)
2135   1096 20 22               JR NZ,L0218
2136   1098 3E 01               LD A,01H
2137   109A 32 6C 24            LD (246CH),A
2138   109D CB 23               SLA E
2139   109F CB 12               RL D
2140   10A1 14                  INC D
2141   10A2 7A                  LD A,D
2142   10A3 32 6A 24            LD (246AH),A
2143   10A6 3E 00               LD A,00H
2144   10A8 32 6D 24            LD (246DH),A
2145   10AB 21 03 60            LD HL,6003H
2146   10AE 36 B6               LD (HL),0B6H
2147   10B0 21 02 60            LD HL,6002H
2148   10B3 36 9A               LD (HL),9AH
2149   10B5 36 09               LD (HL),09H
2150   10B7 32 0D C0            LD (0C00DH),A
2151   10BA D1          L0218:  POP DE
2152   10BB E1                  POP HL
2153   10BC F1                  POP AF
2154   10BD C9                  RET
2155   10BE F5          L0081:  PUSH AF
2156   10BF 3E 00               LD A,00H
2157   10C1 32 6C 24            LD (246CH),A
2158   10C4 32 05 C0    L0219:  LD (0C005H),A
2159   10C7 F1                  POP AF
2160   10C8 C9                  RET
2161   10C9 08                  EX AF,AF'
2162   10CA D9                  EXX
2163   10CB ED 73 97 34         LD (3497H),SP
2164   10CF ED 7B 95 34         LD SP,(3495H)
2165   10D3 ED 38               .DB 0EDH 38H ;UNRECOGNIZED
2166   10D5 10 ED               DJNZ L0219
2167   10D7 38 0C               JR C,L0220
2168   10D9 C9                  RET
2169   10DA ED 73 95 34 L0221:  LD (3495H),SP
2170   10DE ED 7B 97 34         LD SP,(3497H)
2171   10E2 D9                  EXX
2172   10E3 08                  EX AF,AF'
2173   10E4 FB                  EI
2174   10E5 ED 4D       L0220:  RETI
2175   10E7 CD DA 10    L0222:  CALL L0221
2176   10EA 3A 9E 24            LD A,(249EH)
2177   10ED A7                  AND A
2178   10EE 28 F7               JR Z,L0222
2179   10F0 3A 98 24            LD A,(2498H)
2180   10F3 32 00 80            LD (8000H),A
2181   10F6 3E 20               LD A,20H
2182   10F8 ED 39               .DB 0EDH 39H ;UNRECOGNIZED
2183   10FA 0A                  LD A,(BC)
2184   10FB CD DA 10            CALL L0221
2185   10FE 32 09 C0            LD (0C009H),A
2186   1101 32 01 C0            LD (0C001H),A
2187   1104 3A 97 24    L0223:  LD A,(2497H)
2188   1107 F6 80               OR 80H
2189   1109 32 00 80            LD (8000H),A
2190   110C 3E 20               LD A,20H
2191   110E ED 39               .DB 0EDH 39H ;UNRECOGNIZED
2192   1110 0A                  LD A,(BC)
2193   1111 CD DA 10            CALL L0221
2194   1114 32 09 C0            LD (0C009H),A
2195   1117 32 01 C0            LD (0C001H),A
2196   111A ED 38               .DB 0EDH 38H ;UNRECOGNIZED
2197   111C 10 E6               DJNZ L0223
2198   111E FE ED               CP 0EDH
2199   1120 39                  ADD HL,SP
2200   1121 10 3E               DJNZ L0224
2201   1123 50                  LD D,B
2202   1124 32 03 60            LD (6003H),A
2203   1127 ED 4B 42 24         LD BC,(2442H)
2204   112B 3A 9F 24            LD A,(249FH)
2205   112E B9                  CP C
2206   112F 30 01               JR NC,L0225
2207   1131 4F                  LD C,A
2208   1132 81          L0225:  ADD A,C
2209   1133 32 01 60            LD (6001H),A
2210   1136 3E 16               LD A,16H
2211   1138 32 03 60            LD (6003H),A
2212   113B 3A 40 24            LD A,(2440H)
2213   113E 32 00 60            LD (6000H),A
2214   1141 0C                  INC C
2215   1142 0C                  INC C
2216   1143 0C                  INC C
2217   1144 3E 40       L0226:  LD A,40H
2218   1146 32 03 60            LD (6003H),A
2219   1149 3A 01 60            LD A,(6001H)
2220   114C B9                  CP C
2221   114D 30 F5               JR NC,L0226
2222   114F 3A 42 24            LD A,(2442H)
2223   1152 A7                  AND A
2224   1153 28 1A               JR Z,L0227
2225   1155 3A 40 24            LD A,(2440H)
2226   1158 CB 27               SLA A
2227   115A 32 00 60            LD (6000H),A
2228   115D 0D                  DEC C
2229   115E 3E 40       L0228:  LD A,40H
2230   1160 32 03 60            LD (6003H),A
2231   1163 3A 01 60            LD A,(6001H)
2232   1166 B9                  CP C
2233   1167 30 F5               JR NC,L0228
2234   1169 3A 44 24    L0229:  LD A,(2444H)
2235   116C 32 00 60            LD (6000H),A
2236   116F ED 38       L0227:  .DB 0EDH 38H ;UNRECOGNIZED
2237   1171 10 F6               DJNZ L0229
2238   1173 01 ED 39            LD BC,39EDH
2239   1176 10 3A               DJNZ L0230
2240   1178 33                  INC SP
2241   1179 24                  INC H
2242   117A 47                  LD B,A
2243   117B CD DA 10    L0231:  CALL L0221
2244   117E 10 FB               DJNZ L0231
2245   1180 3E 12               LD A,12H
2246   1182 32 03 60            LD (6003H),A
2247   1185 3E 52               LD A,52H
2248   1187 32 00 60            LD (6000H),A
2249   118A 3A 99 24            LD A,(2499H)
2250   118D A7                  AND A
2251   118E 20 3B               JR NZ,L0232
2252   1190 3A 98 24            LD A,(2498H)
2253   1193 32 00 80            LD (8000H),A
2254   1196 3E 20               LD A,20H
2255   1198 ED 39               .DB 0EDH 39H ;UNRECOGNIZED
2256   119A 0A                  LD A,(BC)
2257   119B CD DA 10            CALL L0221
2258   119E 32 09 C0            LD (0C009H),A
2259   11A1 32 01 C0            LD (0C001H),A
2260   11A4 2A 9A 24            LD HL,(249AH)
2261   11A7 ED 4B 98 24         LD BC,(2498H)
2262   11AB 3A 9E 24            LD A,(249EH)
2263   11AE 47                  LD B,A
2264   11AF 1E 20               LD E,20H
2265   11B1 79          L0233:  LD A,C
2266   11B2 32 00 80    L0230:  LD (8000H),A
2267   11B5 ED 19               .DB 0EDH 19H ;UNRECOGNIZED
2268   11B7 0A                  LD A,(BC)
2269   11B8 CD DA 10            CALL L0221
2270   11BB 32 09 C0            LD (0C009H),A
2271   11BE 32 01 C0            LD (0C001H),A
2272   11C1 3A 00 80            LD A,(8000H)
2273   11C4 77                  LD (HL),A
2274   11C5 23                  INC HL
2275   11C6 10 E9               DJNZ L0233
2276   11C8 C3 1E 12            JP L0234
2277   11CB 3A 98 24    L0232:  LD A,(2498H)
2278   11CE 32 00 80            LD (8000H),A
2279   11D1 3E 20               LD A,20H
2280   11D3 ED 39               .DB 0EDH 39H ;UNRECOGNIZED
2281   11D5 0A                  LD A,(BC)
2282   11D6 CD DA 10            CALL L0221
2283   11D9 32 09 C0            LD (0C009H),A
2284   11DC 32 01 C0            LD (0C001H),A
2285   11DF 2A 9A 24            LD HL,(249AH)
2286   11E2 ED 5B 9C 24         LD DE,(249CH)
2287   11E6 3A 9E 24            LD A,(249EH)
2288   11E9 47                  LD B,A
2289   11EA 3A 99 24    L0235:  LD A,(2499H)
2290   11ED 32 00 80            LD (8000H),A
2291   11F0 3E 20               LD A,20H
2292   11F2 ED 39               .DB 0EDH 39H ;UNRECOGNIZED
2293   11F4 0A                  LD A,(BC)
2294   11F5 CD DA 10            CALL L0221
2295   11F8 32 09 C0            LD (0C009H),A
2296   11FB 32 01 C0            LD (0C001H),A
2297   11FE 3A 00 80            LD A,(8000H)
2298   1201 77                  LD (HL),A
2299   1202 23                  INC HL
2300   1203 3A 98 24            LD A,(2498H)
2301   1206 32 00 80            LD (8000H),A
2302   1209 3E 20               LD A,20H
2303   120B ED 39               .DB 0EDH 39H ;UNRECOGNIZED
2304   120D 0A                  LD A,(BC)
2305   120E CD DA 10            CALL L0221
2306   1211 32 09 C0            LD (0C009H),A
2307   1214 32 01 C0            LD (0C001H),A
2308   1217 3A 00 80            LD A,(8000H)
2309   121A 12                  LD (DE),A
2310   121B 13                  INC DE
2311   121C 10 CC               DJNZ L0235
2312   121E 3E 00       L0234:  LD A,00H
2313   1220 32 00 80            LD (8000H),A
2314   1223 3E 20               LD A,20H
2315   1225 ED 39               .DB 0EDH 39H ;UNRECOGNIZED
2316   1227 0A                  LD A,(BC)
2317   1228 CD DA 10            CALL L0221
2318   122B 32 09 C0            LD (0C009H),A
2319   122E 32 01 C0            LD (0C001H),A
2320   1231 3A C4 35            LD A,(35C4H)
2321   1234 47                  LD B,A
2322   1235 CD DA 10    L0236:  CALL L0221
2323   1238 10 FB               DJNZ L0236
2324   123A 3E 01               LD A,01H
2325   123C 32 C4 35            LD (35C4H),A
2326   123F 3E 00               LD A,00H
2327   1241 32 9E 24            LD (249EH),A
2328   1244 C3 E7 10            JP L0222
2329   1247 CD 66 12            CALL L0237
2330   124A CB 7A               BIT 7,D
2331   124C 20 07               JR NZ,L0238
2332   124E 7D                  LD A,L
2333   124F B4                  OR H
2334   1250 28 13               JR Z,L0239
2335   1252 C3 5B 12            JP L0240
2336   1255 7D          L0238:  LD A,L
2337   1256 A4                  AND H
2338   1257 FE FF               CP 0FFH
2339   1259 28 0A               JR Z,L0239
2340   125B 11 FF 7F    L0240:  LD DE,7FFFH
2341   125E CB 7C               BIT 7,H
2342   1260 28 03               JR Z,L0239
2343   1262 11 01 80            LD DE,8001H
2344   1265 C9          L0239:  RET
2345   1266 3E 00       L0237:  LD A,00H
2346   1268 CB 78               BIT 7,B
2347   126A 28 0B               JR Z,L0241
2348   126C 21 00 00            LD HL,0000H
2349   126F 37                  SCF
2350   1270 3F                  CCF
2351   1271 ED 42               SBC HL,BC
2352   1273 E5                  PUSH HL
2353   1274 C1                  POP BC
2354   1275 EE 80               XOR 80H
2355   1277 CB 7A       L0241:  BIT 7,D
2356   1279 28 0A               JR Z,L0242
2357   127B 21 00 00            LD HL,0000H
2358   127E 37                  SCF
2359   127F 3F                  CCF
2360   1280 ED 52               SBC HL,DE
2361   1282 EB                  EX DE,HL
2362   1283 EE 80               XOR 80H
2363   1285 F5          L0242:  PUSH AF
2364   1286 CD A1 12            CALL L0127
2365   1289 F1                  POP AF
2366   128A DD E5               PUSH IX
2367   128C D1                  POP DE
2368   128D CB 7F               BIT 7,A
2369   128F 28 0F               JR Z,L0243
2370   1291 E5                  PUSH HL
2371   1292 21 00 00            LD HL,0000H
2372   1295 37                  SCF
2373   1296 3F                  CCF
2374   1297 ED 52               SBC HL,DE
2375   1299 EB                  EX DE,HL
2376   129A C1                  POP BC
2377   129B 21 00 00            LD HL,0000H
2378   129E ED 42               SBC HL,BC
2379   12A0 C9          L0243:  RET
2380   12A1 FD E5       L0127:  PUSH IY
2381   12A3 D5                  PUSH DE
2382   12A4 FD E1               POP IY
2383   12A6 11 00 00            LD DE,0000H
2384   12A9 79                  LD A,C
2385   12AA 48                  LD C,B
2386   12AB 06 10               LD B,10H
2387   12AD 21 00 00            LD HL,0000H
2388   12B0 DD 21 00 00         LD IX,0000H
2389   12B4 CB 39       L0245:  SRL C
2390   12B6 1F                  RRA
2391   12B7 30 09               JR NC,L0244
2392   12B9 C5                  PUSH BC
2393   12BA FD E5               PUSH IY
2394   12BC C1                  POP BC
2395   12BD DD 09               ADD IX,BC
2396   12BF C1                  POP BC
2397   12C0 ED 5A               ADC HL,DE
2398   12C2 FD 29       L0244:  ADD IY,IY
2399   12C4 EB                  EX DE,HL
2400   12C5 ED 6A               ADC HL,HL
2401   12C7 EB                  EX DE,HL
2402   12C8 10 EA               DJNZ L0245
2403   12CA FD E1               POP IY
2404   12CC C9                  RET
2405   12CD 3E 00       L0156:  LD A,00H
2406   12CF C5                  PUSH BC
2407   12D0 AC                  XOR H
2408   12D1 CB 7C               BIT 7,H
2409   12D3 28 0F               JR Z,L0246
2410   12D5 E5                  PUSH HL
2411   12D6 21 00 00            LD HL,0000H
2412   12D9 37                  SCF
2413   12DA 3F                  CCF
2414   12DB ED 52               SBC HL,DE
2415   12DD EB                  EX DE,HL
2416   12DE 21 00 00            LD HL,0000H
2417   12E1 C1                  POP BC
2418   12E2 ED 42               SBC HL,BC
2419   12E4 C1          L0246:  POP BC
2420   12E5 A8                  XOR B
2421   12E6 CB 78               BIT 7,B
2422   12E8 C4 AB 0E            CALL NZ,L0247
2423   12EB F5                  PUSH AF
2424   12EC CD F6 12            CALL L0172
2425   12EF F1                  POP AF
2426   12F0 CB 7F               BIT 7,A
2427   12F2 C4 9D 0E            CALL NZ,L0167
2428   12F5 C9                  RET
2429   12F6 3E 11       L0172:  LD A,11H
2430   12F8 37          L0250:  SCF
2431   12F9 3F                  CCF
2432   12FA ED 42               SBC HL,BC
2433   12FC 13                  INC DE
2434   12FD 30 02               JR NC,L0248
2435   12FF 09                  ADD HL,BC
2436   1300 1B                  DEC DE
2437   1301 3D          L0248:  DEC A
2438   1302 28 08               JR Z,L0249
2439   1304 EB                  EX DE,HL
2440   1305 29                  ADD HL,HL
2441   1306 EB                  EX DE,HL
2442   1307 ED 6A               ADC HL,HL
2443   1309 C3 F8 12            JP L0250
2444   130C C9          L0249:  RET
2445   130D DD E5       L0157:  PUSH IX
2446   130F D5                  PUSH DE
2447   1310 01 00 80            LD BC,8000H
2448   1313 E5                  PUSH HL
2449   1314 FD E5               PUSH IY
2450   1316 FD 29       L0252:  ADD IY,IY
2451   1318 ED 6A               ADC HL,HL
2452   131A 38 0D               JR C,L0251
2453   131C FD 29               ADD IY,IY
2454   131E ED 6A               ADC HL,HL
2455   1320 38 07               JR C,L0251
2456   1322 CB 38               SRL B
2457   1324 CB 19               RR C
2458   1326 30 EE               JR NC,L0252
2459   1328 3F                  CCF
2460   1329 FD E1       L0251:  POP IY
2461   132B E1                  POP HL
2462   132C D2 6B 13            JP NC,L0253
2463   132F DD 21 00 00         LD IX,0000H
2464   1333 E5          L0255:  PUSH HL
2465   1334 FD E5               PUSH IY
2466   1336 DD 09               ADD IX,BC
2467   1338 DD E5               PUSH IX
2468   133A C5                  PUSH BC
2469   133B DD E5               PUSH IX
2470   133D DD E5               PUSH IX
2471   133F C1                  POP BC
2472   1340 D1                  POP DE
2473   1341 E5                  PUSH HL
2474   1342 FD E5               PUSH IY
2475   1344 CD A1 12            CALL L0127
2476   1347 DD E5               PUSH IX
2477   1349 D1                  POP DE
2478   134A E5                  PUSH HL
2479   134B C1                  POP BC
2480   134C E1                  POP HL
2481   134D 37                  SCF
2482   134E 3F                  CCF
2483   134F ED 52               SBC HL,DE
2484   1351 E1                  POP HL
2485   1352 ED 42               SBC HL,BC
2486   1354 C1                  POP BC
2487   1355 E1                  POP HL
2488   1356 30 03               JR NC,L0254
2489   1358 3F                  CCF
2490   1359 ED 42               SBC HL,BC
2491   135B E5          L0254:  PUSH HL
2492   135C DD E1               POP IX
2493   135E FD E1               POP IY
2494   1360 E1                  POP HL
2495   1361 CB 38               SRL B
2496   1363 CB 19               RR C
2497   1365 D2 33 13            JP NC,L0255
2498   1368 DD E5               PUSH IX
2499   136A C1                  POP BC
2500   136B D1          L0253:  POP DE
2501   136C DD E1               POP IX
2502   136E C9                  RET
2503   136F D5                  PUSH DE
2504   1370 E5                  PUSH HL
2505   1371 21 00 01            LD HL,0100H
2506   1374 19                  ADD HL,DE
2507   1375 CB 94               RES 2,H
2508   1377 EB                  EX DE,HL
2509   1378 E1                  POP HL
2510   1379 CD 7E 13            CALL L0256
2511   137C D1                  POP DE
2512   137D C9                  RET
2513   137E D5          L0256:  PUSH DE
2514   137F CB 42               BIT 0,D
2515   1381 16 00               LD D,00H
2516   1383 28 0E               JR Z,L0257
2517   1385 D5                  PUSH DE
2518   1386 11 00 02            LD DE,0200H
2519   1389 19                  ADD HL,DE
2520   138A D1                  POP DE
2521   138B 37                  SCF
2522   138C 3F                  CCF
2523   138D ED 52               SBC HL,DE
2524   138F ED 52               SBC HL,DE
2525   1391 18 02               JR L0258
2526   1393 19          L0257:  ADD HL,DE
2527   1394 19                  ADD HL,DE
2528   1395 5E          L0258:  LD E,(HL)
2529   1396 23                  INC HL
2530   1397 56                  LD D,(HL)
2531   1398 EB                  EX DE,HL
2532   1399 D1                  POP DE
2533   139A C9                  RET
2534   139B C5          L0173:  PUSH BC
2535   139C 06 80               LD B,80H
2536   139E 11 00 00            LD DE,0000H
2537   13A1 DD 21 DE 13 L0260:  LD IX,13DEH
2538   13A5 78                  LD A,B
2539   13A6 B3                  OR E
2540   13A7 5F                  LD E,A
2541   13A8 DD 19               ADD IX,DE
2542   13AA DD 19               ADD IX,DE
2543   13AC D5                  PUSH DE
2544   13AD E5                  PUSH HL
2545   13AE DD 5E 00            LD E,(IX+00H)
2546   13B1 DD 56 01            LD D,(IX+01H)
2547   13B4 37                  SCF
2548   13B5 3F                  CCF
2549   13B6 ED 52               SBC HL,DE
2550   13B8 E1                  POP HL
2551   13B9 D1                  POP DE
2552   13BA 30 03               JR NC,L0259
2553   13BC 78                  LD A,B
2554   13BD AB                  XOR E
2555   13BE 5F                  LD E,A
2556   13BF CB 38       L0259:  SRL B
2557   13C1 30 DE               JR NC,L0260
2558   13C3 C1                  POP BC
2559   13C4 CB 40               BIT 0,B
2560   13C6 28 08               JR Z,L0261
2561   13C8 21 00 02    L0266:  LD HL,0200H
2562   13CB 37                  SCF
2563   13CC 3F                  CCF
2564   13CD ED 52               SBC HL,DE
2565   13CF EB                  EX DE,HL
2566   13D0 CB 48       L0261:  BIT 1,B
2567   13D2 28 07               JR Z,L0262
2568   13D4 21 00 02            LD HL,0200H
2569   13D7 37                  SCF
2570   13D8 3F                  CCF
2571   13D9 19                  ADD HL,DE
2572   13DA EB                  EX DE,HL
2573   13DB CB 92       L0262:  RES 2,D
2574   13DD C9                  RET
2575   13DE 00                  NOP
2576   13DF 00                  NOP
2577   13E0 92                  SUB D
2578   13E1 01 24 03            LD BC,0324H
2579   13E4 B6                  OR (HL)
2580   13E5 04                  INC B
2581   13E6 48                  LD C,B
2582   13E7 06 DA               LD B,0DAH
2583   13E9 07                  RLCA
2584   13EA 6C                  LD L,H
2585   13EB 09                  ADD HL,BC
2586   13EC FE 0A               CP 0AH
2587   13EE 8F                  ADC A,A
2588   13EF 0C                  INC C
2589   13F0 21 0E B2            LD HL,0B20EH
2590   13F3 0F                  RRCA
2591   13F4 44                  LD B,H
2592   13F5 11 D5 12            LD DE,12D5H
2593   13F8 66                  LD H,(HL)
2594   13F9 14                  INC D
2595   13FA F6 15               OR 15H
2596   13FC 87                  ADD A,A
2597   13FD 17                  RLA
2598   13FE 17                  RLA
2599   13FF 19                  ADD HL,DE
2600   1400 A7                  AND A
2601   1401 1A                  LD A,(DE)
2602   1402 37                  SCF
2603   1403 1C                  INC E
2604   1404 C7                  RST 00H
2605   1405 1D                  DEC E
2606   1406 56                  LD D,(HL)
2607   1407 1F                  RRA
2608   1408 E5                  PUSH HL
2609   1409 20 73               JR NZ,L0263
2610   140B 22 02 24            LD (2402H),HL
2611   140E 90                  SUB B
2612   140F 25                  DEC H
2613   1410 1D          L0265:  DEC E
2614   1411 27                  DAA
2615   1412 AA                  XOR D
2616   1413 28 37               JR Z,L0264
2617   1415 2A C4 2B            LD HL,(2BC4H)
2618   1418 50                  LD D,B
2619   1419 2D                  DEC L
2620   141A DB 2E               IN A,(2EH)
2621   141C 66                  LD H,(HL)
2622   141D 30 F1               JR NC,L0265
2623   141F 31 7B 33            LD SP,337BH
2624   1422 05                  DEC B
2625   1423 35                  DEC (HL)
2626   1424 8E                  ADC A,(HL)
2627   1425 36 17               LD (HL),17H
2628   1427 38 9F               JR C,L0266
2629   1429 39                  ADD HL,SP
2630   142A 26 3B               LD H,3BH
2631   142C AD                  XOR L
2632   142D 3C                  INC A
2633   142E 33                  INC SP
2634   142F 3E B9               LD A,0B9H
2635   1431 3F                  CCF
2636   1432 3E 41               LD A,41H
2637   1434 C3 42 47            JP L0267
2638   1437 44                  LD B,H
2639   1438 CA 45 4D            JP Z,L0268
2640   143B 47                  LD B,A
2641   143C CE 48               ADC A,48H
2642   143E 50                  LD D,B
2643   143F 4A                  LD C,D
2644   1440 D0                  RET NC
2645   1441 4B                  LD C,E
2646   1442 50                  LD D,B
2647   1443 4D                  LD C,L
2648   1444 CF                  RST 08H
2649   1445 4E                  LD C,(HL)
2650   1446 4D                  LD C,L
2651   1447 50                  LD D,B
2652   1448 CA 51 47            JP Z,L0269
2653   144B 53                  LD D,E
2654   144C C3 54 3E    L0264:  JP L0270
2655   144F 56                  LD D,(HL)
2656   1450 B8                  CP B
2657   1451 57                  LD D,A
2658   1452 31 59 AA            LD SP,0AA59H
2659   1455 5A                  LD E,D
2660   1456 22 5C 98            LD (985CH),HL
2661   1459 5D                  LD E,L
2662   145A 0E 5F               LD C,5FH
2663   145C 83                  ADD A,E
2664   145D 60                  LD H,B
2665   145E F7                  RST 30H
2666   145F 61                  LD H,C
2667   1460 6A                  LD L,D
2668   1461 63                  LD H,E
2669   1462 DC 64 4D            CALL C,L0271
2670   1465 66                  LD H,(HL)
2671   1466 BD                  CP L
2672   1467 67                  LD H,A
2673   1468 2D                  DEC L
2674   1469 69                  LD L,C
2675   146A 9B                  SBC A,E
2676   146B 6A                  LD L,D
2677   146C 08                  EX AF,AF'
2678   146D 6C                  LD L,H
2679   146E 74                  LD (HL),H
2680   146F 6D                  LD L,L
2681   1470 DF                  RST 18H
2682   1471 6E                  LD L,(HL)
2683   1472 49                  LD C,C
2684   1473 70                  LD (HL),B
2685   1474 B1                  OR C
2686   1475 71                  LD (HL),C
2687   1476 19                  ADD HL,DE
2688   1477 73                  LD (HL),E
2689   1478 80                  ADD A,B
2690   1479 74                  LD (HL),H
2691   147A E5                  PUSH HL
2692   147B 75                  LD (HL),L
2693   147C 4A                  LD C,D
2694   147D 77                  LD (HL),A
2695   147E AD          L0263:  XOR L
2696   147F 78                  LD A,B
2697   1480 0F                  RRCA
2698   1481 7A                  LD A,D
2699   1482 70                  LD (HL),B
2700   1483 7B                  LD A,E
2701   1484 D0                  RET NC
2702   1485 7C                  LD A,H
2703   1486 2E 7E               LD L,7EH
2704   1488 8B                  ADC A,E
2705   1489 7F                  LD A,A
2706   148A E7                  RST 20H
2707   148B 80                  ADD A,B
2708   148C 42                  LD B,D
2709   148D 82                  ADD A,D
2710   148E 9C                  SBC A,H
2711   148F 83                  ADD A,E
2712   1490 F4 84 4B            CALL P,L0272
2713   1493 86                  ADD A,(HL)
2714   1494 A1                  AND C
2715   1495 87                  ADD A,A
2716   1496 F5                  PUSH AF
2717   1497 88                  ADC A,B
2718   1498 48          L0276:  LD C,B
2719   1499 8A                  ADC A,D
2720   149A 9A                  SBC A,D
2721   149B 8B                  ADC A,E
2722   149C EA 8C 39            JP PE,L0273
2723   149F 8E                  ADC A,(HL)
2724   14A0 87                  ADD A,A
2725   14A1 8F                  ADC A,A
2726   14A2 D3 90               OUT (90H),A
2727   14A4 1E 92               LD E,92H
2728   14A6 68                  LD L,B
2729   14A7 93                  SUB E
2730   14A8 B0                  OR B
2731   14A9 94                  SUB H
2732   14AA F6 95               OR 95H
2733   14AC 3C                  INC A
2734   14AD 97                  SUB A
2735   14AE 7F                  LD A,A
2736   14AF 98                  SBC A,B
2737   14B0 C2 99 02            JP NZ,L0274
2738   14B3 9B                  SBC A,E
2739   14B4 42                  LD B,D
2740   14B5 9C                  SBC A,H
2741   14B6 7F                  LD A,A
2742   14B7 9D                  SBC A,L
2743   14B8 BC                  CP H
2744   14B9 9E                  SBC A,(HL)
2745   14BA F6 9F               OR 9FH
2746   14BC 2F                  CPL
2747   14BD A1                  AND C
2748   14BE 67                  LD H,A
2749   14BF A2                  AND D
2750   14C0 9D                  SBC A,L
2751   14C1 A3                  AND E
2752   14C2 D2 A4 05            JP NC,L0275
2753   14C5 A6                  AND (HL)
2754   14C6 36 A7               LD (HL),0A7H
2755   14C8 66                  LD H,(HL)
2756   14C9 A8                  XOR B
2757   14CA 94                  SUB H
2758   14CB A9                  XOR C
2759   14CC C0                  RET NZ
2760   14CD AA                  XOR D
2761   14CE EB                  EX DE,HL
2762   14CF AB                  XOR E
2763   14D0 14                  INC D
2764   14D1 AD                  XOR L
2765   14D2 3B                  DEC SP
2766   14D3 AE                  XOR (HL)
2767   14D4 61                  LD H,C
2768   14D5 AF                  XOR A
2769   14D6 85                  ADD A,L
2770   14D7 B0                  OR B
2771   14D8 A8                  XOR B
2772   14D9 B1                  OR C
2773   14DA C8                  RET Z
2774   14DB B2                  OR D
2775   14DC E7                  RST 20H
2776   14DD B3                  OR E
2777   14DE 04                  INC B
2778   14DF B5                  OR L
2779   14E0 20 B6               JR NZ,L0276
2780   14E2 3A B7 52            LD A,(52B7H)
2781   14E5 B8                  CP B
2782   14E6 68                  LD L,B
2783   14E7 B9                  CP C
2784   14E8 7C                  LD A,H
2785   14E9 BA                  CP D
2786   14EA 8F                  ADC A,A
2787   14EB BB                  CP E
2788   14EC A0                  AND B
2789   14ED BC                  CP H
2790   14EE AE                  XOR (HL)
2791   14EF BD                  CP L
2792   14F0 BC                  CP H
2793   14F1 BE                  CP (HL)
2794   14F2 C7                  RST 00H
2795   14F3 BF                  CP A
2796   14F4 D0                  RET NC
2797   14F5 C0                  RET NZ
2798   14F6 D8                  RET C
2799   14F7 C1                  POP BC
2800   14F8 DE C2               SBC A,0C2H
2801   14FA E2 C3 E3            JP PO,L0277
2802   14FD C4 E4 C5            CALL NZ,L0278
2803   1500 E2 C6 DE            JP PO,L0279
2804   1503 C7                  RST 00H
2805   1504 D8                  RET C
2806   1505 C8                  RET Z
2807   1506 D1                  POP DE
2808   1507 C9                  RET
2809   1508 C7                  RST 00H
2810   1509 CA BB CB            JP Z,L0280
2811   150C AE                  XOR (HL)
2812   150D CC 9F CD            CALL Z,L0281
2813   1510 8D                  ADC A,L
2814   1511 CE 7A               ADC A,7AH
2815   1513 CF                  RST 08H
2816   1514 64                  LD H,H
2817   1515 D0                  RET NC
2818   1516 4D                  LD C,L
2819   1517 D1                  POP DE
2820   1518 33                  INC SP
2821   1519 D2 18 D3            JP NC,L0282
2822   151C FA D3 DB            JP M,L0283
2823   151F D4 B9 D5            CALL NC,L0284
2824   1522 95                  SUB L
2825   1523 D6 70               SUB 70H
2826   1525 D7                  RST 10H
2827   1526 48                  LD C,B
2828   1527 D8                  RET C
2829   1528 1E D9               LD E,0D9H
2830   152A F2 D9 C4            JP P,L0285
2831   152D DA 94 DB            JP C,L0286
2832   1530 61                  LD H,C
2833   1531 DC 2D DD            CALL C,L0287
2834   1534 F6 DD               OR 0DDH
2835   1536 BE                  CP (HL)
2836   1537 DE 83               SBC A,83H
2837   1539 DF                  RST 18H
2838   153A 46                  LD B,(HL)
2839   153B E0                  RET PO
2840   153C 06 E1               LD B,0E1H
2841   153E C5                  PUSH BC
2842   153F E1                  POP HL
2843   1540 82                  ADD A,D
2844   1541 E2 3C E3            JP PO,L0288
2845   1544 F4 E3 AA            CALL P,L0289
2846   1547 E4 5E E5            CALL PO,L0290
2847   154A 0F                  RRCA
2848   154B E6 BE               AND 0BEH
2849   154D E6 6B               AND 6BH
2850   154F E7                  RST 20H
2851   1550 16 E8               LD D,0E8H
2852   1552 BF                  CP A
2853   1553 E8                  RET PE
2854   1554 65                  LD H,L
2855   1555 E9                  JP (HL)
2856   1556 09                  ADD HL,BC
2857   1557 EA AB EA            JP PE,L0291
2858   155A 4B                  LD C,E
2859   155B EB                  EX DE,HL
2860   155C E8                  RET PE
2861   155D EB                  EX DE,HL
2862   155E 83                  ADD A,E
2863   155F EC 1C ED            CALL PE,L0292
2864   1562 B2                  OR D
2865   1563 ED 46               IM 0
2866   1565 EE D8               XOR 0D8H
2867   1567 EE 68               XOR 68H
2868   1569 EF                  RST 28H
2869   156A F5                  PUSH AF
2870   156B EF                  RST 28H
2871   156C 80                  ADD A,B
2872   156D F0                  RET P
2873   156E 09                  ADD HL,BC
2874   156F F1                  POP AF
2875   1570 8F                  ADC A,A
2876   1571 F1                  POP AF
2877   1572 13                  INC DE
2878   1573 F2 94 F2            JP P,L0293
2879   1576 14                  INC D
2880   1577 F3                  DI
2881   1578 91                  SUB C
2882   1579 F3                  DI
2883   157A 0B                  DEC BC
2884   157B F4 84 F4            CALL P,L0294
2885   157E FA F4 6D            JP M,L0295
2886   1581 F5                  PUSH AF
2887   1582 DE F5               SBC A,0F5H
2888   1584 4D                  LD C,L
2889   1585 F6 BA               OR 0BAH
2890   1587 F6 24               OR 24H
2891   1589 F7                  RST 30H
2892   158A 8B                  ADC A,E
2893   158B F7                  RST 30H
2894   158C F1                  POP AF
2895   158D F7                  RST 30H
2896   158E 53                  LD D,E
2897   158F F8                  RET M
2898   1590 B4                  OR H
2899   1591 F8                  RET M
2900   1592 12                  LD (DE),A
2901   1593 F9                  LD SP,HL
2902   1594 6E                  LD L,(HL)
2903   1595 F9                  LD SP,HL
2904   1596 C7                  RST 00H
2905   1597 F9                  LD SP,HL
2906   1598 1E FA               LD E,0FAH
2907   159A 73                  LD (HL),E
2908   159B FA C5 FA            JP M,L0296
2909   159E 14                  INC D
2910   159F FB                  EI
2911   15A0 61                  LD H,C
2912   15A1 FB                  EI
2913   15A2 AC                  XOR H
2914   15A3 FB                  EI
2915   15A4 F5                  PUSH AF
2916   15A5 FB                  EI
2917   15A6 3B                  DEC SP
2918   15A7 FC 7E FC            CALL M,L0297
2919   15AA BF                  CP A
2920   15AB FC FE FC            CALL M,L0298
2921   15AE 3A FD 74            LD A,(74FDH)
2922   15B1 FD                  .DB 0FDH ;UNRECOGNIZED
2923   15B2 AB                  XOR E
2924   15B3 FD                  .DB 0FDH ;UNRECOGNIZED
2925   15B4 E0                  RET PO
2926   15B5 FD                  .DB 0FDH ;UNRECOGNIZED
2927   15B6 13                  INC DE
2928   15B7 FE 43               CP 43H
2929   15B9 FE 70               CP 70H
2930   15BB FE 9B               CP 9BH
2931   15BD FE C4               CP 0C4H
2932   15BF FE EA               CP 0EAH
2933   15C1 FE 0E               CP 0EH
2934   15C3 FF                  RST 38H
2935   15C4 2F                  CPL
2936   15C5 FF                  RST 38H
2937   15C6 4E                  LD C,(HL)
2938   15C7 FF                  RST 38H
2939   15C8 6A                  LD L,D
2940   15C9 FF                  RST 38H
2941   15CA 84                  ADD A,H
2942   15CB FF                  RST 38H
2943   15CC 9C                  SBC A,H
2944   15CD FF                  RST 38H
2945   15CE B1                  OR C
2946   15CF FF                  RST 38H
2947   15D0 C3 FF D3            JP L0299
2948   15D3 FF                  RST 38H
2949   15D4 E1                  POP HL
2950   15D5 FF                  RST 38H
2951   15D6 EC FF F4            CALL PE,L0300
2952   15D9 FF                  RST 38H
2953   15DA FB                  EI
2954   15DB FF                  RST 38H
2955   15DC FE FF               CP 0FFH
2956   15DE FF                  RST 38H
2957   15DF FF                  RST 38H
2958   15E0 FF                  RST 38H
2959   15E1 FF                  RST 38H
2960   15E2 FF                  RST 38H
2961   15E3 FF                  RST 38H
2962   15E4 FF                  RST 38H
2963   15E5 FF                  RST 38H
2964   15E6 FF                  RST 38H
2965   15E7 FF                  RST 38H
2966   15E8 FF                  RST 38H
2967   15E9 FF                  RST 38H
2968   15EA FF                  RST 38H
2969   15EB FF                  RST 38H
2970   15EC FF                  RST 38H
2971   15ED FF                  RST 38H
2972   15EE FF                  RST 38H
2973   15EF FF                  RST 38H
2974   15F0 FF                  RST 38H
2975   15F1 FF                  RST 38H
2976   15F2 FF                  RST 38H
2977   15F3 FF                  RST 38H
2978   15F4 FF                  RST 38H
2979   15F5 FF                  RST 38H
2980   15F6 FF                  RST 38H
2981   15F7 FF                  RST 38H
2982   15F8 FF                  RST 38H
2983   15F9 FF                  RST 38H
2984   15FA FF                  RST 38H
2985   15FB FF                  RST 38H
2986   15FC FF                  RST 38H
2987   15FD FF                  RST 38H
2988   15FE FF                  RST 38H
2989   15FF FF                  RST 38H
2990   1600 FF                  RST 38H
2991   1601 FF                  RST 38H
2992   1602 FF                  RST 38H
2993   1603 FF                  RST 38H
2994   1604 FF                  RST 38H
2995   1605 FF                  RST 38H
2996   1606 FF                  RST 38H
2997   1607 FF                  RST 38H
2998   1608 FF                  RST 38H
2999   1609 FF                  RST 38H
3000   160A FF                  RST 38H
3001   160B FF                  RST 38H
3002   160C FF                  RST 38H
3003   160D FF                  RST 38H
3004   160E FF                  RST 38H
3005   160F FF                  RST 38H
3006   1610 FF                  RST 38H
3007   1611 FF                  RST 38H
3008   1612 FF                  RST 38H
3009   1613 FF                  RST 38H
3010   1614 FF                  RST 38H
3011   1615 FF                  RST 38H
3012   1616 FF                  RST 38H
3013   1617 FF                  RST 38H
3014   1618 FF                  RST 38H
3015   1619 FF                  RST 38H
3016   161A FF                  RST 38H
3017   161B FF                  RST 38H
3018   161C FF                  RST 38H
3019   161D FF                  RST 38H
3020   161E FF                  RST 38H
3021   161F FF                  RST 38H
3022   1620 FF                  RST 38H
3023   1621 FF                  RST 38H
3024   1622 FF                  RST 38H
3025   1623 FF                  RST 38H
3026   1624 FF                  RST 38H
3027   1625 FF                  RST 38H
3028   1626 FF                  RST 38H
3029   1627 FF                  RST 38H
3030   1628 FF                  RST 38H
3031   1629 FF                  RST 38H
3032   162A FF                  RST 38H
3033   162B FF                  RST 38H
3034   162C FF                  RST 38H
3035   162D FF                  RST 38H
3036   162E FF                  RST 38H
3037   162F FF                  RST 38H
3038   1630 FF                  RST 38H
3039   1631 FF                  RST 38H
3040   1632 FF                  RST 38H
3041   1633 FF                  RST 38H
3042   1634 FF                  RST 38H
3043   1635 FF                  RST 38H
3044   1636 FF                  RST 38H
3045   1637 FF                  RST 38H
3046   1638 FF                  RST 38H
3047   1639 FF                  RST 38H
3048   163A FF                  RST 38H
3049   163B FF                  RST 38H
3050   163C FF                  RST 38H
3051   163D FF                  RST 38H
3052   163E FF                  RST 38H
3053   163F FF                  RST 38H
3054   1640 FF                  RST 38H
3055   1641 FF                  RST 38H
3056   1642 FF                  RST 38H
3057   1643 FF                  RST 38H
3058   1644 FF                  RST 38H
3059   1645 FF                  RST 38H
3060   1646 FF                  RST 38H
3061   1647 FF                  RST 38H
3062   1648 FF                  RST 38H
3063   1649 FF                  RST 38H
3064   164A FF                  RST 38H
3065   164B FF                  RST 38H
3066   164C FF                  RST 38H
3067   164D FF                  RST 38H
3068   164E FF                  RST 38H
3069   164F FF                  RST 38H
3070   1650 FF                  RST 38H
3071   1651 FF                  RST 38H
3072   1652 FF                  RST 38H
3073   1653 FF                  RST 38H
3074   1654 FF                  RST 38H
3075   1655 FF                  RST 38H
3076   1656 FF                  RST 38H
3077   1657 FF                  RST 38H
3078   1658 FF                  RST 38H
3079   1659 FF                  RST 38H
3080   165A FF                  RST 38H
3081   165B FF                  RST 38H
3082   165C FF                  RST 38H
3083   165D FF                  RST 38H
3084   165E FF                  RST 38H
3085   165F FF                  RST 38H
3086   1660 FF                  RST 38H
3087   1661 FF                  RST 38H
3088   1662 FF                  RST 38H
3089   1663 FF                  RST 38H
3090   1664 FF                  RST 38H
3091   1665 FF                  RST 38H
3092   1666 FF                  RST 38H
3093   1667 FF                  RST 38H
3094   1668 FF                  RST 38H
3095   1669 FF                  RST 38H
3096   166A FF                  RST 38H
3097   166B FF                  RST 38H
3098   166C FF                  RST 38H
3099   166D FF                  RST 38H
3100   166E FF                  RST 38H
3101   166F FF                  RST 38H
3102   1670 FF                  RST 38H
3103   1671 FF                  RST 38H
3104   1672 FF                  RST 38H
3105   1673 FF                  RST 38H
3106   1674 FF                  RST 38H
3107   1675 FF                  RST 38H
3108   1676 FF                  RST 38H
3109   1677 FF                  RST 38H
3110   1678 FF                  RST 38H
3111   1679 FF                  RST 38H
3112   167A FF                  RST 38H
3113   167B FF                  RST 38H
3114   167C FF                  RST 38H
3115   167D FF                  RST 38H
3116   167E FF                  RST 38H
3117   167F FF                  RST 38H
3118   1680 FF                  RST 38H
3119   1681 FF                  RST 38H
3120   1682 FF                  RST 38H
3121   1683 FF                  RST 38H
3122   1684 FF                  RST 38H
3123   1685 FF                  RST 38H
3124   1686 FF                  RST 38H
3125   1687 FF                  RST 38H
3126   1688 FF                  RST 38H
3127   1689 FF                  RST 38H
3128   168A FF                  RST 38H
3129   168B FF                  RST 38H
3130   168C FF                  RST 38H
3131   168D FF                  RST 38H
3132   168E FF                  RST 38H
3133   168F FF                  RST 38H
3134   1690 FF                  RST 38H
3135   1691 FF                  RST 38H
3136   1692 FF                  RST 38H
3137   1693 FF                  RST 38H
3138   1694 FF                  RST 38H
3139   1695 FF                  RST 38H
3140   1696 FF                  RST 38H
3141   1697 FF                  RST 38H
3142   1698 FF                  RST 38H
3143   1699 FF                  RST 38H
3144   169A FF                  RST 38H
3145   169B FF                  RST 38H
3146   169C FF                  RST 38H
3147   169D FF                  RST 38H
3148   169E FF                  RST 38H
3149   169F FF                  RST 38H
3150   16A0 FF                  RST 38H
3151   16A1 FF                  RST 38H
3152   16A2 FF                  RST 38H
3153   16A3 FF                  RST 38H
3154   16A4 FF                  RST 38H
3155   16A5 FF                  RST 38H
3156   16A6 FF                  RST 38H
3157   16A7 FF                  RST 38H
3158   16A8 FF                  RST 38H
3159   16A9 FF                  RST 38H
3160   16AA FF                  RST 38H
3161   16AB FF                  RST 38H
3162   16AC FF                  RST 38H
3163   16AD FF                  RST 38H
3164   16AE FF                  RST 38H
3165   16AF FF                  RST 38H
3166   16B0 FF                  RST 38H
3167   16B1 FF                  RST 38H
3168   16B2 FF                  RST 38H
3169   16B3 FF                  RST 38H
3170   16B4 FF                  RST 38H
3171   16B5 FF                  RST 38H
3172   16B6 FF                  RST 38H
3173   16B7 FF                  RST 38H
3174   16B8 FF                  RST 38H
3175   16B9 FF                  RST 38H
3176   16BA FF                  RST 38H
3177   16BB FF                  RST 38H
3178   16BC FF                  RST 38H
3179   16BD FF                  RST 38H
3180   16BE FF                  RST 38H
3181   16BF FF                  RST 38H
3182   16C0 FF                  RST 38H
3183   16C1 FF                  RST 38H
3184   16C2 FF                  RST 38H
3185   16C3 FF                  RST 38H
3186   16C4 FF                  RST 38H
3187   16C5 FF                  RST 38H
3188   16C6 FF                  RST 38H
3189   16C7 FF                  RST 38H
3190   16C8 FF                  RST 38H
3191   16C9 FF                  RST 38H
3192   16CA FF                  RST 38H
3193   16CB FF                  RST 38H
3194   16CC FF                  RST 38H
3195   16CD FF                  RST 38H
3196   16CE FF                  RST 38H
3197   16CF FF                  RST 38H
3198   16D0 FF                  RST 38H
3199   16D1 FF                  RST 38H
3200   16D2 FF                  RST 38H
3201   16D3 FF                  RST 38H
3202   16D4 FF                  RST 38H
3203   16D5 FF                  RST 38H
3204   16D6 FF                  RST 38H
3205   16D7 FF                  RST 38H
3206   16D8 FF                  RST 38H
3207   16D9 FF                  RST 38H
3208   16DA FF                  RST 38H
3209   16DB FF                  RST 38H
3210   16DC FF                  RST 38H
3211   16DD FF                  RST 38H
3212   16DE FF                  RST 38H
3213   16DF FF                  RST 38H
3214   16E0 FF                  RST 38H
3215   16E1 FF                  RST 38H
3216   16E2 FF                  RST 38H
3217   16E3 FF                  RST 38H
3218   16E4 FF                  RST 38H
3219   16E5 FF                  RST 38H
3220   16E6 FF                  RST 38H
3221   16E7 FF                  RST 38H
3222   16E8 FF                  RST 38H
3223   16E9 FF                  RST 38H
3224   16EA FF                  RST 38H
3225   16EB FF                  RST 38H
3226   16EC FF                  RST 38H
3227   16ED FF                  RST 38H
3228   16EE FF                  RST 38H
3229   16EF FF                  RST 38H
3230   16F0 FF                  RST 38H
3231   16F1 FF                  RST 38H
3232   16F2 FF                  RST 38H
3233   16F3 FF                  RST 38H
3234   16F4 FF                  RST 38H
3235   16F5 FF                  RST 38H
3236   16F6 FF                  RST 38H
3237   16F7 FF                  RST 38H
3238   16F8 FF                  RST 38H
3239   16F9 FF                  RST 38H
3240   16FA FF                  RST 38H
3241   16FB FF                  RST 38H
3242   16FC FF                  RST 38H
3243   16FD FF                  RST 38H
3244   16FE FF                  RST 38H
3245   16FF FF                  RST 38H
3246   1700 FF                  RST 38H
3247   1701 FF                  RST 38H
3248   1702 FF                  RST 38H
3249   1703 FF                  RST 38H
3250   1704 FF                  RST 38H
3251   1705 FF                  RST 38H
3252   1706 FF                  RST 38H
3253   1707 FF                  RST 38H
3254   1708 FF                  RST 38H
3255   1709 FF                  RST 38H
3256   170A FF                  RST 38H
3257   170B FF                  RST 38H
3258   170C FF                  RST 38H
3259   170D FF                  RST 38H
3260   170E FF                  RST 38H
3261   170F FF                  RST 38H
3262   1710 FF                  RST 38H
3263   1711 FF                  RST 38H
3264   1712 FF                  RST 38H
3265   1713 FF                  RST 38H
3266   1714 FF                  RST 38H
3267   1715 FF                  RST 38H
3268   1716 FF                  RST 38H
3269   1717 FF                  RST 38H
3270   1718 FF                  RST 38H
3271   1719 FF                  RST 38H
3272   171A FF                  RST 38H
3273   171B FF                  RST 38H
3274   171C FF                  RST 38H
3275   171D FF                  RST 38H
3276   171E FF                  RST 38H
3277   171F FF                  RST 38H
3278   1720 FF                  RST 38H
3279   1721 FF                  RST 38H
3280   1722 FF                  RST 38H
3281   1723 FF                  RST 38H
3282   1724 FF                  RST 38H
3283   1725 FF                  RST 38H
3284   1726 FF                  RST 38H
3285   1727 FF                  RST 38H
3286   1728 FF                  RST 38H
3287   1729 FF                  RST 38H
3288   172A FF                  RST 38H
3289   172B FF                  RST 38H
3290   172C FF                  RST 38H
3291   172D FF                  RST 38H
3292   172E FF                  RST 38H
3293   172F FF                  RST 38H
3294   1730 FF                  RST 38H
3295   1731 FF                  RST 38H
3296   1732 FF                  RST 38H
3297   1733 FF                  RST 38H
3298   1734 FF                  RST 38H
3299   1735 FF                  RST 38H
3300   1736 FF                  RST 38H
3301   1737 FF                  RST 38H
3302   1738 FF                  RST 38H
3303   1739 FF                  RST 38H
3304   173A FF                  RST 38H
3305   173B FF                  RST 38H
3306   173C FF                  RST 38H
3307   173D FF                  RST 38H
3308   173E FF                  RST 38H
3309   173F FF                  RST 38H
3310   1740 FF                  RST 38H
3311   1741 FF                  RST 38H
3312   1742 FF                  RST 38H
3313   1743 FF                  RST 38H
3314   1744 FF                  RST 38H
3315   1745 FF                  RST 38H
3316   1746 FF                  RST 38H
3317   1747 FF                  RST 38H
3318   1748 FF                  RST 38H
3319   1749 FF                  RST 38H
3320   174A FF                  RST 38H
3321   174B FF                  RST 38H
3322   174C FF                  RST 38H
3323   174D FF                  RST 38H
3324   174E FF                  RST 38H
3325   174F FF                  RST 38H
3326   1750 FF                  RST 38H
3327   1751 FF                  RST 38H
3328   1752 FF                  RST 38H
3329   1753 FF                  RST 38H
3330   1754 FF                  RST 38H
3331   1755 FF                  RST 38H
3332   1756 FF                  RST 38H
3333   1757 FF                  RST 38H
3334   1758 FF                  RST 38H
3335   1759 FF                  RST 38H
3336   175A FF                  RST 38H
3337   175B FF                  RST 38H
3338   175C FF                  RST 38H
3339   175D FF                  RST 38H
3340   175E FF                  RST 38H
3341   175F FF                  RST 38H
3342   1760 FF                  RST 38H
3343   1761 FF                  RST 38H
3344   1762 FF                  RST 38H
3345   1763 FF                  RST 38H
3346   1764 FF                  RST 38H
3347   1765 FF                  RST 38H
3348   1766 FF                  RST 38H
3349   1767 FF                  RST 38H
3350   1768 FF                  RST 38H
3351   1769 FF                  RST 38H
3352   176A FF                  RST 38H
3353   176B FF                  RST 38H
3354   176C FF                  RST 38H
3355   176D FF                  RST 38H
3356   176E FF                  RST 38H
3357   176F FF                  RST 38H
3358   1770 FF                  RST 38H
3359   1771 FF                  RST 38H
3360   1772 FF                  RST 38H
3361   1773 FF                  RST 38H
3362   1774 FF                  RST 38H
3363   1775 FF                  RST 38H
3364   1776 FF                  RST 38H
3365   1777 FF                  RST 38H
3366   1778 FF                  RST 38H
3367   1779 FF                  RST 38H
3368   177A FF                  RST 38H
3369   177B FF                  RST 38H
3370   177C FF                  RST 38H
3371   177D FF                  RST 38H
3372   177E FF                  RST 38H
3373   177F FF                  RST 38H
3374   1780 FF                  RST 38H
3375   1781 FF                  RST 38H
3376   1782 FF                  RST 38H
3377   1783 FF                  RST 38H
3378   1784 FF                  RST 38H
3379   1785 FF                  RST 38H
3380   1786 FF                  RST 38H
3381   1787 FF                  RST 38H
3382   1788 FF                  RST 38H
3383   1789 FF                  RST 38H
3384   178A FF                  RST 38H
3385   178B FF                  RST 38H
3386   178C FF                  RST 38H
3387   178D FF                  RST 38H
3388   178E FF                  RST 38H
3389   178F FF                  RST 38H
3390   1790 FF                  RST 38H
3391   1791 FF                  RST 38H
3392   1792 FF                  RST 38H
3393   1793 FF                  RST 38H
3394   1794 FF                  RST 38H
3395   1795 FF                  RST 38H
3396   1796 FF                  RST 38H
3397   1797 FF                  RST 38H
3398   1798 FF                  RST 38H
3399   1799 FF                  RST 38H
3400   179A FF                  RST 38H
3401   179B FF                  RST 38H
3402   179C FF                  RST 38H
3403   179D FF                  RST 38H
3404   179E FF                  RST 38H
3405   179F FF                  RST 38H
3406   17A0 FF                  RST 38H
3407   17A1 FF                  RST 38H
3408   17A2 FF                  RST 38H
3409   17A3 FF                  RST 38H
3410   17A4 FF                  RST 38H
3411   17A5 FF                  RST 38H
3412   17A6 FF                  RST 38H
3413   17A7 FF                  RST 38H
3414   17A8 FF                  RST 38H
3415   17A9 FF                  RST 38H
3416   17AA FF                  RST 38H
3417   17AB FF                  RST 38H
3418   17AC FF                  RST 38H
3419   17AD FF                  RST 38H
3420   17AE FF                  RST 38H
3421   17AF FF                  RST 38H
3422   17B0 FF                  RST 38H
3423   17B1 FF                  RST 38H
3424   17B2 FF                  RST 38H
3425   17B3 FF                  RST 38H
3426   17B4 FF                  RST 38H
3427   17B5 FF                  RST 38H
3428   17B6 FF                  RST 38H
3429   17B7 FF                  RST 38H
3430   17B8 FF                  RST 38H
3431   17B9 FF                  RST 38H
3432   17BA FF                  RST 38H
3433   17BB FF                  RST 38H
3434   17BC FF                  RST 38H
3435   17BD FF                  RST 38H
3436   17BE FF                  RST 38H
3437   17BF FF                  RST 38H
3438   17C0 FF                  RST 38H
3439   17C1 FF                  RST 38H
3440   17C2 FF                  RST 38H
3441   17C3 FF                  RST 38H
3442   17C4 FF                  RST 38H
3443   17C5 FF                  RST 38H
3444   17C6 FF                  RST 38H
3445   17C7 FF                  RST 38H
3446   17C8 FF                  RST 38H
3447   17C9 FF                  RST 38H
3448   17CA FF                  RST 38H
3449   17CB FF                  RST 38H
3450   17CC FF                  RST 38H
3451   17CD FF                  RST 38H
3452   17CE FF                  RST 38H
3453   17CF FF                  RST 38H
3454   17D0 FF                  RST 38H
3455   17D1 FF                  RST 38H
3456   17D2 FF                  RST 38H
3457   17D3 FF                  RST 38H
3458   17D4 FF                  RST 38H
3459   17D5 FF                  RST 38H
3460   17D6 FF                  RST 38H
3461   17D7 FF                  RST 38H
3462   17D8 FF                  RST 38H
3463   17D9 FF                  RST 38H
3464   17DA FF                  RST 38H
3465   17DB FF                  RST 38H
3466   17DC FF                  RST 38H
3467   17DD FF                  RST 38H
3468   17DE FF                  RST 38H
3469   17DF FF                  RST 38H
3470   17E0 FF                  RST 38H
3471   17E1 FF                  RST 38H
3472   17E2 FF                  RST 38H
3473   17E3 FF                  RST 38H
3474   17E4 FF                  RST 38H
3475   17E5 FF                  RST 38H
3476   17E6 FF                  RST 38H
3477   17E7 FF                  RST 38H
3478   17E8 FF                  RST 38H
3479   17E9 FF                  RST 38H
3480   17EA FF                  RST 38H
3481   17EB FF                  RST 38H
3482   17EC FF                  RST 38H
3483   17ED FF                  RST 38H
3484   17EE FF                  RST 38H
3485   17EF FF                  RST 38H
3486   17F0 FF                  RST 38H
3487   17F1 FF                  RST 38H
3488   17F2 FF                  RST 38H
3489   17F3 FF                  RST 38H
3490   17F4 FF                  RST 38H
3491   17F5 FF                  RST 38H
3492   17F6 FF                  RST 38H
3493   17F7 FF                  RST 38H
3494   17F8 FF                  RST 38H
3495   17F9 FF                  RST 38H
3496   17FA FF                  RST 38H
3497   17FB FF                  RST 38H
3498   17FC FF                  RST 38H
3499   17FD FF                  RST 38H
3500   17FE FF                  RST 38H
3501   17FF FF                  RST 38H
3502   1800 FF                  RST 38H
3503   1801 FF                  RST 38H
3504   1802 FF                  RST 38H
3505   1803 FF                  RST 38H
3506   1804 FF                  RST 38H
3507   1805 FF                  RST 38H
3508   1806 FF                  RST 38H
3509   1807 FF                  RST 38H
3510   1808 FF                  RST 38H
3511   1809 FF                  RST 38H
3512   180A FF                  RST 38H
3513   180B FF                  RST 38H
3514   180C FF                  RST 38H
3515   180D FF                  RST 38H
3516   180E FF                  RST 38H
3517   180F FF                  RST 38H
3518   1810 FF                  RST 38H
3519   1811 FF                  RST 38H
3520   1812 FF                  RST 38H
3521   1813 FF                  RST 38H
3522   1814 FF                  RST 38H
3523   1815 FF                  RST 38H
3524   1816 FF                  RST 38H
3525   1817 FF                  RST 38H
3526   1818 FF                  RST 38H
3527   1819 FF                  RST 38H
3528   181A FF                  RST 38H
3529   181B FF                  RST 38H
3530   181C FF                  RST 38H
3531   181D FF                  RST 38H
3532   181E FF                  RST 38H
3533   181F FF                  RST 38H
3534   1820 FF                  RST 38H
3535   1821 FF                  RST 38H
3536   1822 FF                  RST 38H
3537   1823 FF                  RST 38H
3538   1824 FF                  RST 38H
3539   1825 FF                  RST 38H
3540   1826 FF                  RST 38H
3541   1827 FF                  RST 38H
3542   1828 FF                  RST 38H
3543   1829 FF                  RST 38H
3544   182A FF                  RST 38H
3545   182B FF                  RST 38H
3546   182C FF                  RST 38H
3547   182D FF                  RST 38H
3548   182E FF                  RST 38H
3549   182F FF                  RST 38H
3550   1830 FF                  RST 38H
3551   1831 FF                  RST 38H
3552   1832 FF                  RST 38H
3553   1833 FF                  RST 38H
3554   1834 FF                  RST 38H
3555   1835 FF                  RST 38H
3556   1836 FF                  RST 38H
3557   1837 FF                  RST 38H
3558   1838 FF                  RST 38H
3559   1839 FF                  RST 38H
3560   183A FF                  RST 38H
3561   183B FF                  RST 38H
3562   183C FF                  RST 38H
3563   183D FF                  RST 38H
3564   183E FF                  RST 38H
3565   183F FF                  RST 38H
3566   1840 FF                  RST 38H
3567   1841 FF                  RST 38H
3568   1842 FF                  RST 38H
3569   1843 FF                  RST 38H
3570   1844 FF                  RST 38H
3571   1845 FF                  RST 38H
3572   1846 FF                  RST 38H
3573   1847 FF                  RST 38H
3574   1848 FF                  RST 38H
3575   1849 FF                  RST 38H
3576   184A FF                  RST 38H
3577   184B FF                  RST 38H
3578   184C FF                  RST 38H
3579   184D FF                  RST 38H
3580   184E FF                  RST 38H
3581   184F FF                  RST 38H
3582   1850 FF                  RST 38H
3583   1851 FF                  RST 38H
3584   1852 FF                  RST 38H
3585   1853 FF                  RST 38H
3586   1854 FF                  RST 38H
3587   1855 FF                  RST 38H
3588   1856 FF                  RST 38H
3589   1857 FF                  RST 38H
3590   1858 FF                  RST 38H
3591   1859 FF                  RST 38H
3592   185A FF                  RST 38H
3593   185B FF                  RST 38H
3594   185C FF                  RST 38H
3595   185D FF                  RST 38H
3596   185E FF                  RST 38H
3597   185F FF                  RST 38H
3598   1860 FF                  RST 38H
3599   1861 FF                  RST 38H
3600   1862 FF                  RST 38H
3601   1863 FF                  RST 38H
3602   1864 FF                  RST 38H
3603   1865 FF                  RST 38H
3604   1866 FF                  RST 38H
3605   1867 FF                  RST 38H
3606   1868 FF                  RST 38H
3607   1869 FF                  RST 38H
3608   186A FF                  RST 38H
3609   186B FF                  RST 38H
3610   186C FF                  RST 38H
3611   186D FF                  RST 38H
3612   186E FF                  RST 38H
3613   186F FF                  RST 38H
3614   1870 FF                  RST 38H
3615   1871 FF                  RST 38H
3616   1872 FF                  RST 38H
3617   1873 FF                  RST 38H
3618   1874 FF                  RST 38H
3619   1875 FF                  RST 38H
3620   1876 FF                  RST 38H
3621   1877 FF                  RST 38H
3622   1878 FF                  RST 38H
3623   1879 FF                  RST 38H
3624   187A FF                  RST 38H
3625   187B FF                  RST 38H
3626   187C FF                  RST 38H
3627   187D FF                  RST 38H
3628   187E FF                  RST 38H
3629   187F FF                  RST 38H
3630   1880 FF                  RST 38H
3631   1881 FF                  RST 38H
3632   1882 FF                  RST 38H
3633   1883 FF                  RST 38H
3634   1884 FF                  RST 38H
3635   1885 FF                  RST 38H
3636   1886 FF                  RST 38H
3637   1887 FF                  RST 38H
3638   1888 FF                  RST 38H
3639   1889 FF                  RST 38H
3640   188A FF                  RST 38H
3641   188B FF                  RST 38H
3642   188C FF                  RST 38H
3643   188D FF                  RST 38H
3644   188E FF                  RST 38H
3645   188F FF                  RST 38H
3646   1890 FF                  RST 38H
3647   1891 FF                  RST 38H
3648   1892 FF                  RST 38H
3649   1893 FF                  RST 38H
3650   1894 FF                  RST 38H
3651   1895 FF                  RST 38H
3652   1896 FF                  RST 38H
3653   1897 FF                  RST 38H
3654   1898 FF                  RST 38H
3655   1899 FF                  RST 38H
3656   189A FF                  RST 38H
3657   189B FF                  RST 38H
3658   189C FF                  RST 38H
3659   189D FF                  RST 38H
3660   189E FF                  RST 38H
3661   189F FF                  RST 38H
3662   18A0 FF                  RST 38H
3663   18A1 FF                  RST 38H
3664   18A2 FF                  RST 38H
3665   18A3 FF                  RST 38H
3666   18A4 FF                  RST 38H
3667   18A5 FF                  RST 38H
3668   18A6 FF                  RST 38H
3669   18A7 FF                  RST 38H
3670   18A8 FF                  RST 38H
3671   18A9 FF                  RST 38H
3672   18AA FF                  RST 38H
3673   18AB FF                  RST 38H
3674   18AC FF                  RST 38H
3675   18AD FF                  RST 38H
3676   18AE FF                  RST 38H
3677   18AF FF                  RST 38H
3678   18B0 FF                  RST 38H
3679   18B1 FF                  RST 38H
3680   18B2 FF                  RST 38H
3681   18B3 FF                  RST 38H
3682   18B4 FF                  RST 38H
3683   18B5 FF                  RST 38H
3684   18B6 FF                  RST 38H
3685   18B7 FF                  RST 38H
3686   18B8 FF                  RST 38H
3687   18B9 FF                  RST 38H
3688   18BA FF                  RST 38H
3689   18BB FF                  RST 38H
3690   18BC FF                  RST 38H
3691   18BD FF                  RST 38H
3692   18BE FF                  RST 38H
3693   18BF FF                  RST 38H
3694   18C0 FF                  RST 38H
3695   18C1 FF                  RST 38H
3696   18C2 FF                  RST 38H
3697   18C3 FF                  RST 38H
3698   18C4 FF                  RST 38H
3699   18C5 FF                  RST 38H
3700   18C6 FF                  RST 38H
3701   18C7 FF                  RST 38H
3702   18C8 FF                  RST 38H
3703   18C9 FF                  RST 38H
3704   18CA FF                  RST 38H
3705   18CB FF                  RST 38H
3706   18CC FF                  RST 38H
3707   18CD FF                  RST 38H
3708   18CE FF                  RST 38H
3709   18CF FF                  RST 38H
3710   18D0 FF                  RST 38H
3711   18D1 FF                  RST 38H
3712   18D2 FF                  RST 38H
3713   18D3 FF                  RST 38H
3714   18D4 FF                  RST 38H
3715   18D5 FF                  RST 38H
3716   18D6 FF                  RST 38H
3717   18D7 FF                  RST 38H
3718   18D8 FF                  RST 38H
3719   18D9 FF                  RST 38H
3720   18DA FF                  RST 38H
3721   18DB FF                  RST 38H
3722   18DC FF                  RST 38H
3723   18DD FF                  RST 38H
3724   18DE FF                  RST 38H
3725   18DF FF                  RST 38H
3726   18E0 FF                  RST 38H
3727   18E1 FF                  RST 38H
3728   18E2 FF                  RST 38H
3729   18E3 FF                  RST 38H
3730   18E4 FF                  RST 38H
3731   18E5 FF                  RST 38H
3732   18E6 FF                  RST 38H
3733   18E7 FF                  RST 38H
3734   18E8 FF                  RST 38H
3735   18E9 FF                  RST 38H
3736   18EA FF                  RST 38H
3737   18EB FF                  RST 38H
3738   18EC FF                  RST 38H
3739   18ED FF                  RST 38H
3740   18EE FF                  RST 38H
3741   18EF FF                  RST 38H
3742   18F0 FF                  RST 38H
3743   18F1 FF                  RST 38H
3744   18F2 FF                  RST 38H
3745   18F3 FF                  RST 38H
3746   18F4 FF                  RST 38H
3747   18F5 FF                  RST 38H
3748   18F6 FF                  RST 38H
3749   18F7 FF                  RST 38H
3750   18F8 FF                  RST 38H
3751   18F9 FF                  RST 38H
3752   18FA FF                  RST 38H
3753   18FB FF                  RST 38H
3754   18FC FF                  RST 38H
3755   18FD FF                  RST 38H
3756   18FE FF                  RST 38H
3757   18FF FF                  RST 38H
3758   1900 FF                  RST 38H
3759   1901 FF                  RST 38H
3760   1902 FF                  RST 38H
3761   1903 FF                  RST 38H
3762   1904 FF                  RST 38H
3763   1905 FF                  RST 38H
3764   1906 FF                  RST 38H
3765   1907 FF                  RST 38H
3766   1908 FF                  RST 38H
3767   1909 FF                  RST 38H
3768   190A FF                  RST 38H
3769   190B FF                  RST 38H
3770   190C FF                  RST 38H
3771   190D FF                  RST 38H
3772   190E FF                  RST 38H
3773   190F FF                  RST 38H
3774   1910 FF                  RST 38H
3775   1911 FF                  RST 38H
3776   1912 FF                  RST 38H
3777   1913 FF                  RST 38H
3778   1914 FF                  RST 38H
3779   1915 FF                  RST 38H
3780   1916 FF                  RST 38H
3781   1917 FF                  RST 38H
3782   1918 FF                  RST 38H
3783   1919 FF                  RST 38H
3784   191A FF                  RST 38H
3785   191B FF                  RST 38H
3786   191C FF                  RST 38H
3787   191D FF                  RST 38H
3788   191E FF                  RST 38H
3789   191F FF                  RST 38H
3790   1920 FF                  RST 38H
3791   1921 FF                  RST 38H
3792   1922 FF                  RST 38H
3793   1923 FF                  RST 38H
3794   1924 FF                  RST 38H
3795   1925 FF                  RST 38H
3796   1926 FF                  RST 38H
3797   1927 FF                  RST 38H
3798   1928 FF                  RST 38H
3799   1929 FF                  RST 38H
3800   192A FF                  RST 38H
3801   192B FF                  RST 38H
3802   192C FF                  RST 38H
3803   192D FF                  RST 38H
3804   192E FF                  RST 38H
3805   192F FF                  RST 38H
3806   1930 FF                  RST 38H
3807   1931 FF                  RST 38H
3808   1932 FF                  RST 38H
3809   1933 FF                  RST 38H
3810   1934 FF                  RST 38H
3811   1935 FF                  RST 38H
3812   1936 FF                  RST 38H
3813   1937 FF                  RST 38H
3814   1938 FF                  RST 38H
3815   1939 FF                  RST 38H
3816   193A FF                  RST 38H
3817   193B FF                  RST 38H
3818   193C FF                  RST 38H
3819   193D FF                  RST 38H
3820   193E FF                  RST 38H
3821   193F FF                  RST 38H
3822   1940 FF                  RST 38H
3823   1941 FF                  RST 38H
3824   1942 FF                  RST 38H
3825   1943 FF                  RST 38H
3826   1944 FF                  RST 38H
3827   1945 FF                  RST 38H
3828   1946 FF                  RST 38H
3829   1947 FF                  RST 38H
3830   1948 FF                  RST 38H
3831   1949 FF                  RST 38H
3832   194A FF                  RST 38H
3833   194B FF                  RST 38H
3834   194C FF                  RST 38H
3835   194D FF                  RST 38H
3836   194E FF                  RST 38H
3837   194F FF                  RST 38H
3838   1950 FF                  RST 38H
3839   1951 FF                  RST 38H
3840   1952 FF                  RST 38H
3841   1953 FF                  RST 38H
3842   1954 FF                  RST 38H
3843   1955 FF                  RST 38H
3844   1956 FF                  RST 38H
3845   1957 FF                  RST 38H
3846   1958 FF                  RST 38H
3847   1959 FF                  RST 38H
3848   195A FF                  RST 38H
3849   195B FF                  RST 38H
3850   195C FF                  RST 38H
3851   195D FF                  RST 38H
3852   195E FF                  RST 38H
3853   195F FF                  RST 38H
3854   1960 FF                  RST 38H
3855   1961 FF                  RST 38H
3856   1962 FF                  RST 38H
3857   1963 FF                  RST 38H
3858   1964 FF                  RST 38H
3859   1965 FF                  RST 38H
3860   1966 FF                  RST 38H
3861   1967 FF                  RST 38H
3862   1968 FF                  RST 38H
3863   1969 FF                  RST 38H
3864   196A FF                  RST 38H
3865   196B FF                  RST 38H
3866   196C FF                  RST 38H
3867   196D FF                  RST 38H
3868   196E FF                  RST 38H
3869   196F FF                  RST 38H
3870   1970 FF                  RST 38H
3871   1971 FF                  RST 38H
3872   1972 FF                  RST 38H
3873   1973 FF                  RST 38H
3874   1974 FF                  RST 38H
3875   1975 FF                  RST 38H
3876   1976 FF                  RST 38H
3877   1977 FF                  RST 38H
3878   1978 FF                  RST 38H
3879   1979 FF                  RST 38H
3880   197A FF                  RST 38H
3881   197B FF                  RST 38H
3882   197C FF                  RST 38H
3883   197D FF                  RST 38H
3884   197E FF                  RST 38H
3885   197F FF                  RST 38H
3886   1980 FF                  RST 38H
3887   1981 FF                  RST 38H
3888   1982 FF                  RST 38H
3889   1983 FF                  RST 38H
3890   1984 FF                  RST 38H
3891   1985 FF                  RST 38H
3892   1986 FF                  RST 38H
3893   1987 FF                  RST 38H
3894   1988 FF                  RST 38H
3895   1989 FF                  RST 38H
3896   198A FF                  RST 38H
3897   198B FF                  RST 38H
3898   198C FF                  RST 38H
3899   198D FF                  RST 38H
3900   198E FF                  RST 38H
3901   198F FF                  RST 38H
3902   1990 FF                  RST 38H
3903   1991 FF                  RST 38H
3904   1992 FF                  RST 38H
3905   1993 FF                  RST 38H
3906   1994 FF                  RST 38H
3907   1995 FF                  RST 38H
3908   1996 FF                  RST 38H
3909   1997 FF                  RST 38H
3910   1998 FF                  RST 38H
3911   1999 FF                  RST 38H
3912   199A FF                  RST 38H
3913   199B FF                  RST 38H
3914   199C FF                  RST 38H
3915   199D FF                  RST 38H
3916   199E FF                  RST 38H
3917   199F FF                  RST 38H
3918   19A0 FF                  RST 38H
3919   19A1 FF                  RST 38H
3920   19A2 FF                  RST 38H
3921   19A3 FF                  RST 38H
3922   19A4 FF                  RST 38H
3923   19A5 FF                  RST 38H
3924   19A6 FF                  RST 38H
3925   19A7 FF                  RST 38H
3926   19A8 FF                  RST 38H
3927   19A9 FF                  RST 38H
3928   19AA FF                  RST 38H
3929   19AB FF                  RST 38H
3930   19AC FF                  RST 38H
3931   19AD FF                  RST 38H
3932   19AE FF                  RST 38H
3933   19AF FF                  RST 38H
3934   19B0 FF                  RST 38H
3935   19B1 FF                  RST 38H
3936   19B2 FF                  RST 38H
3937   19B3 FF                  RST 38H
3938   19B4 FF                  RST 38H
3939   19B5 FF                  RST 38H
3940   19B6 FF                  RST 38H
3941   19B7 FF                  RST 38H
3942   19B8 FF                  RST 38H
3943   19B9 FF                  RST 38H
3944   19BA FF                  RST 38H
3945   19BB FF                  RST 38H
3946   19BC FF                  RST 38H
3947   19BD FF                  RST 38H
3948   19BE FF                  RST 38H
3949   19BF FF                  RST 38H
3950   19C0 FF                  RST 38H
3951   19C1 FF                  RST 38H
3952   19C2 FF                  RST 38H
3953   19C3 FF                  RST 38H
3954   19C4 FF                  RST 38H
3955   19C5 FF                  RST 38H
3956   19C6 FF                  RST 38H
3957   19C7 FF                  RST 38H
3958   19C8 FF                  RST 38H
3959   19C9 FF                  RST 38H
3960   19CA FF                  RST 38H
3961   19CB FF                  RST 38H
3962   19CC FF                  RST 38H
3963   19CD FF                  RST 38H
3964   19CE FF                  RST 38H
3965   19CF FF                  RST 38H
3966   19D0 FF                  RST 38H
3967   19D1 FF                  RST 38H
3968   19D2 FF                  RST 38H
3969   19D3 FF                  RST 38H
3970   19D4 FF                  RST 38H
3971   19D5 FF                  RST 38H
3972   19D6 FF                  RST 38H
3973   19D7 FF                  RST 38H
3974   19D8 FF                  RST 38H
3975   19D9 FF                  RST 38H
3976   19DA FF                  RST 38H
3977   19DB FF                  RST 38H
3978   19DC FF                  RST 38H
3979   19DD FF                  RST 38H
3980   19DE FF                  RST 38H
3981   19DF FF                  RST 38H
3982   19E0 FF                  RST 38H
3983   19E1 FF                  RST 38H
3984   19E2 FF                  RST 38H
3985   19E3 FF                  RST 38H
3986   19E4 FF                  RST 38H
3987   19E5 FF                  RST 38H
3988   19E6 FF                  RST 38H
3989   19E7 FF                  RST 38H
3990   19E8 FF                  RST 38H
3991   19E9 FF                  RST 38H
3992   19EA FF                  RST 38H
3993   19EB FF                  RST 38H
3994   19EC FF                  RST 38H
3995   19ED FF                  RST 38H
3996   19EE FF                  RST 38H
3997   19EF FF                  RST 38H
3998   19F0 FF                  RST 38H
3999   19F1 FF                  RST 38H
4000   19F2 FF                  RST 38H
4001   19F3 FF                  RST 38H
4002   19F4 FF                  RST 38H
4003   19F5 FF                  RST 38H
4004   19F6 FF                  RST 38H
4005   19F7 FF                  RST 38H
4006   19F8 FF                  RST 38H
4007   19F9 FF                  RST 38H
4008   19FA FF                  RST 38H
4009   19FB FF                  RST 38H
4010   19FC FF                  RST 38H
4011   19FD FF                  RST 38H
4012   19FE FF                  RST 38H
4013   19FF FF                  RST 38H
4014   1A00 FF                  RST 38H
4015   1A01 FF                  RST 38H
4016   1A02 FF                  RST 38H
4017   1A03 FF                  RST 38H
4018   1A04 FF                  RST 38H
4019   1A05 FF                  RST 38H
4020   1A06 FF                  RST 38H
4021   1A07 FF                  RST 38H
4022   1A08 FF                  RST 38H
4023   1A09 FF                  RST 38H
4024   1A0A FF                  RST 38H
4025   1A0B FF                  RST 38H
4026   1A0C FF                  RST 38H
4027   1A0D FF                  RST 38H
4028   1A0E FF                  RST 38H
4029   1A0F FF                  RST 38H
4030   1A10 FF                  RST 38H
4031   1A11 FF                  RST 38H
4032   1A12 FF                  RST 38H
4033   1A13 FF                  RST 38H
4034   1A14 FF                  RST 38H
4035   1A15 FF                  RST 38H
4036   1A16 FF                  RST 38H
4037   1A17 FF                  RST 38H
4038   1A18 FF                  RST 38H
4039   1A19 FF                  RST 38H
4040   1A1A FF                  RST 38H
4041   1A1B FF                  RST 38H
4042   1A1C FF                  RST 38H
4043   1A1D FF                  RST 38H
4044   1A1E FF                  RST 38H
4045   1A1F FF                  RST 38H
4046   1A20 FF                  RST 38H
4047   1A21 FF                  RST 38H
4048   1A22 FF                  RST 38H
4049   1A23 FF                  RST 38H
4050   1A24 FF                  RST 38H
4051   1A25 FF                  RST 38H
4052   1A26 FF                  RST 38H
4053   1A27 FF                  RST 38H
4054   1A28 FF                  RST 38H
4055   1A29 FF                  RST 38H
4056   1A2A FF                  RST 38H
4057   1A2B FF                  RST 38H
4058   1A2C FF                  RST 38H
4059   1A2D FF                  RST 38H
4060   1A2E FF                  RST 38H
4061   1A2F FF                  RST 38H
4062   1A30 FF                  RST 38H
4063   1A31 FF                  RST 38H
4064   1A32 FF                  RST 38H
4065   1A33 FF                  RST 38H
4066   1A34 FF                  RST 38H
4067   1A35 FF                  RST 38H
4068   1A36 FF                  RST 38H
4069   1A37 FF                  RST 38H
4070   1A38 FF                  RST 38H
4071   1A39 FF                  RST 38H
4072   1A3A FF                  RST 38H
4073   1A3B FF                  RST 38H
4074   1A3C FF                  RST 38H
4075   1A3D FF                  RST 38H
4076   1A3E FF                  RST 38H
4077   1A3F FF                  RST 38H
4078   1A40 FF                  RST 38H
4079   1A41 FF                  RST 38H
4080   1A42 FF                  RST 38H
4081   1A43 FF                  RST 38H
4082   1A44 FF                  RST 38H
4083   1A45 FF                  RST 38H
4084   1A46 FF                  RST 38H
4085   1A47 FF                  RST 38H
4086   1A48 FF                  RST 38H
4087   1A49 FF                  RST 38H
4088   1A4A FF                  RST 38H
4089   1A4B FF                  RST 38H
4090   1A4C FF                  RST 38H
4091   1A4D FF                  RST 38H
4092   1A4E FF                  RST 38H
4093   1A4F FF                  RST 38H
4094   1A50 FF                  RST 38H
4095   1A51 FF                  RST 38H
4096   1A52 FF                  RST 38H
4097   1A53 FF                  RST 38H
4098   1A54 FF                  RST 38H
4099   1A55 FF                  RST 38H
4100   1A56 FF                  RST 38H
4101   1A57 FF                  RST 38H
4102   1A58 FF                  RST 38H
4103   1A59 FF                  RST 38H
4104   1A5A FF                  RST 38H
4105   1A5B FF                  RST 38H
4106   1A5C FF                  RST 38H
4107   1A5D FF                  RST 38H
4108   1A5E FF                  RST 38H
4109   1A5F FF                  RST 38H
4110   1A60 FF                  RST 38H
4111   1A61 FF                  RST 38H
4112   1A62 FF                  RST 38H
4113   1A63 FF                  RST 38H
4114   1A64 FF                  RST 38H
4115   1A65 FF                  RST 38H
4116   1A66 FF                  RST 38H
4117   1A67 FF                  RST 38H
4118   1A68 FF                  RST 38H
4119   1A69 FF                  RST 38H
4120   1A6A FF                  RST 38H
4121   1A6B FF                  RST 38H
4122   1A6C FF                  RST 38H
4123   1A6D FF                  RST 38H
4124   1A6E FF                  RST 38H
4125   1A6F FF                  RST 38H
4126   1A70 FF                  RST 38H
4127   1A71 FF                  RST 38H
4128   1A72 FF                  RST 38H
4129   1A73 FF                  RST 38H
4130   1A74 FF                  RST 38H
4131   1A75 FF                  RST 38H
4132   1A76 FF                  RST 38H
4133   1A77 FF                  RST 38H
4134   1A78 FF                  RST 38H
4135   1A79 FF                  RST 38H
4136   1A7A FF                  RST 38H
4137   1A7B FF                  RST 38H
4138   1A7C FF                  RST 38H
4139   1A7D FF                  RST 38H
4140   1A7E FF                  RST 38H
4141   1A7F FF                  RST 38H
4142   1A80 FF                  RST 38H
4143   1A81 FF                  RST 38H
4144   1A82 FF                  RST 38H
4145   1A83 FF                  RST 38H
4146   1A84 FF                  RST 38H
4147   1A85 FF                  RST 38H
4148   1A86 FF                  RST 38H
4149   1A87 FF                  RST 38H
4150   1A88 FF                  RST 38H
4151   1A89 FF                  RST 38H
4152   1A8A FF                  RST 38H
4153   1A8B FF                  RST 38H
4154   1A8C FF                  RST 38H
4155   1A8D FF                  RST 38H
4156   1A8E FF                  RST 38H
4157   1A8F FF                  RST 38H
4158   1A90 FF                  RST 38H
4159   1A91 FF                  RST 38H
4160   1A92 FF                  RST 38H
4161   1A93 FF                  RST 38H
4162   1A94 FF                  RST 38H
4163   1A95 FF                  RST 38H
4164   1A96 FF                  RST 38H
4165   1A97 FF                  RST 38H
4166   1A98 FF                  RST 38H
4167   1A99 FF                  RST 38H
4168   1A9A FF                  RST 38H
4169   1A9B FF                  RST 38H
4170   1A9C FF                  RST 38H
4171   1A9D FF                  RST 38H
4172   1A9E FF                  RST 38H
4173   1A9F FF                  RST 38H
4174   1AA0 FF                  RST 38H
4175   1AA1 FF                  RST 38H
4176   1AA2 FF                  RST 38H
4177   1AA3 FF                  RST 38H
4178   1AA4 FF                  RST 38H
4179   1AA5 FF                  RST 38H
4180   1AA6 FF                  RST 38H
4181   1AA7 FF                  RST 38H
4182   1AA8 FF                  RST 38H
4183   1AA9 FF                  RST 38H
4184   1AAA FF                  RST 38H
4185   1AAB FF                  RST 38H
4186   1AAC FF                  RST 38H
4187   1AAD FF                  RST 38H
4188   1AAE FF                  RST 38H
4189   1AAF FF                  RST 38H
4190   1AB0 FF                  RST 38H
4191   1AB1 FF                  RST 38H
4192   1AB2 FF                  RST 38H
4193   1AB3 FF                  RST 38H
4194   1AB4 FF                  RST 38H
4195   1AB5 FF                  RST 38H
4196   1AB6 FF                  RST 38H
4197   1AB7 FF                  RST 38H
4198   1AB8 FF                  RST 38H
4199   1AB9 FF                  RST 38H
4200   1ABA FF                  RST 38H
4201   1ABB FF                  RST 38H
4202   1ABC FF                  RST 38H
4203   1ABD FF                  RST 38H
4204   1ABE FF                  RST 38H
4205   1ABF FF                  RST 38H
4206   1AC0 FF                  RST 38H
4207   1AC1 FF                  RST 38H
4208   1AC2 FF                  RST 38H
4209   1AC3 FF                  RST 38H
4210   1AC4 FF                  RST 38H
4211   1AC5 FF                  RST 38H
4212   1AC6 FF                  RST 38H
4213   1AC7 FF                  RST 38H
4214   1AC8 FF                  RST 38H
4215   1AC9 FF                  RST 38H
4216   1ACA FF                  RST 38H
4217   1ACB FF                  RST 38H
4218   1ACC FF                  RST 38H
4219   1ACD FF                  RST 38H
4220   1ACE FF                  RST 38H
4221   1ACF FF                  RST 38H
4222   1AD0 FF                  RST 38H
4223   1AD1 FF                  RST 38H
4224   1AD2 FF                  RST 38H
4225   1AD3 FF                  RST 38H
4226   1AD4 FF                  RST 38H
4227   1AD5 FF                  RST 38H
4228   1AD6 FF                  RST 38H
4229   1AD7 FF                  RST 38H
4230   1AD8 FF                  RST 38H
4231   1AD9 FF                  RST 38H
4232   1ADA FF                  RST 38H
4233   1ADB FF                  RST 38H
4234   1ADC FF                  RST 38H
4235   1ADD FF                  RST 38H
4236   1ADE FF                  RST 38H
4237   1ADF FF                  RST 38H
4238   1AE0 FF                  RST 38H
4239   1AE1 FF                  RST 38H
4240   1AE2 FF                  RST 38H
4241   1AE3 FF                  RST 38H
4242   1AE4 FF                  RST 38H
4243   1AE5 FF                  RST 38H
4244   1AE6 FF                  RST 38H
4245   1AE7 FF                  RST 38H
4246   1AE8 FF                  RST 38H
4247   1AE9 FF                  RST 38H
4248   1AEA FF                  RST 38H
4249   1AEB FF                  RST 38H
4250   1AEC FF                  RST 38H
4251   1AED FF                  RST 38H
4252   1AEE FF                  RST 38H
4253   1AEF FF                  RST 38H
4254   1AF0 FF                  RST 38H
4255   1AF1 FF                  RST 38H
4256   1AF2 FF                  RST 38H
4257   1AF3 FF                  RST 38H
4258   1AF4 FF                  RST 38H
4259   1AF5 FF                  RST 38H
4260   1AF6 FF                  RST 38H
4261   1AF7 FF                  RST 38H
4262   1AF8 FF                  RST 38H
4263   1AF9 FF                  RST 38H
4264   1AFA FF                  RST 38H
4265   1AFB FF                  RST 38H
4266   1AFC FF                  RST 38H
4267   1AFD FF                  RST 38H
4268   1AFE FF                  RST 38H
4269   1AFF FF                  RST 38H
4270   1B00 FF                  RST 38H
4271   1B01 FF                  RST 38H
4272   1B02 FF                  RST 38H
4273   1B03 FF                  RST 38H
4274   1B04 FF                  RST 38H
4275   1B05 FF                  RST 38H
4276   1B06 FF                  RST 38H
4277   1B07 FF                  RST 38H
4278   1B08 FF                  RST 38H
4279   1B09 FF                  RST 38H
4280   1B0A FF                  RST 38H
4281   1B0B FF                  RST 38H
4282   1B0C FF                  RST 38H
4283   1B0D FF                  RST 38H
4284   1B0E FF                  RST 38H
4285   1B0F FF                  RST 38H
4286   1B10 FF                  RST 38H
4287   1B11 FF                  RST 38H
4288   1B12 FF                  RST 38H
4289   1B13 FF                  RST 38H
4290   1B14 FF                  RST 38H
4291   1B15 FF                  RST 38H
4292   1B16 FF                  RST 38H
4293   1B17 FF                  RST 38H
4294   1B18 FF                  RST 38H
4295   1B19 FF                  RST 38H
4296   1B1A FF                  RST 38H
4297   1B1B FF                  RST 38H
4298   1B1C FF                  RST 38H
4299   1B1D FF                  RST 38H
4300   1B1E FF                  RST 38H
4301   1B1F FF                  RST 38H
4302   1B20 FF                  RST 38H
4303   1B21 FF                  RST 38H
4304   1B22 FF                  RST 38H
4305   1B23 FF                  RST 38H
4306   1B24 FF                  RST 38H
4307   1B25 FF                  RST 38H
4308   1B26 FF                  RST 38H
4309   1B27 FF                  RST 38H
4310   1B28 FF                  RST 38H
4311   1B29 FF                  RST 38H
4312   1B2A FF                  RST 38H
4313   1B2B FF                  RST 38H
4314   1B2C FF                  RST 38H
4315   1B2D FF                  RST 38H
4316   1B2E FF                  RST 38H
4317   1B2F FF                  RST 38H
4318   1B30 FF                  RST 38H
4319   1B31 FF                  RST 38H
4320   1B32 FF                  RST 38H
4321   1B33 FF                  RST 38H
4322   1B34 FF                  RST 38H
4323   1B35 FF                  RST 38H
4324   1B36 FF                  RST 38H
4325   1B37 FF                  RST 38H
4326   1B38 FF                  RST 38H
4327   1B39 FF                  RST 38H
4328   1B3A FF                  RST 38H
4329   1B3B FF                  RST 38H
4330   1B3C FF                  RST 38H
4331   1B3D FF                  RST 38H
4332   1B3E FF                  RST 38H
4333   1B3F FF                  RST 38H
4334   1B40 FF                  RST 38H
4335   1B41 FF                  RST 38H
4336   1B42 FF                  RST 38H
4337   1B43 FF                  RST 38H
4338   1B44 FF                  RST 38H
4339   1B45 FF                  RST 38H
4340   1B46 FF                  RST 38H
4341   1B47 FF                  RST 38H
4342   1B48 FF                  RST 38H
4343   1B49 FF                  RST 38H
4344   1B4A FF                  RST 38H
4345   1B4B FF                  RST 38H
4346   1B4C FF                  RST 38H
4347   1B4D FF                  RST 38H
4348   1B4E FF                  RST 38H
4349   1B4F FF                  RST 38H
4350   1B50 FF                  RST 38H
4351   1B51 FF                  RST 38H
4352   1B52 FF                  RST 38H
4353   1B53 FF                  RST 38H
4354   1B54 FF                  RST 38H
4355   1B55 FF                  RST 38H
4356   1B56 FF                  RST 38H
4357   1B57 FF                  RST 38H
4358   1B58 FF                  RST 38H
4359   1B59 FF                  RST 38H
4360   1B5A FF                  RST 38H
4361   1B5B FF                  RST 38H
4362   1B5C FF                  RST 38H
4363   1B5D FF                  RST 38H
4364   1B5E FF                  RST 38H
4365   1B5F FF                  RST 38H
4366   1B60 FF                  RST 38H
4367   1B61 FF                  RST 38H
4368   1B62 FF                  RST 38H
4369   1B63 FF                  RST 38H
4370   1B64 FF                  RST 38H
4371   1B65 FF                  RST 38H
4372   1B66 FF                  RST 38H
4373   1B67 FF                  RST 38H
4374   1B68 FF                  RST 38H
4375   1B69 FF                  RST 38H
4376   1B6A FF                  RST 38H
4377   1B6B FF                  RST 38H
4378   1B6C FF                  RST 38H
4379   1B6D FF                  RST 38H
4380   1B6E FF                  RST 38H
4381   1B6F FF                  RST 38H
4382   1B70 FF                  RST 38H
4383   1B71 FF                  RST 38H
4384   1B72 FF                  RST 38H
4385   1B73 FF                  RST 38H
4386   1B74 FF                  RST 38H
4387   1B75 FF                  RST 38H
4388   1B76 FF                  RST 38H
4389   1B77 FF                  RST 38H
4390   1B78 FF                  RST 38H
4391   1B79 FF                  RST 38H
4392   1B7A FF                  RST 38H
4393   1B7B FF                  RST 38H
4394   1B7C FF                  RST 38H
4395   1B7D FF                  RST 38H
4396   1B7E FF                  RST 38H
4397   1B7F FF                  RST 38H
4398   1B80 FF                  RST 38H
4399   1B81 FF                  RST 38H
4400   1B82 FF                  RST 38H
4401   1B83 FF                  RST 38H
4402   1B84 FF                  RST 38H
4403   1B85 FF                  RST 38H
4404   1B86 FF                  RST 38H
4405   1B87 FF                  RST 38H
4406   1B88 FF                  RST 38H
4407   1B89 FF                  RST 38H
4408   1B8A FF                  RST 38H
4409   1B8B FF                  RST 38H
4410   1B8C FF                  RST 38H
4411   1B8D FF                  RST 38H
4412   1B8E FF                  RST 38H
4413   1B8F FF                  RST 38H
4414   1B90 FF                  RST 38H
4415   1B91 FF                  RST 38H
4416   1B92 FF                  RST 38H
4417   1B93 FF                  RST 38H
4418   1B94 FF                  RST 38H
4419   1B95 FF                  RST 38H
4420   1B96 FF                  RST 38H
4421   1B97 FF                  RST 38H
4422   1B98 FF                  RST 38H
4423   1B99 FF                  RST 38H
4424   1B9A FF                  RST 38H
4425   1B9B FF                  RST 38H
4426   1B9C FF                  RST 38H
4427   1B9D FF                  RST 38H
4428   1B9E FF                  RST 38H
4429   1B9F FF                  RST 38H
4430   1BA0 FF                  RST 38H
4431   1BA1 FF                  RST 38H
4432   1BA2 FF                  RST 38H
4433   1BA3 FF                  RST 38H
4434   1BA4 FF                  RST 38H
4435   1BA5 FF                  RST 38H
4436   1BA6 FF                  RST 38H
4437   1BA7 FF                  RST 38H
4438   1BA8 FF                  RST 38H
4439   1BA9 FF                  RST 38H
4440   1BAA FF                  RST 38H
4441   1BAB FF                  RST 38H
4442   1BAC FF                  RST 38H
4443   1BAD FF                  RST 38H
4444   1BAE FF                  RST 38H
4445   1BAF FF                  RST 38H
4446   1BB0 FF                  RST 38H
4447   1BB1 FF                  RST 38H
4448   1BB2 FF                  RST 38H
4449   1BB3 FF                  RST 38H
4450   1BB4 FF                  RST 38H
4451   1BB5 FF                  RST 38H
4452   1BB6 FF                  RST 38H
4453   1BB7 FF                  RST 38H
4454   1BB8 FF                  RST 38H
4455   1BB9 FF                  RST 38H
4456   1BBA FF                  RST 38H
4457   1BBB FF                  RST 38H
4458   1BBC FF                  RST 38H
4459   1BBD FF                  RST 38H
4460   1BBE FF                  RST 38H
4461   1BBF FF                  RST 38H
4462   1BC0 FF                  RST 38H
4463   1BC1 FF                  RST 38H
4464   1BC2 FF                  RST 38H
4465   1BC3 FF                  RST 38H
4466   1BC4 FF                  RST 38H
4467   1BC5 FF                  RST 38H
4468   1BC6 FF                  RST 38H
4469   1BC7 FF                  RST 38H
4470   1BC8 FF                  RST 38H
4471   1BC9 FF                  RST 38H
4472   1BCA FF                  RST 38H
4473   1BCB FF                  RST 38H
4474   1BCC FF                  RST 38H
4475   1BCD FF                  RST 38H
4476   1BCE FF                  RST 38H
4477   1BCF FF                  RST 38H
4478   1BD0 FF                  RST 38H
4479   1BD1 FF                  RST 38H
4480   1BD2 FF                  RST 38H
4481   1BD3 FF                  RST 38H
4482   1BD4 FF                  RST 38H
4483   1BD5 FF                  RST 38H
4484   1BD6 FF                  RST 38H
4485   1BD7 FF                  RST 38H
4486   1BD8 FF                  RST 38H
4487   1BD9 FF                  RST 38H
4488   1BDA FF                  RST 38H
4489   1BDB FF                  RST 38H
4490   1BDC FF                  RST 38H
4491   1BDD FF                  RST 38H
4492   1BDE FF                  RST 38H
4493   1BDF FF                  RST 38H
4494   1BE0 FF                  RST 38H
4495   1BE1 FF                  RST 38H
4496   1BE2 FF                  RST 38H
4497   1BE3 FF                  RST 38H
4498   1BE4 FF                  RST 38H
4499   1BE5 FF                  RST 38H
4500   1BE6 FF                  RST 38H
4501   1BE7 FF                  RST 38H
4502   1BE8 FF                  RST 38H
4503   1BE9 FF                  RST 38H
4504   1BEA FF                  RST 38H
4505   1BEB FF                  RST 38H
4506   1BEC FF                  RST 38H
4507   1BED FF                  RST 38H
4508   1BEE FF                  RST 38H
4509   1BEF FF                  RST 38H
4510   1BF0 FF                  RST 38H
4511   1BF1 FF                  RST 38H
4512   1BF2 FF                  RST 38H
4513   1BF3 FF                  RST 38H
4514   1BF4 FF                  RST 38H
4515   1BF5 FF                  RST 38H
4516   1BF6 FF                  RST 38H
4517   1BF7 FF                  RST 38H
4518   1BF8 FF                  RST 38H
4519   1BF9 FF                  RST 38H
4520   1BFA FF                  RST 38H
4521   1BFB FF                  RST 38H
4522   1BFC FF                  RST 38H
4523   1BFD FF                  RST 38H
4524   1BFE FF                  RST 38H
4525   1BFF FF                  RST 38H
4526   1C00 FF                  RST 38H
4527   1C01 FF                  RST 38H
4528   1C02 FF                  RST 38H
4529   1C03 FF                  RST 38H
4530   1C04 FF                  RST 38H
4531   1C05 FF                  RST 38H
4532   1C06 FF                  RST 38H
4533   1C07 FF                  RST 38H
4534   1C08 FF                  RST 38H
4535   1C09 FF                  RST 38H
4536   1C0A FF                  RST 38H
4537   1C0B FF                  RST 38H
4538   1C0C FF                  RST 38H
4539   1C0D FF                  RST 38H
4540   1C0E FF                  RST 38H
4541   1C0F FF                  RST 38H
4542   1C10 FF                  RST 38H
4543   1C11 FF                  RST 38H
4544   1C12 FF                  RST 38H
4545   1C13 FF                  RST 38H
4546   1C14 FF                  RST 38H
4547   1C15 FF                  RST 38H
4548   1C16 FF                  RST 38H
4549   1C17 FF                  RST 38H
4550   1C18 FF                  RST 38H
4551   1C19 FF                  RST 38H
4552   1C1A FF                  RST 38H
4553   1C1B FF                  RST 38H
4554   1C1C FF                  RST 38H
4555   1C1D FF                  RST 38H
4556   1C1E FF                  RST 38H
4557   1C1F FF                  RST 38H
4558   1C20 FF                  RST 38H
4559   1C21 FF                  RST 38H
4560   1C22 FF                  RST 38H
4561   1C23 FF                  RST 38H
4562   1C24 FF                  RST 38H
4563   1C25 FF                  RST 38H
4564   1C26 FF                  RST 38H
4565   1C27 FF                  RST 38H
4566   1C28 FF                  RST 38H
4567   1C29 FF                  RST 38H
4568   1C2A FF                  RST 38H
4569   1C2B FF                  RST 38H
4570   1C2C FF                  RST 38H
4571   1C2D FF                  RST 38H
4572   1C2E FF                  RST 38H
4573   1C2F FF                  RST 38H
4574   1C30 FF                  RST 38H
4575   1C31 FF                  RST 38H
4576   1C32 FF                  RST 38H
4577   1C33 FF                  RST 38H
4578   1C34 FF                  RST 38H
4579   1C35 FF                  RST 38H
4580   1C36 FF                  RST 38H
4581   1C37 FF                  RST 38H
4582   1C38 FF                  RST 38H
4583   1C39 FF                  RST 38H
4584   1C3A FF                  RST 38H
4585   1C3B FF                  RST 38H
4586   1C3C FF                  RST 38H
4587   1C3D FF                  RST 38H
4588   1C3E FF                  RST 38H
4589   1C3F FF                  RST 38H
4590   1C40 FF                  RST 38H
4591   1C41 FF                  RST 38H
4592   1C42 FF                  RST 38H
4593   1C43 FF                  RST 38H
4594   1C44 FF                  RST 38H
4595   1C45 FF                  RST 38H
4596   1C46 FF                  RST 38H
4597   1C47 FF                  RST 38H
4598   1C48 FF                  RST 38H
4599   1C49 FF                  RST 38H
4600   1C4A FF                  RST 38H
4601   1C4B FF                  RST 38H
4602   1C4C FF                  RST 38H
4603   1C4D FF                  RST 38H
4604   1C4E FF                  RST 38H
4605   1C4F FF                  RST 38H
4606   1C50 FF                  RST 38H
4607   1C51 FF                  RST 38H
4608   1C52 FF                  RST 38H
4609   1C53 FF                  RST 38H
4610   1C54 FF                  RST 38H
4611   1C55 FF                  RST 38H
4612   1C56 FF                  RST 38H
4613   1C57 FF                  RST 38H
4614   1C58 FF                  RST 38H
4615   1C59 FF                  RST 38H
4616   1C5A FF                  RST 38H
4617   1C5B FF                  RST 38H
4618   1C5C FF                  RST 38H
4619   1C5D FF                  RST 38H
4620   1C5E FF                  RST 38H
4621   1C5F FF                  RST 38H
4622   1C60 FF                  RST 38H
4623   1C61 FF                  RST 38H
4624   1C62 FF                  RST 38H
4625   1C63 FF                  RST 38H
4626   1C64 FF                  RST 38H
4627   1C65 FF                  RST 38H
4628   1C66 FF                  RST 38H
4629   1C67 FF                  RST 38H
4630   1C68 FF                  RST 38H
4631   1C69 FF                  RST 38H
4632   1C6A FF                  RST 38H
4633   1C6B FF                  RST 38H
4634   1C6C FF                  RST 38H
4635   1C6D FF                  RST 38H
4636   1C6E FF                  RST 38H
4637   1C6F FF                  RST 38H
4638   1C70 FF                  RST 38H
4639   1C71 FF                  RST 38H
4640   1C72 FF                  RST 38H
4641   1C73 FF                  RST 38H
4642   1C74 FF                  RST 38H
4643   1C75 FF                  RST 38H
4644   1C76 FF                  RST 38H
4645   1C77 FF                  RST 38H
4646   1C78 FF                  RST 38H
4647   1C79 FF                  RST 38H
4648   1C7A FF                  RST 38H
4649   1C7B FF                  RST 38H
4650   1C7C FF                  RST 38H
4651   1C7D FF                  RST 38H
4652   1C7E FF                  RST 38H
4653   1C7F FF                  RST 38H
4654   1C80 FF                  RST 38H
4655   1C81 FF                  RST 38H
4656   1C82 FF                  RST 38H
4657   1C83 FF                  RST 38H
4658   1C84 FF                  RST 38H
4659   1C85 FF                  RST 38H
4660   1C86 FF                  RST 38H
4661   1C87 FF                  RST 38H
4662   1C88 FF                  RST 38H
4663   1C89 FF                  RST 38H
4664   1C8A FF                  RST 38H
4665   1C8B FF                  RST 38H
4666   1C8C FF                  RST 38H
4667   1C8D FF                  RST 38H
4668   1C8E FF                  RST 38H
4669   1C8F FF                  RST 38H
4670   1C90 FF                  RST 38H
4671   1C91 FF                  RST 38H
4672   1C92 FF                  RST 38H
4673   1C93 FF                  RST 38H
4674   1C94 FF                  RST 38H
4675   1C95 FF                  RST 38H
4676   1C96 FF                  RST 38H
4677   1C97 FF                  RST 38H
4678   1C98 FF                  RST 38H
4679   1C99 FF                  RST 38H
4680   1C9A FF                  RST 38H
4681   1C9B FF                  RST 38H
4682   1C9C FF                  RST 38H
4683   1C9D FF                  RST 38H
4684   1C9E FF                  RST 38H
4685   1C9F FF                  RST 38H
4686   1CA0 FF                  RST 38H
4687   1CA1 FF                  RST 38H
4688   1CA2 FF                  RST 38H
4689   1CA3 FF                  RST 38H
4690   1CA4 FF                  RST 38H
4691   1CA5 FF                  RST 38H
4692   1CA6 FF                  RST 38H
4693   1CA7 FF                  RST 38H
4694   1CA8 FF                  RST 38H
4695   1CA9 FF                  RST 38H
4696   1CAA FF                  RST 38H
4697   1CAB FF                  RST 38H
4698   1CAC FF                  RST 38H
4699   1CAD FF                  RST 38H
4700   1CAE FF                  RST 38H
4701   1CAF FF                  RST 38H
4702   1CB0 FF                  RST 38H
4703   1CB1 FF                  RST 38H
4704   1CB2 FF                  RST 38H
4705   1CB3 FF                  RST 38H
4706   1CB4 FF                  RST 38H
4707   1CB5 FF                  RST 38H
4708   1CB6 FF                  RST 38H
4709   1CB7 FF                  RST 38H
4710   1CB8 FF                  RST 38H
4711   1CB9 FF                  RST 38H
4712   1CBA FF                  RST 38H
4713   1CBB FF                  RST 38H
4714   1CBC FF                  RST 38H
4715   1CBD FF                  RST 38H
4716   1CBE FF                  RST 38H
4717   1CBF FF                  RST 38H
4718   1CC0 FF                  RST 38H
4719   1CC1 FF                  RST 38H
4720   1CC2 FF                  RST 38H
4721   1CC3 FF                  RST 38H
4722   1CC4 FF                  RST 38H
4723   1CC5 FF                  RST 38H
4724   1CC6 FF                  RST 38H
4725   1CC7 FF                  RST 38H
4726   1CC8 FF                  RST 38H
4727   1CC9 FF                  RST 38H
4728   1CCA FF                  RST 38H
4729   1CCB FF                  RST 38H
4730   1CCC FF                  RST 38H
4731   1CCD FF                  RST 38H
4732   1CCE FF                  RST 38H
4733   1CCF FF                  RST 38H
4734   1CD0 FF                  RST 38H
4735   1CD1 FF                  RST 38H
4736   1CD2 FF                  RST 38H
4737   1CD3 FF                  RST 38H
4738   1CD4 FF                  RST 38H
4739   1CD5 FF                  RST 38H
4740   1CD6 FF                  RST 38H
4741   1CD7 FF                  RST 38H
4742   1CD8 FF                  RST 38H
4743   1CD9 FF                  RST 38H
4744   1CDA FF                  RST 38H
4745   1CDB FF                  RST 38H
4746   1CDC FF                  RST 38H
4747   1CDD FF                  RST 38H
4748   1CDE FF                  RST 38H
4749   1CDF FF                  RST 38H
4750   1CE0 FF                  RST 38H
4751   1CE1 FF                  RST 38H
4752   1CE2 FF                  RST 38H
4753   1CE3 FF                  RST 38H
4754   1CE4 FF                  RST 38H
4755   1CE5 FF                  RST 38H
4756   1CE6 FF                  RST 38H
4757   1CE7 FF                  RST 38H
4758   1CE8 FF                  RST 38H
4759   1CE9 FF                  RST 38H
4760   1CEA FF                  RST 38H
4761   1CEB FF                  RST 38H
4762   1CEC FF                  RST 38H
4763   1CED FF                  RST 38H
4764   1CEE FF                  RST 38H
4765   1CEF FF                  RST 38H
4766   1CF0 FF                  RST 38H
4767   1CF1 FF                  RST 38H
4768   1CF2 FF                  RST 38H
4769   1CF3 FF                  RST 38H
4770   1CF4 FF                  RST 38H
4771   1CF5 FF                  RST 38H
4772   1CF6 FF                  RST 38H
4773   1CF7 FF                  RST 38H
4774   1CF8 FF                  RST 38H
4775   1CF9 FF                  RST 38H
4776   1CFA FF                  RST 38H
4777   1CFB FF                  RST 38H
4778   1CFC FF                  RST 38H
4779   1CFD FF                  RST 38H
4780   1CFE FF                  RST 38H
4781   1CFF FF                  RST 38H
4782   1D00 FF                  RST 38H
4783   1D01 FF                  RST 38H
4784   1D02 FF                  RST 38H
4785   1D03 FF                  RST 38H
4786   1D04 FF                  RST 38H
4787   1D05 FF                  RST 38H
4788   1D06 FF                  RST 38H
4789   1D07 FF                  RST 38H
4790   1D08 FF                  RST 38H
4791   1D09 FF                  RST 38H
4792   1D0A FF                  RST 38H
4793   1D0B FF                  RST 38H
4794   1D0C FF                  RST 38H
4795   1D0D FF                  RST 38H
4796   1D0E FF                  RST 38H
4797   1D0F FF                  RST 38H
4798   1D10 FF                  RST 38H
4799   1D11 FF                  RST 38H
4800   1D12 FF                  RST 38H
4801   1D13 FF                  RST 38H
4802   1D14 FF                  RST 38H
4803   1D15 FF                  RST 38H
4804   1D16 FF                  RST 38H
4805   1D17 FF                  RST 38H
4806   1D18 FF                  RST 38H
4807   1D19 FF                  RST 38H
4808   1D1A FF                  RST 38H
4809   1D1B FF                  RST 38H
4810   1D1C FF                  RST 38H
4811   1D1D FF                  RST 38H
4812   1D1E FF                  RST 38H
4813   1D1F FF                  RST 38H
4814   1D20 FF                  RST 38H
4815   1D21 FF                  RST 38H
4816   1D22 FF                  RST 38H
4817   1D23 FF                  RST 38H
4818   1D24 FF                  RST 38H
4819   1D25 FF                  RST 38H
4820   1D26 FF                  RST 38H
4821   1D27 FF                  RST 38H
4822   1D28 FF                  RST 38H
4823   1D29 FF                  RST 38H
4824   1D2A FF                  RST 38H
4825   1D2B FF                  RST 38H
4826   1D2C FF                  RST 38H
4827   1D2D FF                  RST 38H
4828   1D2E FF                  RST 38H
4829   1D2F FF                  RST 38H
4830   1D30 FF                  RST 38H
4831   1D31 FF                  RST 38H
4832   1D32 FF                  RST 38H
4833   1D33 FF                  RST 38H
4834   1D34 FF                  RST 38H
4835   1D35 FF                  RST 38H
4836   1D36 FF                  RST 38H
4837   1D37 FF                  RST 38H
4838   1D38 FF                  RST 38H
4839   1D39 FF                  RST 38H
4840   1D3A FF                  RST 38H
4841   1D3B FF                  RST 38H
4842   1D3C FF                  RST 38H
4843   1D3D FF                  RST 38H
4844   1D3E FF                  RST 38H
4845   1D3F FF                  RST 38H
4846   1D40 FF                  RST 38H
4847   1D41 FF                  RST 38H
4848   1D42 FF                  RST 38H
4849   1D43 FF                  RST 38H
4850   1D44 FF                  RST 38H
4851   1D45 FF                  RST 38H
4852   1D46 FF                  RST 38H
4853   1D47 FF                  RST 38H
4854   1D48 FF                  RST 38H
4855   1D49 FF                  RST 38H
4856   1D4A FF                  RST 38H
4857   1D4B FF                  RST 38H
4858   1D4C FF                  RST 38H
4859   1D4D FF                  RST 38H
4860   1D4E FF                  RST 38H
4861   1D4F FF                  RST 38H
4862   1D50 FF                  RST 38H
4863   1D51 FF                  RST 38H
4864   1D52 FF                  RST 38H
4865   1D53 FF                  RST 38H
4866   1D54 FF                  RST 38H
4867   1D55 FF                  RST 38H
4868   1D56 FF                  RST 38H
4869   1D57 FF                  RST 38H
4870   1D58 FF                  RST 38H
4871   1D59 FF                  RST 38H
4872   1D5A FF                  RST 38H
4873   1D5B FF                  RST 38H
4874   1D5C FF                  RST 38H
4875   1D5D FF                  RST 38H
4876   1D5E FF                  RST 38H
4877   1D5F FF                  RST 38H
4878   1D60 FF                  RST 38H
4879   1D61 FF                  RST 38H
4880   1D62 FF                  RST 38H
4881   1D63 FF                  RST 38H
4882   1D64 FF                  RST 38H
4883   1D65 FF                  RST 38H
4884   1D66 FF                  RST 38H
4885   1D67 FF                  RST 38H
4886   1D68 FF                  RST 38H
4887   1D69 FF                  RST 38H
4888   1D6A FF                  RST 38H
4889   1D6B FF                  RST 38H
4890   1D6C FF                  RST 38H
4891   1D6D FF                  RST 38H
4892   1D6E FF                  RST 38H
4893   1D6F FF                  RST 38H
4894   1D70 FF                  RST 38H
4895   1D71 FF                  RST 38H
4896   1D72 FF                  RST 38H
4897   1D73 FF                  RST 38H
4898   1D74 FF                  RST 38H
4899   1D75 FF                  RST 38H
4900   1D76 FF                  RST 38H
4901   1D77 FF                  RST 38H
4902   1D78 FF                  RST 38H
4903   1D79 FF                  RST 38H
4904   1D7A FF                  RST 38H
4905   1D7B FF                  RST 38H
4906   1D7C FF                  RST 38H
4907   1D7D FF                  RST 38H
4908   1D7E FF                  RST 38H
4909   1D7F FF                  RST 38H
4910   1D80 FF                  RST 38H
4911   1D81 FF                  RST 38H
4912   1D82 FF                  RST 38H
4913   1D83 FF                  RST 38H
4914   1D84 FF                  RST 38H
4915   1D85 FF                  RST 38H
4916   1D86 FF                  RST 38H
4917   1D87 FF                  RST 38H
4918   1D88 FF                  RST 38H
4919   1D89 FF                  RST 38H
4920   1D8A FF                  RST 38H
4921   1D8B FF                  RST 38H
4922   1D8C FF                  RST 38H
4923   1D8D FF                  RST 38H
4924   1D8E FF                  RST 38H
4925   1D8F FF                  RST 38H
4926   1D90 FF                  RST 38H
4927   1D91 FF                  RST 38H
4928   1D92 FF                  RST 38H
4929   1D93 FF                  RST 38H
4930   1D94 FF                  RST 38H
4931   1D95 FF                  RST 38H
4932   1D96 FF                  RST 38H
4933   1D97 FF                  RST 38H
4934   1D98 FF                  RST 38H
4935   1D99 FF                  RST 38H
4936   1D9A FF                  RST 38H
4937   1D9B FF                  RST 38H
4938   1D9C FF                  RST 38H
4939   1D9D FF                  RST 38H
4940   1D9E FF                  RST 38H
4941   1D9F FF                  RST 38H
4942   1DA0 FF                  RST 38H
4943   1DA1 FF                  RST 38H
4944   1DA2 FF                  RST 38H
4945   1DA3 FF                  RST 38H
4946   1DA4 FF                  RST 38H
4947   1DA5 FF                  RST 38H
4948   1DA6 FF                  RST 38H
4949   1DA7 FF                  RST 38H
4950   1DA8 FF                  RST 38H
4951   1DA9 FF                  RST 38H
4952   1DAA FF                  RST 38H
4953   1DAB FF                  RST 38H
4954   1DAC FF                  RST 38H
4955   1DAD FF                  RST 38H
4956   1DAE FF                  RST 38H
4957   1DAF FF                  RST 38H
4958   1DB0 FF                  RST 38H
4959   1DB1 FF                  RST 38H
4960   1DB2 FF                  RST 38H
4961   1DB3 FF                  RST 38H
4962   1DB4 FF                  RST 38H
4963   1DB5 FF                  RST 38H
4964   1DB6 FF                  RST 38H
4965   1DB7 FF                  RST 38H
4966   1DB8 FF                  RST 38H
4967   1DB9 FF                  RST 38H
4968   1DBA FF                  RST 38H
4969   1DBB FF                  RST 38H
4970   1DBC FF                  RST 38H
4971   1DBD FF                  RST 38H
4972   1DBE FF                  RST 38H
4973   1DBF FF                  RST 38H
4974   1DC0 FF                  RST 38H
4975   1DC1 FF                  RST 38H
4976   1DC2 FF                  RST 38H
4977   1DC3 FF                  RST 38H
4978   1DC4 FF                  RST 38H
4979   1DC5 FF                  RST 38H
4980   1DC6 FF                  RST 38H
4981   1DC7 FF                  RST 38H
4982   1DC8 FF                  RST 38H
4983   1DC9 FF                  RST 38H
4984   1DCA FF                  RST 38H
4985   1DCB FF                  RST 38H
4986   1DCC FF                  RST 38H
4987   1DCD FF                  RST 38H
4988   1DCE FF                  RST 38H
4989   1DCF FF                  RST 38H
4990   1DD0 FF                  RST 38H
4991   1DD1 FF                  RST 38H
4992   1DD2 FF                  RST 38H
4993   1DD3 FF                  RST 38H
4994   1DD4 FF                  RST 38H
4995   1DD5 FF                  RST 38H
4996   1DD6 FF                  RST 38H
4997   1DD7 FF                  RST 38H
4998   1DD8 FF                  RST 38H
4999   1DD9 FF                  RST 38H
5000   1DDA FF                  RST 38H
5001   1DDB FF                  RST 38H
5002   1DDC FF                  RST 38H
5003   1DDD FF                  RST 38H
5004   1DDE FF                  RST 38H
5005   1DDF FF                  RST 38H
5006   1DE0 FF                  RST 38H
5007   1DE1 FF                  RST 38H
5008   1DE2 FF                  RST 38H
5009   1DE3 FF                  RST 38H
5010   1DE4 FF                  RST 38H
5011   1DE5 FF                  RST 38H
5012   1DE6 FF                  RST 38H
5013   1DE7 FF                  RST 38H
5014   1DE8 FF                  RST 38H
5015   1DE9 FF                  RST 38H
5016   1DEA FF                  RST 38H
5017   1DEB FF                  RST 38H
5018   1DEC FF                  RST 38H
5019   1DED FF                  RST 38H
5020   1DEE FF                  RST 38H
5021   1DEF FF                  RST 38H
5022   1DF0 FF                  RST 38H
5023   1DF1 FF                  RST 38H
5024   1DF2 FF                  RST 38H
5025   1DF3 FF                  RST 38H
5026   1DF4 FF                  RST 38H
5027   1DF5 FF                  RST 38H
5028   1DF6 FF                  RST 38H
5029   1DF7 FF                  RST 38H
5030   1DF8 FF                  RST 38H
5031   1DF9 FF                  RST 38H
5032   1DFA FF                  RST 38H
5033   1DFB FF                  RST 38H
5034   1DFC FF                  RST 38H
5035   1DFD FF                  RST 38H
5036   1DFE FF                  RST 38H
5037   1DFF FF                  RST 38H
5038   1E00 FF                  RST 38H
5039   1E01 FF                  RST 38H
5040   1E02 FF                  RST 38H
5041   1E03 FF                  RST 38H
5042   1E04 FF                  RST 38H
5043   1E05 FF                  RST 38H
5044   1E06 FF                  RST 38H
5045   1E07 FF                  RST 38H
5046   1E08 FF                  RST 38H
5047   1E09 FF                  RST 38H
5048   1E0A FF                  RST 38H
5049   1E0B FF                  RST 38H
5050   1E0C FF                  RST 38H
5051   1E0D FF                  RST 38H
5052   1E0E FF                  RST 38H
5053   1E0F FF                  RST 38H
5054   1E10 FF                  RST 38H
5055   1E11 FF                  RST 38H
5056   1E12 FF                  RST 38H
5057   1E13 FF                  RST 38H
5058   1E14 FF                  RST 38H
5059   1E15 FF                  RST 38H
5060   1E16 FF                  RST 38H
5061   1E17 FF                  RST 38H
5062   1E18 FF                  RST 38H
5063   1E19 FF                  RST 38H
5064   1E1A FF                  RST 38H
5065   1E1B FF                  RST 38H
5066   1E1C FF                  RST 38H
5067   1E1D FF                  RST 38H
5068   1E1E FF                  RST 38H
5069   1E1F FF                  RST 38H
5070   1E20 FF                  RST 38H
5071   1E21 FF                  RST 38H
5072   1E22 FF                  RST 38H
5073   1E23 FF                  RST 38H
5074   1E24 FF                  RST 38H
5075   1E25 FF                  RST 38H
5076   1E26 FF                  RST 38H
5077   1E27 FF                  RST 38H
5078   1E28 FF                  RST 38H
5079   1E29 FF                  RST 38H
5080   1E2A FF                  RST 38H
5081   1E2B FF                  RST 38H
5082   1E2C FF                  RST 38H
5083   1E2D FF                  RST 38H
5084   1E2E FF                  RST 38H
5085   1E2F FF                  RST 38H
5086   1E30 FF                  RST 38H
5087   1E31 FF                  RST 38H
5088   1E32 FF                  RST 38H
5089   1E33 FF                  RST 38H
5090   1E34 FF                  RST 38H
5091   1E35 FF                  RST 38H
5092   1E36 FF                  RST 38H
5093   1E37 FF                  RST 38H
5094   1E38 FF                  RST 38H
5095   1E39 FF                  RST 38H
5096   1E3A FF                  RST 38H
5097   1E3B FF                  RST 38H
5098   1E3C FF                  RST 38H
5099   1E3D FF                  RST 38H
5100   1E3E FF                  RST 38H
5101   1E3F FF                  RST 38H
5102   1E40 FF                  RST 38H
5103   1E41 FF                  RST 38H
5104   1E42 FF                  RST 38H
5105   1E43 FF                  RST 38H
5106   1E44 FF                  RST 38H
5107   1E45 FF                  RST 38H
5108   1E46 FF                  RST 38H
5109   1E47 FF                  RST 38H
5110   1E48 FF                  RST 38H
5111   1E49 FF                  RST 38H
5112   1E4A FF                  RST 38H
5113   1E4B FF                  RST 38H
5114   1E4C FF                  RST 38H
5115   1E4D FF                  RST 38H
5116   1E4E FF                  RST 38H
5117   1E4F FF                  RST 38H
5118   1E50 FF                  RST 38H
5119   1E51 FF                  RST 38H
5120   1E52 FF                  RST 38H
5121   1E53 FF                  RST 38H
5122   1E54 FF                  RST 38H
5123   1E55 FF                  RST 38H
5124   1E56 FF                  RST 38H
5125   1E57 FF                  RST 38H
5126   1E58 FF                  RST 38H
5127   1E59 FF                  RST 38H
5128   1E5A FF                  RST 38H
5129   1E5B FF                  RST 38H
5130   1E5C FF                  RST 38H
5131   1E5D FF                  RST 38H
5132   1E5E FF                  RST 38H
5133   1E5F FF                  RST 38H
5134   1E60 FF                  RST 38H
5135   1E61 FF                  RST 38H
5136   1E62 FF                  RST 38H
5137   1E63 FF                  RST 38H
5138   1E64 FF                  RST 38H
5139   1E65 FF                  RST 38H
5140   1E66 FF                  RST 38H
5141   1E67 FF                  RST 38H
5142   1E68 FF                  RST 38H
5143   1E69 FF                  RST 38H
5144   1E6A FF                  RST 38H
5145   1E6B FF                  RST 38H
5146   1E6C FF                  RST 38H
5147   1E6D FF                  RST 38H
5148   1E6E FF                  RST 38H
5149   1E6F FF                  RST 38H
5150   1E70 FF                  RST 38H
5151   1E71 FF                  RST 38H
5152   1E72 FF                  RST 38H
5153   1E73 FF                  RST 38H
5154   1E74 FF                  RST 38H
5155   1E75 FF                  RST 38H
5156   1E76 FF                  RST 38H
5157   1E77 FF                  RST 38H
5158   1E78 FF                  RST 38H
5159   1E79 FF                  RST 38H
5160   1E7A FF                  RST 38H
5161   1E7B FF                  RST 38H
5162   1E7C FF                  RST 38H
5163   1E7D FF                  RST 38H
5164   1E7E FF                  RST 38H
5165   1E7F FF                  RST 38H
5166   1E80 FF                  RST 38H
5167   1E81 FF                  RST 38H
5168   1E82 FF                  RST 38H
5169   1E83 FF                  RST 38H
5170   1E84 FF                  RST 38H
5171   1E85 FF                  RST 38H
5172   1E86 FF                  RST 38H
5173   1E87 FF                  RST 38H
5174   1E88 FF                  RST 38H
5175   1E89 FF                  RST 38H
5176   1E8A FF                  RST 38H
5177   1E8B FF                  RST 38H
5178   1E8C FF                  RST 38H
5179   1E8D FF                  RST 38H
5180   1E8E FF                  RST 38H
5181   1E8F FF                  RST 38H
5182   1E90 FF                  RST 38H
5183   1E91 FF                  RST 38H
5184   1E92 FF                  RST 38H
5185   1E93 FF                  RST 38H
5186   1E94 FF                  RST 38H
5187   1E95 FF                  RST 38H
5188   1E96 FF                  RST 38H
5189   1E97 FF                  RST 38H
5190   1E98 FF                  RST 38H
5191   1E99 FF                  RST 38H
5192   1E9A FF                  RST 38H
5193   1E9B FF                  RST 38H
5194   1E9C FF                  RST 38H
5195   1E9D FF                  RST 38H
5196   1E9E FF                  RST 38H
5197   1E9F FF                  RST 38H
5198   1EA0 FF                  RST 38H
5199   1EA1 FF                  RST 38H
5200   1EA2 FF                  RST 38H
5201   1EA3 FF                  RST 38H
5202   1EA4 FF                  RST 38H
5203   1EA5 FF                  RST 38H
5204   1EA6 FF                  RST 38H
5205   1EA7 FF                  RST 38H
5206   1EA8 FF                  RST 38H
5207   1EA9 FF                  RST 38H
5208   1EAA FF                  RST 38H
5209   1EAB FF                  RST 38H
5210   1EAC FF                  RST 38H
5211   1EAD FF                  RST 38H
5212   1EAE FF                  RST 38H
5213   1EAF FF                  RST 38H
5214   1EB0 FF                  RST 38H
5215   1EB1 FF                  RST 38H
5216   1EB2 FF                  RST 38H
5217   1EB3 FF                  RST 38H
5218   1EB4 FF                  RST 38H
5219   1EB5 FF                  RST 38H
5220   1EB6 FF                  RST 38H
5221   1EB7 FF                  RST 38H
5222   1EB8 FF                  RST 38H
5223   1EB9 FF                  RST 38H
5224   1EBA FF                  RST 38H
5225   1EBB FF                  RST 38H
5226   1EBC FF                  RST 38H
5227   1EBD FF                  RST 38H
5228   1EBE FF                  RST 38H
5229   1EBF FF                  RST 38H
5230   1EC0 FF                  RST 38H
5231   1EC1 FF                  RST 38H
5232   1EC2 FF                  RST 38H
5233   1EC3 FF                  RST 38H
5234   1EC4 FF                  RST 38H
5235   1EC5 FF                  RST 38H
5236   1EC6 FF                  RST 38H
5237   1EC7 FF                  RST 38H
5238   1EC8 FF                  RST 38H
5239   1EC9 FF                  RST 38H
5240   1ECA FF                  RST 38H
5241   1ECB FF                  RST 38H
5242   1ECC FF                  RST 38H
5243   1ECD FF                  RST 38H
5244   1ECE FF                  RST 38H
5245   1ECF FF                  RST 38H
5246   1ED0 FF                  RST 38H
5247   1ED1 FF                  RST 38H
5248   1ED2 FF                  RST 38H
5249   1ED3 FF                  RST 38H
5250   1ED4 FF                  RST 38H
5251   1ED5 FF                  RST 38H
5252   1ED6 FF                  RST 38H
5253   1ED7 FF                  RST 38H
5254   1ED8 FF                  RST 38H
5255   1ED9 FF                  RST 38H
5256   1EDA FF                  RST 38H
5257   1EDB FF                  RST 38H
5258   1EDC FF                  RST 38H
5259   1EDD FF                  RST 38H
5260   1EDE FF                  RST 38H
5261   1EDF FF                  RST 38H
5262   1EE0 FF                  RST 38H
5263   1EE1 FF                  RST 38H
5264   1EE2 FF                  RST 38H
5265   1EE3 FF                  RST 38H
5266   1EE4 FF                  RST 38H
5267   1EE5 FF                  RST 38H
5268   1EE6 FF                  RST 38H
5269   1EE7 FF                  RST 38H
5270   1EE8 FF                  RST 38H
5271   1EE9 FF                  RST 38H
5272   1EEA FF                  RST 38H
5273   1EEB FF                  RST 38H
5274   1EEC FF                  RST 38H
5275   1EED FF                  RST 38H
5276   1EEE FF                  RST 38H
5277   1EEF FF                  RST 38H
5278   1EF0 FF                  RST 38H
5279   1EF1 FF                  RST 38H
5280   1EF2 FF                  RST 38H
5281   1EF3 FF                  RST 38H
5282   1EF4 FF                  RST 38H
5283   1EF5 FF                  RST 38H
5284   1EF6 FF                  RST 38H
5285   1EF7 FF                  RST 38H
5286   1EF8 FF                  RST 38H
5287   1EF9 FF                  RST 38H
5288   1EFA FF                  RST 38H
5289   1EFB FF                  RST 38H
5290   1EFC FF                  RST 38H
5291   1EFD FF                  RST 38H
5292   1EFE FF                  RST 38H
5293   1EFF FF                  RST 38H
5294   1F00 FF                  RST 38H
5295   1F01 FF                  RST 38H
5296   1F02 FF                  RST 38H
5297   1F03 FF                  RST 38H
5298   1F04 FF                  RST 38H
5299   1F05 FF                  RST 38H
5300   1F06 FF                  RST 38H
5301   1F07 FF                  RST 38H
5302   1F08 FF                  RST 38H
5303   1F09 FF                  RST 38H
5304   1F0A FF                  RST 38H
5305   1F0B FF                  RST 38H
5306   1F0C FF                  RST 38H
5307   1F0D FF                  RST 38H
5308   1F0E FF                  RST 38H
5309   1F0F FF                  RST 38H
5310   1F10 FF                  RST 38H
5311   1F11 FF                  RST 38H
5312   1F12 FF                  RST 38H
5313   1F13 FF                  RST 38H
5314   1F14 FF                  RST 38H
5315   1F15 FF                  RST 38H
5316   1F16 FF                  RST 38H
5317   1F17 FF                  RST 38H
5318   1F18 FF                  RST 38H
5319   1F19 FF                  RST 38H
5320   1F1A FF                  RST 38H
5321   1F1B FF                  RST 38H
5322   1F1C FF                  RST 38H
5323   1F1D FF                  RST 38H
5324   1F1E FF                  RST 38H
5325   1F1F FF                  RST 38H
5326   1F20 FF                  RST 38H
5327   1F21 FF                  RST 38H
5328   1F22 FF                  RST 38H
5329   1F23 FF                  RST 38H
5330   1F24 FF                  RST 38H
5331   1F25 FF                  RST 38H
5332   1F26 FF                  RST 38H
5333   1F27 FF                  RST 38H
5334   1F28 FF                  RST 38H
5335   1F29 FF                  RST 38H
5336   1F2A FF                  RST 38H
5337   1F2B FF                  RST 38H
5338   1F2C FF                  RST 38H
5339   1F2D FF                  RST 38H
5340   1F2E FF                  RST 38H
5341   1F2F FF                  RST 38H
5342   1F30 FF                  RST 38H
5343   1F31 FF                  RST 38H
5344   1F32 FF                  RST 38H
5345   1F33 FF                  RST 38H
5346   1F34 FF                  RST 38H
5347   1F35 FF                  RST 38H
5348   1F36 FF                  RST 38H
5349   1F37 FF                  RST 38H
5350   1F38 FF                  RST 38H
5351   1F39 FF                  RST 38H
5352   1F3A FF                  RST 38H
5353   1F3B FF                  RST 38H
5354   1F3C FF                  RST 38H
5355   1F3D FF                  RST 38H
5356   1F3E FF                  RST 38H
5357   1F3F FF                  RST 38H
5358   1F40 FF                  RST 38H
5359   1F41 FF                  RST 38H
5360   1F42 FF                  RST 38H
5361   1F43 FF                  RST 38H
5362   1F44 FF                  RST 38H
5363   1F45 FF                  RST 38H
5364   1F46 FF                  RST 38H
5365   1F47 FF                  RST 38H
5366   1F48 FF                  RST 38H
5367   1F49 FF                  RST 38H
5368   1F4A FF                  RST 38H
5369   1F4B FF                  RST 38H
5370   1F4C FF                  RST 38H
5371   1F4D FF                  RST 38H
5372   1F4E FF                  RST 38H
5373   1F4F FF                  RST 38H
5374   1F50 FF                  RST 38H
5375   1F51 FF                  RST 38H
5376   1F52 FF                  RST 38H
5377   1F53 FF                  RST 38H
5378   1F54 FF                  RST 38H
5379   1F55 FF                  RST 38H
5380   1F56 FF                  RST 38H
5381   1F57 FF                  RST 38H
5382   1F58 FF                  RST 38H
5383   1F59 FF                  RST 38H
5384   1F5A FF                  RST 38H
5385   1F5B FF                  RST 38H
5386   1F5C FF                  RST 38H
5387   1F5D FF                  RST 38H
5388   1F5E FF                  RST 38H
5389   1F5F FF                  RST 38H
5390   1F60 FF                  RST 38H
5391   1F61 FF                  RST 38H
5392   1F62 FF                  RST 38H
5393   1F63 FF                  RST 38H
5394   1F64 FF                  RST 38H
5395   1F65 FF                  RST 38H
5396   1F66 FF                  RST 38H
5397   1F67 FF                  RST 38H
5398   1F68 FF                  RST 38H
5399   1F69 FF                  RST 38H
5400   1F6A FF                  RST 38H
5401   1F6B FF                  RST 38H
5402   1F6C FF                  RST 38H
5403   1F6D FF                  RST 38H
5404   1F6E FF                  RST 38H
5405   1F6F FF                  RST 38H
5406   1F70 FF                  RST 38H
5407   1F71 FF                  RST 38H
5408   1F72 FF                  RST 38H
5409   1F73 FF                  RST 38H
5410   1F74 FF                  RST 38H
5411   1F75 FF                  RST 38H
5412   1F76 FF                  RST 38H
5413   1F77 FF                  RST 38H
5414   1F78 FF                  RST 38H
5415   1F79 FF                  RST 38H
5416   1F7A FF                  RST 38H
5417   1F7B FF                  RST 38H
5418   1F7C FF                  RST 38H
5419   1F7D FF                  RST 38H
5420   1F7E FF                  RST 38H
5421   1F7F FF                  RST 38H
5422   1F80 FF                  RST 38H
5423   1F81 FF                  RST 38H
5424   1F82 FF                  RST 38H
5425   1F83 FF                  RST 38H
5426   1F84 FF                  RST 38H
5427   1F85 FF                  RST 38H
5428   1F86 FF                  RST 38H
5429   1F87 FF                  RST 38H
5430   1F88 FF                  RST 38H
5431   1F89 FF                  RST 38H
5432   1F8A FF                  RST 38H
5433   1F8B FF                  RST 38H
5434   1F8C FF                  RST 38H
5435   1F8D FF                  RST 38H
5436   1F8E FF                  RST 38H
5437   1F8F FF                  RST 38H
5438   1F90 FF                  RST 38H
5439   1F91 FF                  RST 38H
5440   1F92 FF                  RST 38H
5441   1F93 FF                  RST 38H
5442   1F94 FF                  RST 38H
5443   1F95 FF                  RST 38H
5444   1F96 FF                  RST 38H
5445   1F97 FF                  RST 38H
5446   1F98 FF                  RST 38H
5447   1F99 FF                  RST 38H
5448   1F9A FF                  RST 38H
5449   1F9B FF                  RST 38H
5450   1F9C FF                  RST 38H
5451   1F9D FF                  RST 38H
5452   1F9E FF                  RST 38H
5453   1F9F FF                  RST 38H
5454   1FA0 FF                  RST 38H
5455   1FA1 FF                  RST 38H
5456   1FA2 FF                  RST 38H
5457   1FA3 FF                  RST 38H
5458   1FA4 FF                  RST 38H
5459   1FA5 FF                  RST 38H
5460   1FA6 FF                  RST 38H
5461   1FA7 FF                  RST 38H
5462   1FA8 FF                  RST 38H
5463   1FA9 FF                  RST 38H
5464   1FAA FF                  RST 38H
5465   1FAB FF                  RST 38H
5466   1FAC FF                  RST 38H
5467   1FAD FF                  RST 38H
5468   1FAE FF                  RST 38H
5469   1FAF FF                  RST 38H
5470   1FB0 FF                  RST 38H
5471   1FB1 FF                  RST 38H
5472   1FB2 FF                  RST 38H
5473   1FB3 FF                  RST 38H
5474   1FB4 FF                  RST 38H
5475   1FB5 FF                  RST 38H
5476   1FB6 FF                  RST 38H
5477   1FB7 FF                  RST 38H
5478   1FB8 FF                  RST 38H
5479   1FB9 FF                  RST 38H
5480   1FBA FF                  RST 38H
5481   1FBB FF                  RST 38H
5482   1FBC FF                  RST 38H
5483   1FBD FF                  RST 38H
5484   1FBE FF                  RST 38H
5485   1FBF FF                  RST 38H
5486   1FC0 FF                  RST 38H
5487   1FC1 FF                  RST 38H
5488   1FC2 FF                  RST 38H
5489   1FC3 FF                  RST 38H
5490   1FC4 FF                  RST 38H
5491   1FC5 FF                  RST 38H
5492   1FC6 FF                  RST 38H
5493   1FC7 FF                  RST 38H
5494   1FC8 FF                  RST 38H
5495   1FC9 FF                  RST 38H
5496   1FCA FF                  RST 38H
5497   1FCB FF                  RST 38H
5498   1FCC FF                  RST 38H
5499   1FCD FF                  RST 38H
5500   1FCE FF                  RST 38H
5501   1FCF FF                  RST 38H
5502   1FD0 FF                  RST 38H
5503   1FD1 FF                  RST 38H
5504   1FD2 FF                  RST 38H
5505   1FD3 FF                  RST 38H
5506   1FD4 FF                  RST 38H
5507   1FD5 FF                  RST 38H
5508   1FD6 FF                  RST 38H
5509   1FD7 FF                  RST 38H
5510   1FD8 FF                  RST 38H
5511   1FD9 FF                  RST 38H
5512   1FDA FF                  RST 38H
5513   1FDB FF                  RST 38H
5514   1FDC FF                  RST 38H
5515   1FDD FF                  RST 38H
5516   1FDE FF                  RST 38H
5517   1FDF FF                  RST 38H
5518   1FE0 FF                  RST 38H
5519   1FE1 FF                  RST 38H
5520   1FE2 FF                  RST 38H
5521   1FE3 FF                  RST 38H
5522   1FE4 FF                  RST 38H
5523   1FE5 FF                  RST 38H
5524   1FE6 FF                  RST 38H
5525   1FE7 FF                  RST 38H
5526   1FE8 FF                  RST 38H
5527   1FE9 FF                  RST 38H
5528   1FEA FF                  RST 38H
5529   1FEB FF                  RST 38H
5530   1FEC FF                  RST 38H
5531   1FED FF                  RST 38H
5532   1FEE FF                  RST 38H
5533   1FEF FF                  RST 38H
5534   1FF0 FF                  RST 38H
5535   1FF1 FF                  RST 38H
5536   1FF2 FF                  RST 38H
5537   1FF3 FF                  RST 38H
5538   1FF4 FF                  RST 38H
5539   1FF5 FF                  RST 38H
5540   1FF6 FF                  RST 38H
5541   1FF7 FF                  RST 38H
5542   1FF8 FF                  RST 38H
5543   1FF9 FF                  RST 38H
5544   1FFA FF                  RST 38H
5545   1FFB FF                  RST 38H
5546   1FFC FF                  RST 38H
5547   1FFD FF                  RST 38H
5548   1FFE FF                  RST 38H
5549   1FFF FF                  RST 38H

---------------------------------------------
LIST OF LABELS
Sorted by address:      Sorted by name:
---------------------------------------------

L0001:  006C            L0001:  006C
L0007:  008A            L0002:  0090
L0002:  0090            L0003:  00BE
L0006:  00A1            L0004:  00AB
L0005:  00A6            L0005:  00A6
L0004:  00AB            L0006:  00A1
L0003:  00BE            L0007:  008A
L0008:  00FA            L0008:  00FA
L0010:  0115            L0009:  0500
L0017:  014F            L0010:  0115
L0013:  0154            L0011:  02A6
L0012:  015F            L0012:  015F
L0020:  01B8            L0013:  0154
L0019:  01C4            L0014:  025E
L0018:  01EF            L0015:  0237
L0021:  01FC            L0016:  024A
L0015:  0237            L0017:  014F
L0022:  0246            L0018:  01EF
L0016:  024A            L0019:  01C4
L0014:  025E            L0020:  01B8
L0027:  028A            L0021:  01FC
L0025:  0293            L0022:  0246
L0274:  0299            L0023:  0482
L0011:  02A6            L0024:  02C2
L0026:  02B2            L0025:  0293
L0024:  02C2            L0026:  02B2
L0029:  02DD            L0027:  028A
L0028:  02E5            L0028:  02E5
L0030:  02ED            L0029:  02DD
L0037:  02F1            L0030:  02ED
L0033:  02F6            L0031:  041F
L0032:  0301            L0032:  0301
L0038:  0368            L0033:  02F6
L0039:  0375            L0034:  03D7
L0035:  03B0            L0035:  03B0
L0040:  03BF            L0036:  03C3
L0036:  03C3            L0037:  02F1
L0048:  03CC            L0038:  0368
L0034:  03D7            L0039:  0375
L0043:  03F4            L0040:  03BF
L0045:  0403            L0041:  043B
L0042:  040C            L0042:  040C
L0031:  041F            L0043:  03F4
L0044:  042B            L0044:  042B
L0041:  043B            L0045:  0403
L0047:  0456            L0046:  045E
L0046:  045E            L0047:  0456
L0049:  0466            L0048:  03CC
L0050:  046D            L0049:  0466
L0051:  0479            L0050:  046D
L0052:  047B            L0051:  0479
L0023:  0482            L0052:  047B
L0053:  048B            L0053:  048B
L0055:  049E            L0054:  04A8
L0054:  04A8            L0055:  049E
L0009:  0500            L0056:  0520
L0056:  0520            L0057:  0530
L0057:  0530            L0058:  05DE
L0064:  0556            L0059:  3A00
L0065:  0590            L0060:  4AFF
L0275:  05A4            L0061:  05AF
L0061:  05AF            L0062:  05B3
L0062:  05B3            L0063:  05B8
L0063:  05B8            L0064:  0556
L0066:  05CF            L0065:  0590
L0068:  05DB            L0066:  05CF
L0058:  05DE            L0067:  05F6
L0070:  05EB            L0068:  05DB
L0067:  05F6            L0069:  0600
L0072:  05FE            L0070:  05EB
L0069:  0600            L0071:  0608
L0071:  0608            L0072:  05FE
L0073:  0617            L0073:  0617
L0074:  0623            L0074:  0623
L0076:  063F            L0075:  0643
L0075:  0643            L0076:  063F
L0079:  064A            L0077:  065F
L0078:  0653            L0078:  0653
L0077:  065F            L0079:  064A
L0080:  0664            L0080:  0664
L0082:  0689            L0081:  10BE
L0083:  0694            L0082:  0689
L0084:  0697            L0083:  0694
L0086:  06BB            L0084:  0697
L0085:  06C4            L0085:  06C4
L0089:  0704            L0086:  06BB
L0093:  077D            L0087:  0ADC
L0095:  07E6            L0088:  0DEA
L0097:  07E9            L0089:  0704
L0098:  082C            L0090:  0A10
L0099:  086E            L0091:  09D1
L0101:  0879            L0092:  0F05
L0102:  0882            L0093:  077D
L0100:  088D            L0094:  0A04
L0105:  089E            L0095:  07E6
L0104:  08A1            L0096:  0E8C
L0108:  08D3            L0097:  07E9
L0109:  08E2            L0098:  082C
L0110:  08EB            L0099:  086E
L0107:  08F4            L0100:  088D
L0111:  08F6            L0101:  0879
L0114:  0945            L0102:  0882
L0115:  094A            L0103:  108C
L0112:  094D            L0104:  08A1
L0119:  0978            L0105:  089E
L0117:  0993            L0106:  0D14
L0122:  09B4            L0107:  08F4
L0121:  09C4            L0108:  08D3
L0116:  09CE            L0109:  08E2
L0091:  09D1            L0110:  08EB
L0124:  09D5            L0111:  08F6
L0123:  09EB            L0112:  094D
L0118:  09F9            L0113:  0F0E
L0125:  09FB            L0114:  0945
L0094:  0A04            L0115:  094A
L0090:  0A10            L0116:  09CE
L0126:  0A26            L0117:  0993
L0128:  0A29            L0118:  09F9
L0120:  0A2A            L0119:  0978
L0087:  0ADC            L0120:  0A2A
L0135:  0BDF            L0121:  09C4
L0137:  0BE8            L0122:  09B4
L0136:  0BFC            L0123:  09EB
L0139:  0C02            L0124:  09D5
L0138:  0C0D            L0125:  09FB
L0132:  0C16            L0126:  0A26
L0141:  0C3B            L0127:  12A1
L0144:  0C42            L0128:  0A29
L0142:  0C59            L0129:  0FE0
L0145:  0C67            L0130:  0F5B
L0151:  0C69            L0131:  0F97
L0147:  0C79            L0132:  0C16
L0146:  0C7A            L0133:  0EB7
L0148:  0C8B            L0134:  0EE0
L0149:  0C97            L0135:  0BDF
L0150:  0C9F            L0136:  0BFC
L0143:  0CA6            L0137:  0BE8
L0140:  0CB4            L0138:  0C0D
L0152:  0CD3            L0139:  0C02
L0106:  0D14            L0140:  0CB4
L0158:  0DA5            L0141:  0C3B
L0160:  0DC5            L0142:  0C59
L0154:  0DD1            L0143:  0CA6
L0162:  0DDF            L0144:  0C42
L0153:  0DE0            L0145:  0C67
L0163:  0DE9            L0146:  0C7A
L0088:  0DEA            L0147:  0C79
L0155:  0DF8            L0148:  0C8B
L0159:  0E03            L0149:  0C97
L0166:  0E1C            L0150:  0C9F
L0168:  0E33            L0151:  0C69
L0170:  0E66            L0152:  0CD3
L0171:  0E6A            L0153:  0DE0
L0165:  0E7E            L0154:  0DD1
L0161:  0E81            L0155:  0DF8
L0174:  0E8A            L0156:  12CD
L0096:  0E8C            L0157:  130D
L0169:  0E8F            L0158:  0DA5
L0167:  0E9D            L0159:  0E03
L0164:  0EA8            L0160:  0DC5
L0247:  0EAB            L0161:  0E81
L0133:  0EB7            L0162:  0DDF
L0179:  0ECA            L0163:  0DE9
L0176:  0ED2            L0164:  0EA8
L0178:  0ED4            L0165:  0E7E
L0177:  0ED7            L0166:  0E1C
L0134:  0EE0            L0167:  0E9D
L0182:  0EE2            L0168:  0E33
L0180:  0EF3            L0169:  0E8F
L0181:  0EF9            L0170:  0E66
L0183:  0F04            L0171:  0E6A
L0092:  0F05            L0172:  12F6
L0113:  0F0E            L0173:  139B
L0184:  0F15            L0174:  0E8A
L0187:  0F23            L0175:  0FC6
L0186:  0F30            L0176:  0ED2
L0189:  0F46            L0177:  0ED7
L0185:  0F53            L0178:  0ED4
L0188:  0F55            L0179:  0ECA
L0130:  0F5B            L0180:  0EF3
L0194:  0F5D            L0181:  0EF9
L0190:  0F6F            L0182:  0EE2
L0191:  0F78            L0183:  0F04
L0192:  0F7A            L0184:  0F15
L0193:  0F87            L0185:  0F53
L0195:  0F8D            L0186:  0F30
L0131:  0F97            L0187:  0F23
L0197:  0FA2            L0188:  0F55
L0196:  0FB5            L0189:  0F46
L0199:  0FBC            L0190:  0F6F
L0198:  0FC5            L0191:  0F78
L0175:  0FC6            L0192:  0F7A
L0202:  0FD0            L0193:  0F87
L0200:  0FD4            L0194:  0F5D
L0201:  0FDC            L0195:  0F8D
L0129:  0FE0            L0196:  0FB5
L0205:  0FE1            L0197:  0FA2
L0203:  0FEA            L0198:  0FC5
L0204:  0FEF            L0199:  0FBC
L0206:  0FFB            L0200:  0FD4
L0207:  1002            L0201:  0FDC
L0208:  100C            L0202:  0FD0
L0211:  101F            L0203:  0FEA
L0209:  1023            L0204:  0FEF
L0210:  1024            L0205:  0FE1
L0213:  1040            L0206:  0FFB
L0212:  1048            L0207:  1002
L0216:  1071            L0208:  100C
L0214:  107D            L0209:  1023
L0215:  1084            L0210:  1024
L0217:  1087            L0211:  101F
L0103:  108C            L0212:  1048
L0218:  10BA            L0213:  1040
L0081:  10BE            L0214:  107D
L0219:  10C4            L0215:  1084
L0221:  10DA            L0216:  1071
L0220:  10E5            L0217:  1087
L0222:  10E7            L0218:  10BA
L0223:  1104            L0219:  10C4
L0225:  1132            L0220:  10E5
L0226:  1144            L0221:  10DA
L0228:  115E            L0222:  10E7
L0224:  1161            L0223:  1104
L0229:  1169            L0224:  1161
L0227:  116F            L0225:  1132
L0231:  117B            L0226:  1144
L0233:  11B1            L0227:  116F
L0230:  11B2            L0228:  115E
L0232:  11CB            L0229:  1169
L0235:  11EA            L0230:  11B2
L0234:  121E            L0231:  117B
L0236:  1235            L0232:  11CB
L0238:  1255            L0233:  11B1
L0240:  125B            L0234:  121E
L0239:  1265            L0235:  11EA
L0237:  1266            L0236:  1235
L0241:  1277            L0237:  1266
L0242:  1285            L0238:  1255
L0243:  12A0            L0239:  1265
L0127:  12A1            L0240:  125B
L0245:  12B4            L0241:  1277
L0244:  12C2            L0242:  1285
L0156:  12CD            L0243:  12A0
L0246:  12E4            L0244:  12C2
L0172:  12F6            L0245:  12B4
L0250:  12F8            L0246:  12E4
L0248:  1301            L0247:  0EAB
L0249:  130C            L0248:  1301
L0157:  130D            L0249:  130C
L0252:  1316            L0250:  12F8
L0251:  1329            L0251:  1329
L0255:  1333            L0252:  1316
L0254:  135B            L0253:  136B
L0253:  136B            L0254:  135B
L0256:  137E            L0255:  1333
L0257:  1393            L0256:  137E
L0258:  1395            L0257:  1393
L0173:  139B            L0258:  1395
L0260:  13A1            L0259:  13BF
L0259:  13BF            L0260:  13A1
L0266:  13C8            L0261:  13D0
L0261:  13D0            L0262:  13DB
L0262:  13DB            L0263:  147E
L0265:  1410            L0264:  144C
L0264:  144C            L0265:  1410
L0263:  147E            L0266:  13C8
L0276:  1498            L0267:  4742
L0273:  398C            L0268:  4D45
L0059:  3A00            L0269:  4751
L0270:  3E54            L0270:  3E54
L0267:  4742            L0271:  4D64
L0269:  4751            L0272:  4B84
L0060:  4AFF            L0273:  398C
L0272:  4B84            L0274:  0299
L0268:  4D45            L0275:  05A4
L0271:  4D64            L0276:  1498
L0295:  6DF4            L0277:  E3C3
L0289:  AAE3            L0278:  C5E4
L0285:  C4D9            L0279:  DEC6
L0278:  C5E4            L0280:  CBBB
L0280:  CBBB            L0281:  CD9F
L0281:  CD9F            L0282:  D318
L0282:  D318            L0283:  DBD3
L0299:  D3FF            L0284:  D5B9
L0284:  D5B9            L0285:  C4D9
L0286:  DB94            L0286:  DB94
L0283:  DBD3            L0287:  DD2D
L0287:  DD2D            L0288:  E33C
L0279:  DEC6            L0289:  AAE3
L0288:  E33C            L0290:  E55E
L0277:  E3C3            L0291:  EAAB
L0290:  E55E            L0292:  ED1C
L0291:  EAAB            L0293:  F294
L0292:  ED1C            L0294:  F484
L0293:  F294            L0295:  6DF4
L0294:  F484            L0296:  FAC5
L0300:  F4FF            L0297:  FC7E
L0296:  FAC5            L0298:  FCFE
L0297:  FC7E            L0299:  D3FF
L0298:  FCFE            L0300:  F4FF
