--------------------------------------------------
Z80 DISASSEMBLER LISTING
Line   Addr Opcodes     Label   Instruction
--------------------------------------------------

0001   0000 00                  NOP
0002   0001 00                  NOP
0003   0002 00                  NOP
0004   0003 3C                  INC A
0005   0004 01 01 01            LD BC,0101H
0006   0007 CD 13 80            CALL L0001
0007   000A 3A 00 24            LD A,(2400H)
0008   000D FE 00               CP 00H
0009   000F CC 4D 91            CALL Z,L0002
0010   0012 C9                  RET
0011   0013 3A 81 2D            LD A,(2D81H)
0012   0016 CB 67               BIT 4,A
0013   0018 CA 72 81            JP Z,L0003
0014   001B DD 2A 83 2D         LD IX,(2D83H)
0015   001F FD 2A 93 2D         LD IY,(2D93H)
0016   0023 2A 91 2D            LD HL,(2D91H)
0017   0026 ED 5B A1 2D         LD DE,(2DA1H)
0018   002A CD CB 18            CALL L0004
0019   002D ED 53 79 2D         LD (2D79H),DE
0020   0031 DD 21 85 2D         LD IX,2D85H
0021   0035 06 06               LD B,06H
0022   0037 0E 00               LD C,00H
0023   0039 FD 21 BD 2D         LD IY,2DBDH
0024   003D C5          L0009:  PUSH BC
0025   003E DD 6E 00            LD L,(IX+00H)
0026   0041 DD 66 01            LD H,(IX+01H)
0027   0044 DD 5E 10            LD E,(IX+10H)
0028   0047 DD 56 11            LD D,(IX+11H)
0029   004A DD E5               PUSH IX
0030   004C FD E5               PUSH IY
0031   004E DD 2A 83 2D         LD IX,(2D83H)
0032   0052 FD 2A 93 2D         LD IY,(2D93H)
0033   0056 CD CB 18            CALL L0004
0034   0059 E5                  PUSH HL
0035   005A 2A 79 2D            LD HL,(2D79H)
0036   005D 37                  SCF
0037   005E 3F                  CCF
0038   005F ED 52               SBC HL,DE
0039   0061 EB                  EX DE,HL
0040   0062 CD 9E 17            CALL L0005
0041   0065 CD 7F 1D            CALL L0006
0042   0068 EB                  EX DE,HL
0043   0069 C1                  POP BC
0044   006A CD 78 1C            CALL L0007
0045   006D FD E1               POP IY
0046   006F FD 75 00            LD (IY+00H),L
0047   0072 FD 23               INC IY
0048   0074 DD E1               POP IX
0049   0076 C1                  POP BC
0050   0077 ED 5B 6F 2D         LD DE,(2D6FH)
0051   007B 37                  SCF
0052   007C 3F                  CCF
0053   007D ED 52               SBC HL,DE
0054   007F 30 01               JR NC,L0008
0055   0081 0C                  INC C
0056   0082 DD 23       L0008:  INC IX
0057   0084 DD 23               INC IX
0058   0086 10 B5               DJNZ L0009
0059   0088 79                  LD A,C
0060   0089 32 7D 2D            LD (2D7DH),A
0061   008C 2A 71 2D            LD HL,(2D71H)
0062   008F 29                  ADD HL,HL
0063   0090 29                  ADD HL,HL
0064   0091 29                  ADD HL,HL
0065   0092 29                  ADD HL,HL
0066   0093 ED 5B 57 2D         LD DE,(2D57H)
0067   0097 ED 52               SBC HL,DE
0068   0099 3A 80 2D            LD A,(2D80H)
0069   009C 38 02               JR C,L0010
0070   009E 3E 08               LD A,08H
0071   00A0 D6 03       L0010:  SUB 03H
0072   00A2 B9                  CP C
0073   00A3 D2 3C 81            JP NC,L0011
0074   00A6 2A AD 2D            LD HL,(2DADH)
0075   00A9 ED 5B 79 2D         LD DE,(2D79H)
0076   00AD 37                  SCF
0077   00AE 3F                  CCF
0078   00AF ED 52               SBC HL,DE
0079   00B1 ED 5B 74 2A         LD DE,(2A74H)
0080   00B5 19                  ADD HL,DE
0081   00B6 EB                  EX DE,HL
0082   00B7 CD D1 17            CALL L0012
0083   00BA ED 53 74 2A         LD (2A74H),DE
0084   00BE 21 00 00            LD HL,0000H
0085   00C1 22 90 31            LD (3190H),HL
0086   00C4 2A B9 2D            LD HL,(2DB9H)
0087   00C7 ED 5B BB 2D         LD DE,(2DBBH)
0088   00CB DD 2A B5 2D         LD IX,(2DB5H)
0089   00CF FD 2A B7 2D         LD IY,(2DB7H)
0090   00D3 CD CB 18            CALL L0004
0091   00D6 E5                  PUSH HL
0092   00D7 EB                  EX DE,HL
0093   00D8 ED 5B AD 2D         LD DE,(2DADH)
0094   00DC 37                  SCF
0095   00DD 3F                  CCF
0096   00DE ED 52               SBC HL,DE
0097   00E0 EB                  EX DE,HL
0098   00E1 CD 7F 1D            CALL L0006
0099   00E4 7A                  LD A,D
0100   00E5 C1                  POP BC
0101   00E6 CD 29 0F            CALL L0013
0102   00E9 ED 5B AB 2D         LD DE,(2DABH)
0103   00ED 19                  ADD HL,DE
0104   00EE CD 90 17            CALL L0014
0105   00F1 22 7B 2D            LD (2D7BH),HL
0106   00F4 ED 5B B1 2D         LD DE,(2DB1H)
0107   00F8 37                  SCF
0108   00F9 3F                  CCF
0109   00FA ED 52               SBC HL,DE
0110   00FC E5                  PUSH HL
0111   00FD C1                  POP BC
0112   00FE ED 5B AF 2D         LD DE,(2DAFH)
0113   0102 CD A1 81            CALL L0015
0114   0105 21 00 00            LD HL,0000H
0115   0108 22 81 2D            LD (2D81H),HL
0116   010B 3E 00               LD A,00H
0117   010D 32 D8 31            LD (31D8H),A
0118   0110 2A 83 2D            LD HL,(2D83H)
0119   0113 22 D9 31            LD (31D9H),HL
0120   0116 2A 93 2D            LD HL,(2D93H)
0121   0119 22 DB 31            LD (31DBH),HL
0122   011C 2A 91 2D            LD HL,(2D91H)
0123   011F 22 DD 31            LD (31DDH),HL
0124   0122 2A A1 2D            LD HL,(2DA1H)
0125   0125 22 DF 31            LD (31DFH),HL
0126   0128 3E 01               LD A,01H
0127   012A 32 D8 31            LD (31D8H),A
0128   012D CD 39 0F            CALL L0016
0129   0130 CD 5C 0F            CALL L0017
0130   0133 AF                  XOR A
0131   0134 32 7F 2D            LD (2D7FH),A
0132   0137 32 77 2D            LD (2D77H),A
0133   013A 18 36               JR L0018
0134   013C 21 85 2D            LD HL,2D85H
0135   013F 11 83 2D            LD DE,2D83H
0136   0142 01 0E 00            LD BC,000EH
0137   0145 ED B0               LDIR
0138   0147 21 95 2D            LD HL,2D95H
0139   014A 11 93 2D            LD DE,2D93H
0140   014D 01 0E 00            LD BC,000EH
0141   0150 ED B0               LDIR
0142   0152 3A 81 2D            LD A,(2D81H)
0143   0155 FE 10               CP 10H
0144   0157 20 19               JR NZ,L0018
0145   0159 3E 0E               LD A,0EH
0146   015B 32 81 2D            LD (2D81H),A
0147   015E 21 7F 2D            LD HL,2D7FH
0148   0161 34                  INC (HL)
0149   0162 3A 73 2D            LD A,(2D73H)
0150   0165 BE                  CP (HL)
0151   0166 30 0A               JR NC,L0018
0152   0168 AF                  XOR A
0153   0169 32 7F 2D            LD (2D7FH),A
0154   016C 32 77 2D            LD (2D77H),A
0155   016F CD 81 81            CALL L0019
0156   0172 C9          L0018:  RET
0157   0173 C5                  PUSH BC
0158   0174 06 22               LD B,22H
0159   0176 AF                  XOR A
0160   0177 32 74 32            LD (3274H),A
0161   017A 18 0C               JR L0020
0162   017C C5                  PUSH BC
0163   017D 06 0A               LD B,0AH
0164   017F 18 07               JR L0020
0165   0181 C5                  PUSH BC
0166   0182 06 17               LD B,17H
0167   0184 AF                  XOR A
0168   0185 32 77 2D            LD (2D77H),A
0169   0188 21 4B 2D    L0020:  LD HL,2D4BH
0170   018B 34                  INC (HL)
0171   018C 3A 49 2D            LD A,(2D49H)
0172   018F BE                  CP (HL)
0173   0190 30 09               JR NC,L0021
0174   0192 36 00               LD (HL),00H
0175   0194 3E 00               LD A,00H
0176   0196 32 00 24            LD (2400H),A
0177   0199 06 10               LD B,10H
0178   019B 78          L0021:  LD A,B
0179   019C CD 0E 04            CALL L0022
0180   019F C1                  POP BC
0181   01A0 C9                  RET
0182   01A1 CD 09 0F            CALL L0023
0183   01A4 E5                  PUSH HL
0184   01A5 C1                  POP BC
0185   01A6 2A 51 2A            LD HL,(2A51H)
0186   01A9 09                  ADD HL,BC
0187   01AA 22 51 2A            LD (2A51H),HL
0188   01AD 2A 53 2A            LD HL,(2A53H)
0189   01B0 09                  ADD HL,BC
0190   01B1 22 53 2A            LD (2A53H),HL
0191   01B4 2A 57 2A            LD HL,(2A57H)
0192   01B7 19                  ADD HL,DE
0193   01B8 22 57 2A            LD (2A57H),HL
0194   01BB 2A 59 2A            LD HL,(2A59H)
0195   01BE 19                  ADD HL,DE
0196   01BF 22 59 2A            LD (2A59H),HL
0197   01C2 C9                  RET
0198   01C3 3A 75 2D            LD A,(2D75H)
0199   01C6 A7                  AND A
0200   01C7 CA 4A 82            JP Z,L0024
0201   01CA 3A 61 2A            LD A,(2A61H)
0202   01CD FE 04               CP 04H
0203   01CF CA 94 0B            JP Z,L0025
0204   01D2 3E 01               LD A,01H
0205   01D4 32 77 2D            LD (2D77H),A
0206   01D7 2A FD 2C            LD HL,(2CFDH)
0207   01DA ED 5B FF 2C         LD DE,(2CFFH)
0208   01DE DD 2A CF 31         LD IX,(31CFH)
0209   01E2 FD 2A D1 31         LD IY,(31D1H)
0210   01E6 CD CB 18            CALL L0004
0211   01E9 2A D3 2D            LD HL,(2DD3H)
0212   01EC ED 52               SBC HL,DE
0213   01EE CD C4 17            CALL L0026
0214   01F1 CD 90 17            CALL L0014
0215   01F4 01 32 00            LD BC,0032H
0216   01F7 ED 42               SBC HL,BC
0217   01F9 38 04               JR C,L0027
0218   01FB ED 5B D3 2D         LD DE,(2DD3H)
0219   01FF ED 53 A5 2D L0027:  LD (2DA5H),DE
0220   0203 3A A4 2D            LD A,(2DA4H)
0221   0206 21 00 01            LD HL,0100H
0222   0209 01 E4 2C            LD BC,2CE4H
0223   020C 11 E6 2C            LD DE,2CE6H
0224   020F CB 7F               BIT 7,A
0225   0211 28 09               JR Z,L0028
0226   0213 21 00 FF            LD HL,0FF00H
0227   0216 01 E6 2C            LD BC,2CE6H
0228   0219 11 E4 2C            LD DE,2CE4H
0229   021C ED 43 63 32 L0028:  LD (3263H),BC
0230   0220 ED 53 65 32         LD (3265H),DE
0231   0224 ED 5B A5 2D         LD DE,(2DA5H)
0232   0228 19                  ADD HL,DE
0233   0229 EB                  EX DE,HL
0234   022A 7A                  LD A,D
0235   022B E6 03               AND 03H
0236   022D 57                  LD D,A
0237   022E ED 53 A7 2D         LD (2DA7H),DE
0238   0232 21 00 00            LD HL,0000H
0239   0235 22 81 2D            LD (2D81H),HL
0240   0238 3E 80               LD A,80H
0241   023A 32 AA 2D            LD (2DAAH),A
0242   023D AF                  XOR A
0243   023E 32 7F 2D            LD (2D7FH),A
0244   0241 2A 78 2A            LD HL,(2A78H)
0245   0244 22 5F 32            LD (325FH),HL
0246   0247 22 61 32            LD (3261H),HL
0247   024A C9                  RET
0248   024B 3A 75 2D            LD A,(2D75H)
0249   024E A7                  AND A
0250   024F CA E1 83            JP Z,L0029
0251   0252 3A CA 2D            LD A,(2DCAH)
0252   0255 A7                  AND A
0253   0256 C2 E1 83            JP NZ,L0029
0254   0259 2A A5 2D            LD HL,(2DA5H)
0255   025C ED 5B C9 31         LD DE,(31C9H)
0256   0260 CD 92 8C            CALL L0030
0257   0263 EB                  EX DE,HL
0258   0264 ED 4B 78 2A         LD BC,(2A78H)
0259   0268 CD 09 0F            CALL L0023
0260   026B 22 CB 31            LD (31CBH),HL
0261   026E 3A A4 2D            LD A,(2DA4H)
0262   0271 CB 7F               BIT 7,A
0263   0273 28 03               JR Z,L0031
0264   0275 CD 93 17            CALL L0032
0265   0278 22 CD 31    L0031:  LD (31CDH),HL
0266   027B 3E 01               LD A,01H
0267   027D 32 67 32            LD (3267H),A
0268   0280 DD 2A 63 32         LD IX,(3263H)
0269   0284 DD 4E 00            LD C,(IX+00H)
0270   0287 DD 46 01            LD B,(IX+01H)
0271   028A CD 04 84            CALL L0033
0272   028D ED 53 68 32         LD (3268H),DE
0273   0291 ED 43 6A 32         LD (326AH),BC
0274   0295 3A C3 2D            LD A,(2DC3H)
0275   0298 FE 01               CP 01H
0276   029A C2 DA 82            JP NZ,L0034
0277   029D DD 2A 65 32         LD IX,(3265H)
0278   02A1 DD 4E 00            LD C,(IX+00H)
0279   02A4 DD 46 01            LD B,(IX+01H)
0280   02A7 2A C4 2D            LD HL,(2DC4H)
0281   02AA 37                  SCF
0282   02AB 3F                  CCF
0283   02AC ED 42               SBC HL,BC
0284   02AE DA DA 82            JP C,L0034
0285   02B1 44                  LD B,H
0286   02B2 4D                  LD C,L
0287   02B3 CD 04 84            CALL L0033
0288   02B6 C5                  PUSH BC
0289   02B7 D5                  PUSH DE
0290   02B8 2A 68 32            LD HL,(3268H)
0291   02BB ED 4B CD 31         LD BC,(31CDH)
0292   02BF 37                  SCF
0293   02C0 3F                  CCF
0294   02C1 ED 42               SBC HL,BC
0295   02C3 CD 90 17            CALL L0014
0296   02C6 EB                  EX DE,HL
0297   02C7 09                  ADD HL,BC
0298   02C8 EB                  EX DE,HL
0299   02C9 CD 9E 17            CALL L0005
0300   02CC 37                  SCF
0301   02CD ED 52               SBC HL,DE
0302   02CF D1                  POP DE
0303   02D0 C1                  POP BC
0304   02D1 38 07               JR C,L0035
0305   02D3 3E 02               LD A,02H
0306   02D5 32 67 32            LD (3267H),A
0307   02D8 18 08               JR L0036
0308   02DA ED 5B 68 32 L0035:  LD DE,(3268H)
0309   02DE ED 4B 6A 32         LD BC,(326AH)
0310   02E2 2A 9A 31    L0036:  LD HL,(319AH)
0311   02E5 37                  SCF
0312   02E6 3F                  CCF
0313   02E7 D5                  PUSH DE
0314   02E8 CD 9E 17            CALL L0005
0315   02EB ED 52               SBC HL,DE
0316   02ED D1                  POP DE
0317   02EE DA E1 83            JP C,L0029
0318   02F1 ED 53 A0 31         LD (31A0H),DE
0319   02F5 2A 61 32            LD HL,(3261H)
0320   02F8 ED 5B 78 2A         LD DE,(2A78H)
0321   02FC 37                  SCF
0322   02FD 3F                  CCF
0323   02FE ED 52               SBC HL,DE
0324   0300 EB                  EX DE,HL
0325   0301 2A A6 31            LD HL,(31A6H)
0326   0304 ED 52               SBC HL,DE
0327   0306 D2 49 83            JP NC,L0037
0328   0309 2A 78 2A            LD HL,(2A78H)
0329   030C 22 61 32            LD (3261H),HL
0330   030F 2A A9 2D            LD HL,(2DA9H)
0331   0312 ED 43 A9 2D         LD (2DA9H),BC
0332   0316 7C                  LD A,H
0333   0317 FE 80               CP 80H
0334   0319 28 2E               JR Z,L0038
0335   031B 37                  SCF
0336   031C 3F                  CCF
0337   031D ED 42               SBC HL,BC
0338   031F 22 A2 31            LD (31A2H),HL
0339   0322 ED 5B A0 31         LD DE,(31A0H)
0340   0326 28 21               JR Z,L0038
0341   0328 7C                  LD A,H
0342   0329 AA                  XOR D
0343   032A E6 80               AND 80H
0344   032C 20 1B               JR NZ,L0038
0345   032E ED 4B 98 31         LD BC,(3198H)
0346   0332 2A A3 2D            LD HL,(2DA3H)
0347   0335 7A                  LD A,D
0348   0336 AC                  XOR H
0349   0337 E6 80               AND 80H
0350   0339 CC AF 17            CALL Z,L0039
0351   033C 2A 90 31            LD HL,(3190H)
0352   033F ED 5B 94 31         LD DE,(3194H)
0353   0343 CD E2 83            CALL L0040
0354   0346 22 90 31            LD (3190H),HL
0355   0349 3A 81 2D    L0038:  LD A,(2D81H)
0356   034C CB 67               BIT 4,A
0357   034E C2 E1 83            JP NZ,L0029
0358   0351 2A 5F 32            LD HL,(325FH)
0359   0354 ED 5B 78 2A         LD DE,(2A78H)
0360   0358 37                  SCF
0361   0359 3F                  CCF
0362   035A ED 52               SBC HL,DE
0363   035C EB                  EX DE,HL
0364   035D 2A 71 2D            LD HL,(2D71H)
0365   0360 ED 52               SBC HL,DE
0366   0362 D2 E1 83            JP NC,L0029
0367   0365 2A 78 2A            LD HL,(2A78H)
0368   0368 22 5F 32            LD (325FH),HL
0369   036B ED 4B A9 2D         LD BC,(2DA9H)
0370   036F ED 5B A7 2D         LD DE,(2DA7H)
0371   0373 CD 09 0F            CALL L0023
0372   0376 D5                  PUSH DE
0373   0377 ED 4B 51 2A         LD BC,(2A51H)
0374   037B 09                  ADD HL,BC
0375   037C ED 5B 81 2D         LD DE,(2D81H)
0376   0380 DD 21 83 2D         LD IX,2D83H
0377   0384 DD 19               ADD IX,DE
0378   0386 DD 75 00            LD (IX+00H),L
0379   0389 DD 74 01            LD (IX+01H),H
0380   038C AF                  XOR A
0381   038D 32 D3 31            LD (31D3H),A
0382   0390 22 D4 31            LD (31D4H),HL
0383   0393 E1                  POP HL
0384   0394 ED 4B 57 2A         LD BC,(2A57H)
0385   0398 09                  ADD HL,BC
0386   0399 22 D6 31            LD (31D6H),HL
0387   039C 3A 67 32            LD A,(3267H)
0388   039F 32 D3 31            LD (31D3H),A
0389   03A2 DD 21 93 2D         LD IX,2D93H
0390   03A6 DD 19               ADD IX,DE
0391   03A8 DD 75 00            LD (IX+00H),L
0392   03AB DD 74 01            LD (IX+01H),H
0393   03AE 1C                  INC E
0394   03AF 1C                  INC E
0395   03B0 ED 53 81 2D         LD (2D81H),DE
0396   03B4 CB 63               BIT 4,E
0397   03B6 28 29               JR Z,L0041
0398   03B8 21 A3 2D            LD HL,2DA3H
0399   03BB 11 AB 2D            LD DE,2DABH
0400   03BE 01 08 00            LD BC,0008H
0401   03C1 ED B0               LDIR
0402   03C3 2A 51 2A            LD HL,(2A51H)
0403   03C6 22 B5 2D            LD (2DB5H),HL
0404   03C9 2A 57 2A            LD HL,(2A57H)
0405   03CC 22 B7 2D            LD (2DB7H),HL
0406   03CF 2A FD 2C            LD HL,(2CFDH)
0407   03D2 22 B9 2D            LD (2DB9H),HL
0408   03D5 2A FF 2C            LD HL,(2CFFH)
0409   03D8 22 BB 2D            LD (2DBBH),HL
0410   03DB 2A 78 2A            LD HL,(2A78H)
0411   03DE 22 B3 2D            LD (2DB3H),HL
0412   03E1 C9          L0041:  RET
0413   03E2 09                  ADD HL,BC
0414   03E3 E5                  PUSH HL
0415   03E4 CD 90 17            CALL L0014
0416   03E7 37                  SCF
0417   03E8 ED 52               SBC HL,DE
0418   03EA E1                  POP HL
0419   03EB 38 06               JR C,L0042
0420   03ED CB 7C               BIT 7,H
0421   03EF C4 A1 17            CALL NZ,L0043
0422   03F2 EB                  EX DE,HL
0423   03F3 C9          L0042:  RET
0424   03F4 7C                  LD A,H
0425   03F5 CB 7F               BIT 7,A
0426   03F7 CC AF 17            CALL Z,L0039
0427   03FA 09                  ADD HL,BC
0428   03FB AC                  XOR H
0429   03FC E6 80               AND 80H
0430   03FE 28 03               JR Z,L0044
0431   0400 21 00 00            LD HL,0000H
0432   0403 C9          L0044:  RET
0433   0404 11 10 27            LD DE,2710H
0434   0407 21 8A 02            LD HL,028AH
0435   040A ED 42               SBC HL,BC
0436   040C DA 18 84            JP C,L0045
0437   040F 2A A3 2D            LD HL,(2DA3H)
0438   0412 CD 90 17            CALL L0014
0439   0415 ED 42               SBC HL,BC
0440   0417 EB                  EX DE,HL
0441   0418 C9                  RET
0442   0419 3E 03               LD A,03H
0443   041B 01 0F 00            LD BC,000FH
0444   041E 11 02 24            LD DE,2402H
0445   0421 21 DC 2C            LD HL,2CDCH
0446   0424 CD EA 91            CALL L0046
0447   0427 C9                  RET
0448   0428 3E 03               LD A,03H
0449   042A CD 3A 84            CALL L0047
0450   042D C9                  RET
0451   042E 3E 04               LD A,04H
0452   0430 CD 3A 84            CALL L0047
0453   0433 C9                  RET
0454   0434 3E 02               LD A,02H
0455   0436 CD 3A 84            CALL L0047
0456   0439 C9                  RET
0457   043A 01 01 00            LD BC,0001H
0458   043D 11 00 00            LD DE,0000H
0459   0440 CD E7 91            CALL L0048
0460   0443 CD 81 09            CALL L0049
0461   0446 3A 01 24            LD A,(2401H)
0462   0449 FE 07               CP 07H
0463   044B 3E 01               LD A,01H
0464   044D 20 0B               JR NZ,L0050
0465   044F 3E 00               LD A,00H
0466   0451 CD 0E 04            CALL L0022
0467   0454 3E 02               LD A,02H
0468   0456 32 00 24            LD (2400H),A
0469   0459 AF                  XOR A
0470   045A C9          L0050:  RET
0471   045B 21 16 32            LD HL,3216H
0472   045E 3E 01               LD A,01H
0473   0460 BE                  CP (HL)
0474   0461 28 13               JR Z,L0051
0475   0463 77                  LD (HL),A
0476   0464 CD 28 84            CALL L0052
0477   0467 32 63 2D            LD (2D63H),A
0478   046A CD 34 84            CALL L0053
0479   046D 32 64 2D            LD (2D64H),A
0480   0470 CD 2E 84            CALL L0054
0481   0473 32 65 2D            LD (2D65H),A
0482   0476 C9          L0051:  RET
0483   0477 CD 42 16            CALL L0055
0484   047A CD 36 87            CALL L0056
0485   047D ED 5B 55 2A         LD DE,(2A55H)
0486   0481 01 32 00            LD BC,0032H
0487   0484 21 20 03            LD HL,0320H
0488   0487 CD B2 15            CALL L0057
0489   048A DA 9C 0B            JP C,L0058
0490   048D 2A 55 2A            LD HL,(2A55H)
0491   0490 ED 5B 5B 2A         LD DE,(2A5BH)
0492   0494 ED 52               SBC HL,DE
0493   0496 DA A0 0B            JP C,L0059
0494   0499 AF                  XOR A
0495   049A 32 86 2A            LD (2A86H),A
0496   049D 2A 3F 2D            LD HL,(2D3FH)
0497   04A0 22 5F 2D            LD (2D5FH),HL
0498   04A3 CD C0 88            CALL L0060
0499   04A6 21 00 00            LD HL,0000H
0500   04A9 22 75 32            LD (3275H),HL
0501   04AC CD D9 87            CALL L0061
0502   04AF 3E 09               LD A,09H
0503   04B1 CD 0E 04            CALL L0022
0504   04B4 CD 75 89            CALL L0062
0505   04B7 AF                  XOR A
0506   04B8 32 74 32            LD (3274H),A
0507   04BB 0E 02               LD C,02H
0508   04BD CD 9F 89    L0066:  CALL L0063
0509   04C0 32 7F 32            LD (327FH),A
0510   04C3 FE FF               CP 0FFH
0511   04C5 20 05               JR NZ,L0064
0512   04C7 CD FB 88            CALL L0065
0513   04CA 18 F1               JR L0066
0514   04CC CD 9F 89    L0064:  CALL L0063
0515   04CF FE FF               CP 0FFH
0516   04D1 20 03               JR NZ,L0067
0517   04D3 0D                  DEC C
0518   04D4 18 E7               JR L0066
0519   04D6 47          L0067:  LD B,A
0520   04D7 21 7F 32            LD HL,327FH
0521   04DA AE                  XOR (HL)
0522   04DB 70                  LD (HL),B
0523   04DC CB 4F               BIT 1,A
0524   04DE 20 0B               JR NZ,L0068
0525   04E0 CB 79               BIT 7,C
0526   04E2 20 07               JR NZ,L0068
0527   04E4 CB 38               SRL B
0528   04E6 CD 99 88            CALL L0069
0529   04E9 18 E1               JR L0064
0530   04EB CD C0 88    L0068:  CALL L0060
0531   04EE 21 FF FF    L0073:  LD HL,0FFFFH
0532   04F1 11 00 00            LD DE,0000H
0533   04F4 CD 28 89            CALL L0070
0534   04F7 21 FF FF            LD HL,0FFFFH
0535   04FA CD 39 89            CALL L0071
0536   04FD CB 47               BIT 0,A
0537   04FF 20 07               JR NZ,L0072
0538   0501 3E 1C               LD A,1CH
0539   0503 CD 0E 04            CALL L0022
0540   0506 18 E6               JR L0073
0541   0508 3E 09       L0072:  LD A,09H
0542   050A CD 0E 04            CALL L0022
0543   050D 2A 5D 2A            LD HL,(2A5DH)
0544   0510 22 77 32            LD (3277H),HL
0545   0513 18 0E               JR L0074
0546   0515 ED 5B 77 32         LD DE,(3277H)
0547   0519 CD E3 0F            CALL L0075
0548   051C CD 9F 89    L0076:  CALL L0063
0549   051F FE FF               CP 0FFH
0550   0521 28 F9               JR Z,L0076
0551   0523 CD D9 87    L0074:  CALL L0061
0552   0526 CD 9F 89            CALL L0063
0553   0529 CD C0 88            CALL L0060
0554   052C 06 64               LD B,64H
0555   052E 4F          L0077:  LD C,A
0556   052F 05                  DEC B
0557   0530 FC FB 88            CALL M,L0065
0558   0533 CD 9F 89            CALL L0063
0559   0536 FE FF               CP 0FFH
0560   0538 28 F4               JR Z,L0077
0561   053A B9                  CP C
0562   053B 20 F1               JR NZ,L0077
0563   053D 32 7F 32            LD (327FH),A
0564   0540 32 80 32            LD (3280H),A
0565   0543 32 70 32            LD (3270H),A
0566   0546 3E 0F               LD A,0FH
0567   0548 32 30 2D            LD (2D30H),A
0568   054B CD C0 88            CALL L0060
0569   054E CD 9F 89    L0082:  CALL L0063
0570   0551 FE FF               CP 0FFH
0571   0553 28 2D               JR Z,L0078
0572   0555 32 82 32            LD (3282H),A
0573   0558 CD 75 88            CALL L0079
0574   055B 30 1C               JR NC,L0080
0575   055D 2A 5D 2A            LD HL,(2A5DH)
0576   0560 22 72 32            LD (3272H),HL
0577   0563 ED 5B 77 32         LD DE,(3277H)
0578   0567 ED 52               SBC HL,DE
0579   0569 CD C4 17            CALL L0026
0580   056C CD 90 17            CALL L0014
0581   056F ED 5B 08 2D         LD DE,(2D08H)
0582   0573 37                  SCF
0583   0574 ED 52               SBC HL,DE
0584   0576 DA 49 86            JP C,L0081
0585   0579 3A 70 32    L0080:  LD A,(3270H)
0586   057C 47                  LD B,A
0587   057D CD 99 88            CALL L0069
0588   0580 18 CC               JR L0082
0589   0582 CD C0 88    L0078:  CALL L0060
0590   0585 2A 1E 2D            LD HL,(2D1EH)
0591   0588 CB 2C               SRA H
0592   058A CB 1D               RR L
0593   058C 22 86 32            LD (3286H),HL
0594   058F CD 9F 89    L0084:  CALL L0063
0595   0592 FE FF               CP 0FFH
0596   0594 20 0D               JR NZ,L0083
0597   0596 CD FB 88            CALL L0065
0598   0599 3A 7B 32            LD A,(327BH)
0599   059C FE 2D               CP 2DH
0600   059E 38 EF               JR C,L0084
0601   05A0 C3 15 85            JP L0085
0602   05A3 CD 75 88    L0083:  CALL L0079
0603   05A6 2A 22 2D            LD HL,(2D22H)
0604   05A9 22 7D 32            LD (327DH),HL
0605   05AC 22 84 32            LD (3284H),HL
0606   05AF 3A 30 2D            LD A,(2D30H)
0607   05B2 FE 0F               CP 0FH
0608   05B4 28 31               JR Z,L0086
0609   05B6 CD 1D 87            CALL L0087
0610   05B9 D2 15 85            JP NC,L0085
0611   05BC 2A 72 32            LD HL,(3272H)
0612   05BF ED 5B 5D 2A         LD DE,(2A5DH)
0613   05C3 37                  SCF
0614   05C4 3F                  CCF
0615   05C5 ED 52               SBC HL,DE
0616   05C7 EB                  EX DE,HL
0617   05C8 CD D1 17            CALL L0012
0618   05CB CD 9E 17            CALL L0005
0619   05CE 2A 1E 2D            LD HL,(2D1EH)
0620   05D1 19                  ADD HL,DE
0621   05D2 EB                  EX DE,HL
0622   05D3 D5                  PUSH DE
0623   05D4 CD 6D 1D            CALL L0088
0624   05D7 EB                  EX DE,HL
0625   05D8 ED 4B 36 2D         LD BC,(2D36H)
0626   05DC CD 78 1C            CALL L0007
0627   05DF D1                  POP DE
0628   05E0 CB 42               BIT 0,D
0629   05E2 C4 93 17            CALL NZ,L0032
0630   05E5 18 3A               JR L0089
0631   05E7 78          L0086:  LD A,B
0632   05E8 CB 3F               SRL A
0633   05EA A8                  XOR B
0634   05EB E6 01               AND 01H
0635   05ED CA 15 85            JP Z,L0085
0636   05F0 2A 20 2D            LD HL,(2D20H)
0637   05F3 22 32 2D            LD (2D32H),HL
0638   05F6 2A 1E 2D            LD HL,(2D1EH)
0639   05F9 22 86 32            LD (3286H),HL
0640   05FC 2A 22 2D            LD HL,(2D22H)
0641   05FF 22 7D 32            LD (327DH),HL
0642   0602 CD C0 88    L0091:  CALL L0060
0643   0605 CD 1D 87            CALL L0087
0644   0608 D2 15 85            JP NC,L0085
0645   060B CD EB 87            CALL L0090
0646   060E FE 0F               CP 0FH
0647   0610 28 F0               JR Z,L0091
0648   0612 2A 36 2D            LD HL,(2D36H)
0649   0615 ED 5B 0B 2A         LD DE,(2A0BH)
0650   0619 CB 2A               SRA D
0651   061B CB 1B               RR E
0652   061D 37                  SCF
0653   061E 3F                  CCF
0654   061F ED 52               SBC HL,DE
0655   0621 ED 4B 22 2D L0089:  LD BC,(2D22H)
0656   0625 CB 7C               BIT 7,H
0657   0627 20 06               JR NZ,L0092
0658   0629 CD 7D 13            CALL L0093
0659   062C C2 A4 0B            JP NZ,L0094
0660   062F CD D9 87    L0092:  CALL L0061
0661   0632 CD C0 88            CALL L0060
0662   0635 2A 26 2D            LD HL,(2D26H)
0663   0638 22 7D 32            LD (327DH),HL
0664   063B CD EB 87            CALL L0090
0665   063E 3A 7F 32            LD A,(327FH)
0666   0641 32 80 32            LD (3280H),A
0667   0644 3E 0E               LD A,0EH
0668   0646 32 30 2D            LD (2D30H),A
0669   0649 21 10 27            LD HL,2710H
0670   064C 22 78 2A            LD (2A78H),HL
0671   064F CD EB 87    L0095:  CALL L0090
0672   0652 FE 0E               CP 0EH
0673   0654 28 F9               JR Z,L0095
0674   0656 CD 41 87            CALL L0096
0675   0659 22 14 2D            LD (2D14H),HL
0676   065C ED 53 16 2D         LD (2D16H),DE
0677   0660 CD CA 87            CALL L0097
0678   0663 D2 E1 86            JP NC,L0098
0679   0666 3E 01               LD A,01H
0680   0668 32 74 32            LD (3274H),A
0681   066B 2A 24 2D            LD HL,(2D24H)
0682   066E 22 32 2D            LD (2D32H),HL
0683   0671 2A 26 2D            LD HL,(2D26H)
0684   0674 22 7D 32            LD (327DH),HL
0685   0677 CD EB 87    L0100:  CALL L0090
0686   067A 28 18               JR Z,L0099
0687   067C 2A 78 2A            LD HL,(2A78H)
0688   067F ED 5B 5B 2A         LD DE,(2A5BH)
0689   0683 37                  SCF
0690   0684 ED 52               SBC HL,DE
0691   0686 EB                  EX DE,HL
0692   0687 2A 3F 2D            LD HL,(2D3FH)
0693   068A ED 52               SBC HL,DE
0694   068C 38 E9               JR C,L0100
0695   068E ED 53 5F 2D         LD (2D5FH),DE
0696   0692 18 E3               JR L0100
0697   0694 21 00 00    L0099:  LD HL,0000H
0698   0697 22 0B 2A            LD (2A0BH),HL
0699   069A CD F9 86            CALL L0101
0700   069D DA E1 86            JP C,L0098
0701   06A0 CD 11 87            CALL L0102
0702   06A3 CD F9 86            CALL L0101
0703   06A6 DA E1 86            JP C,L0098
0704   06A9 CD 11 87            CALL L0102
0705   06AC CD F9 86            CALL L0101
0706   06AF DA E1 86            JP C,L0098
0707   06B2 ED 53 0F 2A         LD (2A0FH),DE
0708   06B6 CD 81 09            CALL L0049
0709   06B9 CD 41 87            CALL L0096
0710   06BC 22 18 2D            LD (2D18H),HL
0711   06BF ED 53 1A 2D         LD (2D1AH),DE
0712   06C3 DD 2A 14 2D         LD IX,(2D14H)
0713   06C7 FD 2A 16 2D         LD IY,(2D16H)
0714   06CB CD CB 18            CALL L0004
0715   06CE 22 2E 2D            LD (2D2EH),HL
0716   06D1 ED 53 0A 2D         LD (2D0AH),DE
0717   06D5 CD E3 0F            CALL L0075
0718   06D8 CD D3 0E            CALL L0103
0719   06DB CD 70 13            CALL L0104
0720   06DE C3 24 0A            JP L0105
0721   06E1 2A 0E 2D            LD HL,(2D0EH)
0722   06E4 ED 5B 78 2A         LD DE,(2A78H)
0723   06E8 19                  ADD HL,DE
0724   06E9 ED 5B 55 2A         LD DE,(2A55H)
0725   06ED ED 52               SBC HL,DE
0726   06EF ED 4B 38 2D         LD BC,(2D38H)
0727   06F3 CD 7D 13            CALL L0093
0728   06F6 C3 23 85            JP L0106
0729   06F9 ED 5B 78 2A         LD DE,(2A78H)
0730   06FD 2A 55 2A            LD HL,(2A55H)
0731   0700 EB                  EX DE,HL
0732   0701 37                  SCF
0733   0702 3F                  CCF
0734   0703 ED 52               SBC HL,DE
0735   0705 EB                  EX DE,HL
0736   0706 D5                  PUSH DE
0737   0707 CD 9E 17            CALL L0005
0738   070A 21 1E 00            LD HL,001EH
0739   070D ED 52               SBC HL,DE
0740   070F D1                  POP DE
0741   0710 C9                  RET
0742   0711 2A 0F 2A            LD HL,(2A0FH)
0743   0714 19                  ADD HL,DE
0744   0715 CB 2C               SRA H
0745   0717 CB 1D               RR L
0746   0719 22 0F 2A            LD (2A0FH),HL
0747   071C C9                  RET
0748   071D 2A 5D 2A            LD HL,(2A5DH)
0749   0720 ED 5B 77 32         LD DE,(3277H)
0750   0724 37                  SCF
0751   0725 3F                  CCF
0752   0726 ED 52               SBC HL,DE
0753   0728 EB                  EX DE,HL
0754   0729 CD D1 17            CALL L0012
0755   072C CD 9E 17            CALL L0005
0756   072F 2A 3A 2D            LD HL,(2D3AH)
0757   0732 37                  SCF
0758   0733 ED 52               SBC HL,DE
0759   0735 C9                  RET
0760   0736 3A 65 2D            LD A,(2D65H)
0761   0739 FE 01               CP 01H
0762   073B 3E 0D               LD A,0DH
0763   073D C2 B6 0B            JP NZ,L0107
0764   0740 C9                  RET
0765   0741 2A 2A 2D            LD HL,(2D2AH)
0766   0744 22 32 2D            LD (2D32H),HL
0767   0747 CD 9F 89    L0108:  CALL L0063
0768   074A FE FF               CP 0FFH
0769   074C 28 F9               JR Z,L0108
0770   074E 32 70 32            LD (3270H),A
0771   0751 CD 9F 89            CALL L0063
0772   0754 47                  LD B,A
0773   0755 3A 70 32            LD A,(3270H)
0774   0758 B8                  CP B
0775   0759 20 EC               JR NZ,L0108
0776   075B CD 91 87            CALL L0109
0777   075E CD 91 87            CALL L0109
0778   0761 2A 6C 32            LD HL,(326CH)
0779   0764 ED 5B 6E 32         LD DE,(326EH)
0780   0768 CD 92 8C            CALL L0030
0781   076B CB 2C               SRA H
0782   076D CB 1D               RR L
0783   076F 19                  ADD HL,DE
0784   0770 CD C4 17            CALL L0026
0785   0773 7C                  LD A,H
0786   0774 E6 03               AND 03H
0787   0776 67                  LD H,A
0788   0777 22 1C 2D            LD (2D1CH),HL
0789   077A EB                  EX DE,HL
0790   077B ED 4B 36 2D         LD BC,(2D36H)
0791   077F CD 09 0F            CALL L0023
0792   0782 ED 4B 51 2A         LD BC,(2A51H)
0793   0786 09                  ADD HL,BC
0794   0787 EB                  EX DE,HL
0795   0788 ED 4B 57 2A         LD BC,(2A57H)
0796   078C 09                  ADD HL,BC
0797   078D EB                  EX DE,HL
0798   078E 37                  SCF
0799   078F 3F                  CCF
0800   0790 C9                  RET
0801   0791 21 71 32            LD HL,3271H
0802   0794 36 06       L0111:  LD (HL),06H
0803   0796 3A 70 32            LD A,(3270H)
0804   0799 47                  LD B,A
0805   079A E5                  PUSH HL
0806   079B CD 99 88            CALL L0069
0807   079E E1                  POP HL
0808   079F CD 9F 89    L0110:  CALL L0063
0809   07A2 FE FF               CP 0FFH
0810   07A4 28 F9               JR Z,L0110
0811   07A6 4F                  LD C,A
0812   07A7 3A 70 32            LD A,(3270H)
0813   07AA A9                  XOR C
0814   07AB E6 01               AND 01H
0815   07AD 28 E5               JR Z,L0111
0816   07AF 35                  DEC (HL)
0817   07B0 20 ED               JR NZ,L0110
0818   07B2 2A 5D 2A            LD HL,(2A5DH)
0819   07B5 3A 70 32            LD A,(3270H)
0820   07B8 EE 01               XOR 01H
0821   07BA 32 70 32            LD (3270H),A
0822   07BD E6 01               AND 01H
0823   07BF 28 05               JR Z,L0112
0824   07C1 22 6E 32            LD (326EH),HL
0825   07C4 18 03               JR L0113
0826   07C6 22 6C 32    L0112:  LD (326CH),HL
0827   07C9 C9          L0113:  RET
0828   07CA 2A 0C 2D            LD HL,(2D0CH)
0829   07CD ED 5B 55 2A         LD DE,(2A55H)
0830   07D1 19                  ADD HL,DE
0831   07D2 ED 5B 78 2A         LD DE,(2A78H)
0832   07D6 ED 52               SBC HL,DE
0833   07D8 C9                  RET
0834   07D9 E5                  PUSH HL
0835   07DA 21 00 00            LD HL,0000H
0836   07DD 22 84 32            LD (3284H),HL
0837   07E0 2A 1E 2D            LD HL,(2D1EH)
0838   07E3 22 32 2D            LD (2D32H),HL
0839   07E6 22 86 32            LD (3286H),HL
0840   07E9 E1                  POP HL
0841   07EA C9                  RET
0842   07EB C5                  PUSH BC
0843   07EC 3A 7C 2A    L0116:  LD A,(2A7CH)
0844   07EF 47                  LD B,A
0845   07F0 3A 7D 2A            LD A,(2A7DH)
0846   07F3 B0                  OR B
0847   07F4 C2 A4 0B            JP NZ,L0094
0848   07F7 CD 9F 89            CALL L0063
0849   07FA FE FF               CP 0FFH
0850   07FC 20 1B               JR NZ,L0114
0851   07FE 3A 30 2D            LD A,(2D30H)
0852   0801 FE 0E               CP 0EH
0853   0803 30 08               JR NC,L0115
0854   0805 21 00 00            LD HL,0000H
0855   0808 22 0B 2A            LD (2A0BH),HL
0856   080B 18 DF               JR L0116
0857   080D 3A 7B 32    L0115:  LD A,(327BH)
0858   0810 FE 0A               CP 0AH
0859   0812 30 D8               JR NC,L0116
0860   0814 CD FB 88            CALL L0065
0861   0817 18 D3               JR L0116
0862   0819 CB 7F       L0114:  BIT 7,A
0863   081B F5                  PUSH AF
0864   081C CD 75 88            CALL L0079
0865   081F 30 1F               JR NC,L0117
0866   0821 3A 74 32            LD A,(3274H)
0867   0824 A7                  AND A
0868   0825 28 19               JR Z,L0117
0869   0827 2A 31 2D            LD HL,(2D31H)
0870   082A ED 5B 28 2D         LD DE,(2D28H)
0871   082E 37                  SCF
0872   082F 3F                  CCF
0873   0830 ED 52               SBC HL,DE
0874   0832 22 31 2D            LD (2D31H),HL
0875   0835 2A 7C 32            LD HL,(327CH)
0876   0838 ED 5B 34 2D         LD DE,(2D34H)
0877   083C 19                  ADD HL,DE
0878   083D 22 7C 32            LD (327CH),HL
0879   0840 CD 99 88    L0117:  CALL L0069
0880   0843 3A 74 32            LD A,(3274H)
0881   0846 A7                  AND A
0882   0847 21 88 13            LD HL,1388H
0883   084A 28 0B               JR Z,L0118
0884   084C 2A 78 2A            LD HL,(2A78H)
0885   084F ED 5B 55 2A         LD DE,(2A55H)
0886   0853 37                  SCF
0887   0854 3F                  CCF
0888   0855 ED 52               SBC HL,DE
0889   0857 ED 4B 7D 32 L0118:  LD BC,(327DH)
0890   085B ED 43 F5 2C         LD (2CF5H),BC
0891   085F ED 4B 2C 2D         LD BC,(2D2CH)
0892   0863 CD 18 14            CALL L0119
0893   0866 2A 0B 2A            LD HL,(2A0BH)
0894   0869 CD 8C 19            CALL L0120
0895   086C CD C0 88            CALL L0060
0896   086F F1                  POP AF
0897   0870 3A 30 2D            LD A,(2D30H)
0898   0873 C1                  POP BC
0899   0874 C9                  RET
0900   0875 47                  LD B,A
0901   0876 ED 5B 7F 32         LD DE,(327FH)
0902   087A 4A                  LD C,D
0903   087B 53                  LD D,E
0904   087C 58                  LD E,B
0905   087D ED 53 7F 32         LD (327FH),DE
0906   0881 AA                  XOR D
0907   0882 E6 01       L0185:  AND 01H
0908   0884 C2 98 88            JP NZ,L0121
0909   0887 78                  LD A,B
0910   0888 A9                  XOR C
0911   0889 E6 01               AND 01H
0912   088B 28 0B               JR Z,L0122
0913   088D 3A 30 2D            LD A,(2D30H)
0914   0890 D6 01               SUB 01H
0915   0892 3F                  CCF
0916   0893 30 03               JR NC,L0122
0917   0895 32 30 2D            LD (2D30H),A
0918   0898 C9          L0122:  RET
0919   0899 2A 32 2D            LD HL,(2D32H)
0920   089C C5                  PUSH BC
0921   089D CB 40               BIT 0,B
0922   089F 20 03               JR NZ,L0123
0923   08A1 CD 93 17            CALL L0032
0924   08A4 ED 5B 75 32 L0123:  LD DE,(3275H)
0925   08A8 19                  ADD HL,DE
0926   08A9 CB 2C               SRA H
0927   08AB CB 1D               RR L
0928   08AD 22 75 32            LD (3275H),HL
0929   08B0 CD 49 19            CALL L0124
0930   08B3 C1                  POP BC
0931   08B4 C9                  RET
0932   08B5 3A 03 24            LD A,(2403H)
0933   08B8 FE FF               CP 0FFH
0934   08BA 28 03               JR Z,L0125
0935   08BC 32 7A 32            LD (327AH),A
0936   08BF C9          L0125:  RET
0937   08C0 F5                  PUSH AF
0938   08C1 AF                  XOR A
0939   08C2 32 7B 32            LD (327BH),A
0940   08C5 F1                  POP AF
0941   08C6 C9                  RET
0942   08C7 CD 42 16            CALL L0055
0943   08CA CD 36 87            CALL L0056
0944   08CD ED 5B 0A 2D         LD DE,(2D0AH)
0945   08D1 DD 7E FA            LD A,(IX-06H)
0946   08D4 FE 15               CP 15H
0947   08D6 C2 94 0B            JP NZ,L0025
0948   08D9 2A 55 2A            LD HL,(2A55H)
0949   08DC 7C                  LD A,H
0950   08DD E6 FC               AND 0FCH
0951   08DF C2 9C 0B            JP NZ,L0058
0952   08E2 22 88 32            LD (3288H),HL
0953   08E5 37                  SCF
0954   08E6 3F                  CCF
0955   08E7 ED 52               SBC HL,DE
0956   08E9 22 C6 2C            LD (2CC6H),HL
0957   08EC ED 5B 74 2A         LD DE,(2A74H)
0958   08F0 19                  ADD HL,DE
0959   08F1 7C                  LD A,H
0960   08F2 E6 03               AND 03H
0961   08F4 67                  LD H,A
0962   08F5 22 74 2A            LD (2A74H),HL
0963   08F8 C3 24 0A            JP L0105
0964   08FB F5                  PUSH AF
0965   08FC C5                  PUSH BC
0966   08FD 3A 7B 32            LD A,(327BH)
0967   0900 3C                  INC A
0968   0901 32 7B 32            LD (327BH),A
0969   0904 FE E6               CP 0E6H
0970   0906 D2 A8 0B            JP NC,L0126
0971   0909 FE 46               CP 46H
0972   090B F5                  PUSH AF
0973   090C 3F                  CCF
0974   090D CB 10               RL B
0975   090F 3A 82 32            LD A,(3282H)
0976   0912 CB 3F               SRL A
0977   0914 A8                  XOR B
0978   0915 47                  LD B,A
0979   0916 2A 86 32            LD HL,(3286H)
0980   0919 CD 9C 88            CALL L0127
0981   091C F1                  POP AF
0982   091D 30 06               JR NC,L0128
0983   091F 2A 84 32            LD HL,(3284H)
0984   0922 CD 5F 19            CALL L0129
0985   0925 C1          L0128:  POP BC
0986   0926 F1                  POP AF
0987   0927 C9                  RET
0988   0928 ED 53 8A 32         LD (328AH),DE
0989   092C 22 8C 32            LD (328CH),HL
0990   092F 01 04 00            LD BC,0004H
0991   0932 11 04 24            LD DE,2404H
0992   0935 CD 49 89            CALL L0130
0993   0938 C9                  RET
0994   0939 22 8A 32            LD (328AH),HL
0995   093C 01 02 00            LD BC,0002H
0996   093F 11 08 24            LD DE,2408H
0997   0942 CD 49 89            CALL L0130
0998   0945 3A 5E 30            LD A,(305EH)
0999   0948 C9                  RET
1000   0949 ED 43 8E 32         LD (328EH),BC
1001   094D ED 53 90 32         LD (3290H),DE
1002   0951 21 8A 32            LD HL,328AH
1003   0954 CD 96 89            CALL L0131
1004   0957 01 04 00    L0132:  LD BC,0004H
1005   095A ED 5B 90 32         LD DE,(3290H)
1006   095E 3E 04               LD A,04H
1007   0960 CD E7 91            CALL L0048
1008   0963 CD 81 09            CALL L0049
1009   0966 ED 4B 8D 32         LD BC,(328DH)
1010   096A AF                  XOR A
1011   096B 21 5C 30            LD HL,305CH
1012   096E BE          L0133:  CP (HL)
1013   096F 20 E6               JR NZ,L0132
1014   0971 23                  INC HL
1015   0972 10 FA               DJNZ L0133
1016   0974 C9                  RET
1017   0975 C5                  PUSH BC
1018   0976 D5                  PUSH DE
1019   0977 E5                  PUSH HL
1020   0978 CD B5 88            CALL L0134
1021   097B 3E 01               LD A,01H
1022   097D 32 79 32            LD (3279H),A
1023   0980 01 02 00            LD BC,0002H
1024   0983 21 79 32            LD HL,3279H
1025   0986 11 00 24            LD DE,2400H
1026   0989 CD 96 89            CALL L0131
1027   098C CD 81 09            CALL L0049
1028   098F CD 81 09            CALL L0049
1029   0992 E1                  POP HL
1030   0993 D1                  POP DE
1031   0994 C1                  POP BC
1032   0995 C9                  RET
1033   0996 3E 04               LD A,04H
1034   0998 CD F1 91            CALL L0135
1035   099B CD 81 09            CALL L0049
1036   099E C9                  RET
1037   099F C5                  PUSH BC
1038   09A0 D5                  PUSH DE
1039   09A1 E5                  PUSH HL
1040   09A2 3E 04               LD A,04H
1041   09A4 01 04 00            LD BC,0004H
1042   09A7 11 0E 24            LD DE,240EH
1043   09AA 21 5C 30            LD HL,305CH
1044   09AD CD EA 91            CALL L0046
1045   09B0 CD DF 0E            CALL L0136
1046   09B3 CD 81 09            CALL L0049
1047   09B6 3A 5C 30            LD A,(305CH)
1048   09B9 FE FF               CP 0FFH
1049   09BB 28 3A               JR Z,L0137
1050   09BD CB FF               SET 7,A
1051   09BF 2A 78 2A            LD HL,(2A78H)
1052   09C2 11 1E 00            LD DE,001EH
1053   09C5 19                  ADD HL,DE
1054   09C6 ED 5B 5E 30         LD DE,(305EH)
1055   09CA CB 7A               BIT 7,D
1056   09CC 20 16               JR NZ,L0138
1057   09CE 37                  SCF
1058   09CF ED 52               SBC HL,DE
1059   09D1 38 11               JR C,L0138
1060   09D3 EB                  EX DE,HL
1061   09D4 ED 5B 29 2A         LD DE,(2A29H)
1062   09D8 ED 52               SBC HL,DE
1063   09DA 22 78 2A            LD (2A78H),HL
1064   09DD 11 00 00            LD DE,0000H
1065   09E0 ED 53 7A 2A         LD (2A7AH),DE
1066   09E4 11 04 00    L0138:  LD DE,0004H
1067   09E7 2A 55 2A            LD HL,(2A55H)
1068   09EA 19                  ADD HL,DE
1069   09EB ED 5B 78 2A         LD DE,(2A78H)
1070   09EF 37                  SCF
1071   09F0 3F                  CCF
1072   09F1 ED 52               SBC HL,DE
1073   09F3 38 02               JR C,L0137
1074   09F5 CB BF               RES 7,A
1075   09F7 ED 4B 92 32 L0137:  LD BC,(3292H)
1076   09FB 47                  LD B,A
1077   09FC 32 92 32            LD (3292H),A
1078   09FF 79                  LD A,C
1079   0A00 E6 80               AND 80H
1080   0A02 B0                  OR B
1081   0A03 CB 7F               BIT 7,A
1082   0A05 E1                  POP HL
1083   0A06 D1                  POP DE
1084   0A07 C1                  POP BC
1085   0A08 C9                  RET
1086   0A09 CD 42 16            CALL L0055
1087   0A0C CD 36 87            CALL L0056
1088   0A0F 2A 55 2A            LD HL,(2A55H)
1089   0A12 7C                  LD A,H
1090   0A13 B5                  OR L
1091   0A14 28 0F               JR Z,L0139
1092   0A16 CB 7C               BIT 7,H
1093   0A18 CA 9C 0B            JP Z,L0058
1094   0A1B ED 4B 38 2D         LD BC,(2D38H)
1095   0A1F CD 7D 13            CALL L0093
1096   0A22 C2 A4 0B            JP NZ,L0094
1097   0A25 11 FF FF            LD DE,0FFFFH
1098   0A28 21 00 00            LD HL,0000H
1099   0A2B CD 28 89            CALL L0070
1100   0A2E 3E 00               LD A,00H
1101   0A30 32 79 32            LD (3279H),A
1102   0A33 3E FF               LD A,0FFH
1103   0A35 32 7A 32            LD (327AH),A
1104   0A38 01 02 00            LD BC,0002H
1105   0A3B 11 00 24            LD DE,2400H
1106   0A3E 21 79 32            LD HL,3279H
1107   0A41 CD 96 89            CALL L0131
1108   0A44 3E 00               LD A,00H
1109   0A46 CD 0E 04            CALL L0022
1110   0A49 CD 70 13            CALL L0104
1111   0A4C C3 24 0A            JP L0105
1112   0A4F CD 36 87            CALL L0056
1113   0A52 ED 5B 55 2A         LD DE,(2A55H)
1114   0A56 2A 5B 2A            LD HL,(2A5BH)
1115   0A59 CD 75 89            CALL L0062
1116   0A5C CD 28 89            CALL L0070
1117   0A5F C3 24 0A            JP L0105
1118   0A62 CD 36 87            CALL L0056
1119   0A65 2A 55 2A            LD HL,(2A55H)
1120   0A68 CD 75 89            CALL L0062
1121   0A6B CD 39 89            CALL L0071
1122   0A6E 6F                  LD L,A
1123   0A6F 26 00               LD H,00H
1124   0A71 22 B0 2A            LD (2AB0H),HL
1125   0A74 C3 24 0A            JP L0105
1126   0A77 CD 42 16            CALL L0055
1127   0A7A CD 36 87            CALL L0056
1128   0A7D 21 91 8A            LD HL,8A91H
1129   0A80 01 01 00            LD BC,0001H
1130   0A83 11 00 24            LD DE,2400H
1131   0A86 CD 96 89            CALL L0131
1132   0A89 3E 1D               LD A,1DH
1133   0A8B CD 0E 04            CALL L0022
1134   0A8E C3 24 0A            JP L0105
1135   0A91 02                  LD (BC),A
1136   0A92 CD 36 87            CALL L0056
1137   0A95 21 B0 8A            LD HL,8AB0H
1138   0A98 01 01 00            LD BC,0001H
1139   0A9B 11 00 24            LD DE,2400H
1140   0A9E CD 96 89            CALL L0131
1141   0AA1 3A 01 24            LD A,(2401H)
1142   0AA4 FE 1D               CP 1DH
1143   0AA6 20 05               JR NZ,L0140
1144   0AA8 3E 00               LD A,00H
1145   0AAA CD 0E 04            CALL L0022
1146   0AAD C3 24 0A    L0140:  JP L0105
1147   0AB0 00                  NOP
1148   0AB1 CD F1 8A            CALL L0141
1149   0AB4 3A 03 24            LD A,(2403H)
1150   0AB7 32 2F 32            LD (322FH),A
1151   0ABA ED 5B 55 2A         LD DE,(2A55H)
1152   0ABE 7A                  LD A,D
1153   0ABF B3                  OR E
1154   0AC0 28 10               JR Z,L0142
1155   0AC2 21 58 02            LD HL,0258H
1156   0AC5 01 01 00            LD BC,0001H
1157   0AC8 CD B2 15            CALL L0057
1158   0ACB DA 9C 0B            JP C,L0058
1159   0ACE ED 53 3F 2D         LD (2D3FH),DE
1160   0AD2 ED 5B 5B 2A L0142:  LD DE,(2A5BH)
1161   0AD6 7A                  LD A,D
1162   0AD7 B3                  OR E
1163   0AD8 28 14               JR Z,L0143
1164   0ADA 21 58 02            LD HL,0258H
1165   0ADD 01 01 00            LD BC,0001H
1166   0AE0 CD B2 15            CALL L0057
1167   0AE3 DA A0 0B            JP C,L0059
1168   0AE6 ED 53 4F 2D         LD (2D4FH),DE
1169   0AEA ED 53 51 2D         LD (2D51H),DE
1170   0AEE C3 24 0A    L0143:  JP L0105
1171   0AF1 3A 63 2D            LD A,(2D63H)
1172   0AF4 FE 01               CP 01H
1173   0AF6 3E 0C               LD A,0CH
1174   0AF8 C2 B6 0B            JP NZ,L0107
1175   0AFB C9                  RET
1176   0AFC CD F1 8A            CALL L0141
1177   0AFF 3A 03 24            LD A,(2403H)
1178   0B02 3C                  INC A
1179   0B03 32 30 32            LD (3230H),A
1180   0B06 CD 6E 0F            CALL L0144
1181   0B09 ED 5B 55 2A         LD DE,(2A55H)
1182   0B0D 7A                  LD A,D
1183   0B0E B3                  OR E
1184   0B0F 28 19               JR Z,L0145
1185   0B11 21 58 02            LD HL,0258H
1186   0B14 01 01 00            LD BC,0001H
1187   0B17 CD B2 15            CALL L0057
1188   0B1A DA 9C 0B            JP C,L0058
1189   0B1D ED 53 32 32         LD (3232H),DE
1190   0B21 01 02 00            LD BC,0002H
1191   0B24 11 68 24            LD DE,2468H
1192   0B27 CD 8F 0F            CALL L0146
1193   0B2A CD 81 09    L0145:  CALL L0049
1194   0B2D C3 24 0A            JP L0105
1195   0B30 CD 42 16            CALL L0055
1196   0B33 CD F1 8A            CALL L0141
1197   0B36 2A 55 2A            LD HL,(2A55H)
1198   0B39 ED 5B 5B 2A         LD DE,(2A5BH)
1199   0B3D CD C3 18            CALL L0147
1200   0B40 01 02 00            LD BC,0002H
1201   0B43 C5                  PUSH BC
1202   0B44 D5                  PUSH DE
1203   0B45 DD 21 42 8C         LD IX,8C42H
1204   0B49 DD 09               ADD IX,BC
1205   0B4B DD 09               ADD IX,BC
1206   0B4D DD 6E 00            LD L,(IX+00H)
1207   0B50 DD 66 01            LD H,(IX+01H)
1208   0B53 19                  ADD HL,DE
1209   0B54 EB                  EX DE,HL
1210   0B55 CD E3 0F            CALL L0075
1211   0B58 3E 01               LD A,01H
1212   0B5A 11 1A 24            LD DE,241AH
1213   0B5D CD 82 0F            CALL L0148
1214   0B60 3E 03       L0149:  LD A,03H
1215   0B62 01 05 00            LD BC,0005H
1216   0B65 11 1A 24            LD DE,241AH
1217   0B68 CD E7 91            CALL L0048
1218   0B6B CD 81 09            CALL L0049
1219   0B6E 3A 5C 30            LD A,(305CH)
1220   0B71 FE 01               CP 01H
1221   0B73 28 EB               JR Z,L0149
1222   0B75 D1                  POP DE
1223   0B76 C1                  POP BC
1224   0B77 2A 5F 30            LD HL,(305FH)
1225   0B7A 7D                  LD A,L
1226   0B7B B4                  OR H
1227   0B7C 20 07               JR NZ,L0150
1228   0B7E 0D                  DEC C
1229   0B7F F2 43 8B            JP P,L0151
1230   0B82 C3 36 8C            JP L0152
1231   0B85 2A 5D 2A    L0150:  LD HL,(2A5DH)
1232   0B88 ED 5B 5D 30         LD DE,(305DH)
1233   0B8C 19                  ADD HL,DE
1234   0B8D EB                  EX DE,HL
1235   0B8E ED 4B 5F 30         LD BC,(305FH)
1236   0B92 CD 09 0F            CALL L0023
1237   0B95 ED 4B 51 2A         LD BC,(2A51H)
1238   0B99 09                  ADD HL,BC
1239   0B9A 22 41 2D            LD (2D41H),HL
1240   0B9D 2A 57 2A            LD HL,(2A57H)
1241   0BA0 19          L0059:  ADD HL,DE
1242   0BA1 22 43 2D            LD (2D43H),HL
1243   0BA4 2A 41 2D    L0094:  LD HL,(2D41H)
1244   0BA7 ED 5B 43 2D         LD DE,(2D43H)
1245   0BAB DD 2A 55 2A         LD IX,(2A55H)
1246   0BAF FD 2A 5B 2A         LD IY,(2A5BH)
1247   0BB3 CD CB 18            CALL L0004
1248   0BB6 ED 5B 03 24 L0107:  LD DE,(2403H)
1249   0BBA 16 00               LD D,00H
1250   0BBC 37                  SCF
1251   0BBD ED 52               SBC HL,DE
1252   0BBF D2 36 8C            JP NC,L0152
1253   0BC2 CD BC 18            CALL L0153
1254   0BC5 CD D1 17            CALL L0012
1255   0BC8 D5                  PUSH DE
1256   0BC9 2A 51 2A            LD HL,(2A51H)
1257   0BCC ED 5B 41 2D         LD DE,(2D41H)
1258   0BD0 ED 4B 55 2A         LD BC,(2A55H)
1259   0BD4 CD 48 8C            CALL L0154
1260   0BD7 22 51 2A            LD (2A51H),HL
1261   0BDA 2A 57 2A            LD HL,(2A57H)
1262   0BDD ED 5B 43 2D         LD DE,(2D43H)
1263   0BE1 ED 4B 5B 2A         LD BC,(2A5BH)
1264   0BE5 CD 48 8C            CALL L0154
1265   0BE8 22 57 2A            LD (2A57H),HL
1266   0BEB 2A 53 2A            LD HL,(2A53H)
1267   0BEE ED 5B 41 2D         LD DE,(2D41H)
1268   0BF2 ED 4B 55 2A         LD BC,(2A55H)
1269   0BF6 CD 48 8C            CALL L0154
1270   0BF9 22 53 2A            LD (2A53H),HL
1271   0BFC 2A 59 2A            LD HL,(2A59H)
1272   0BFF ED 5B 43 2D         LD DE,(2D43H)
1273   0C03 ED 4B 5B 2A         LD BC,(2A5BH)
1274   0C07 CD 48 8C            CALL L0154
1275   0C0A 22 59 2A            LD (2A59H),HL
1276   0C0D CD BC 18            CALL L0153
1277   0C10 CD D1 17            CALL L0012
1278   0C13 ED 4B 5F 30         LD BC,(305FH)
1279   0C17 CB 21               SLA C
1280   0C19 CB 10               RL B
1281   0C1B 37                  SCF
1282   0C1C ED 42               SBC HL,BC
1283   0C1E C1                  POP BC
1284   0C1F 38 10               JR C,L0155
1285   0C21 2A 74 2A            LD HL,(2A74H)
1286   0C24 19                  ADD HL,DE
1287   0C25 ED 42               SBC HL,BC
1288   0C27 7C                  LD A,H
1289   0C28 E6 03               AND 03H
1290   0C2A 67                  LD H,A
1291   0C2B 22 74 2A            LD (2A74H),HL
1292   0C2E CD 5C 0F            CALL L0017
1293   0C31 CD 39 0F    L0155:  CALL L0016
1294   0C34 18 03               JR L0156
1295   0C36 CD 7C 81            CALL L0157
1296   0C39 2A 4B 2D    L0156:  LD HL,(2D4BH)
1297   0C3C 22 B0 2A            LD (2AB0H),HL
1298   0C3F C3 24 0A            JP L0105
1299   0C42 28 00               JR Z,L0158
1300   0C44 D8          L0158:  RET C
1301   0C45 FF                  RST 38H
1302   0C46 00                  NOP
1303   0C47 00                  NOP
1304   0C48 09                  ADD HL,BC
1305   0C49 37                  SCF
1306   0C4A 3F                  CCF
1307   0C4B ED 52               SBC HL,DE
1308   0C4D C9                  RET
1309   0C4E CD F1 8A            CALL L0141
1310   0C51 ED 5B 55 2A         LD DE,(2A55H)
1311   0C55 7A                  LD A,D
1312   0C56 B3                  OR E
1313   0C57 28 15               JR Z,L0159
1314   0C59 01 FA 00            LD BC,00FAH
1315   0C5C 21 58 02            LD HL,0258H
1316   0C5F CD B2 15            CALL L0057
1317   0C62 DA 9C 0B            JP C,L0058
1318   0C65 ED 53 59 2D         LD (2D59H),DE
1319   0C69 3E 01               LD A,01H
1320   0C6B 32 61 2D            LD (2D61H),A
1321   0C6E 3A 03 24    L0159:  LD A,(2403H)
1322   0C71 A7                  AND A
1323   0C72 28 03               JR Z,L0160
1324   0C74 32 5B 2D            LD (2D5BH),A
1325   0C77 ED 5B 5B 2A L0160:  LD DE,(2A5BH)
1326   0C7B 7A                  LD A,D
1327   0C7C B3                  OR E
1328   0C7D 28 10               JR Z,L0161
1329   0C7F 01 64 00            LD BC,0064H
1330   0C82 21 E8 03            LD HL,03E8H
1331   0C85 CD B2 15            CALL L0057
1332   0C88 DA A0 0B            JP C,L0059
1333   0C8B ED 53 AD 31         LD (31ADH),DE
1334   0C8F C3 24 0A    L0161:  JP L0105
1335   0C92 CD C4 17            CALL L0026
1336   0C95 CD D1 17            CALL L0012
1337   0C98 37                  SCF
1338   0C99 3F                  CCF
1339   0C9A ED 52               SBC HL,DE
1340   0C9C CD C4 17            CALL L0026
1341   0C9F C9                  RET
1342   0CA0 3E 02               LD A,02H
1343   0CA2 18 06               JR L0162
1344   0CA4 3E 03               LD A,03H
1345   0CA6 18 02               JR L0162
1346   0CA8 3E 04               LD A,04H
1347   0CAA F5          L0162:  PUSH AF
1348   0CAB CD 1D 8D            CALL L0163
1349   0CAE 2A 55 2A            LD HL,(2A55H)
1350   0CB1 11 0C 24            LD DE,240CH
1351   0CB4 01 02 00            LD BC,0002H
1352   0CB7 CD 0E 8D            CALL L0164
1353   0CBA 2A 5B 2A            LD HL,(2A5BH)
1354   0CBD 7D                  LD A,L
1355   0CBE B4                  OR H
1356   0CBF 28 09               JR Z,L0165
1357   0CC1 11 10 24            LD DE,2410H
1358   0CC4 01 02 00            LD BC,0002H
1359   0CC7 CD 0E 8D            CALL L0164
1360   0CCA 3A 03 24    L0165:  LD A,(2403H)
1361   0CCD A7                  AND A
1362   0CCE 28 0A               JR Z,L0166
1363   0CD0 6F                  LD L,A
1364   0CD1 11 0A 24            LD DE,240AH
1365   0CD4 01 01 00            LD BC,0001H
1366   0CD7 CD 0E 8D            CALL L0164
1367   0CDA F1          L0166:  POP AF
1368   0CDB 6F                  LD L,A
1369   0CDC 11 00 24            LD DE,2400H
1370   0CDF 01 01 00            LD BC,0001H
1371   0CE2 CD 0E 8D            CALL L0164
1372   0CE5 CD 81 09            CALL L0049
1373   0CE8 CD 81 09    L0168:  CALL L0049
1374   0CEB CD FF 8C            CALL L0167
1375   0CEE 3A 5C 30            LD A,(305CH)
1376   0CF1 FE 00               CP 00H
1377   0CF3 28 F3               JR Z,L0168
1378   0CF5 32 B0 2A            LD (2AB0H),A
1379   0CF8 AF                  XOR A
1380   0CF9 32 B1 2A            LD (2AB1H),A
1381   0CFC C3 24 0A            JP L0105
1382   0CFF 3E 02               LD A,02H
1383   0D01 01 01 00            LD BC,0001H
1384   0D04 11 02 24            LD DE,2402H
1385   0D07 CD E7 91            CALL L0048
1386   0D0A CD 81 09            CALL L0049
1387   0D0D C9                  RET
1388   0D0E 22 94 32            LD (3294H),HL
1389   0D11 21 94 32            LD HL,3294H
1390   0D14 3E 02               LD A,02H
1391   0D16 CD F1 91            CALL L0135
1392   0D19 CD 81 09            CALL L0049
1393   0D1C C9                  RET
1394   0D1D 3A 64 2D            LD A,(2D64H)
1395   0D20 FE 01               CP 01H
1396   0D22 3E 0E               LD A,0EH
1397   0D24 C2 B6 0B            JP NZ,L0107
1398   0D27 C9                  RET
1399   0D28 CD 42 16            CALL L0055
1400   0D2B CD F1 8A            CALL L0141
1401   0D2E 21 00 00            LD HL,0000H
1402   0D31 22 B0 2A            LD (2AB0H),HL
1403   0D34 22 0B 2A            LD (2A0BH),HL
1404   0D37 22 0D 2A            LD (2A0DH),HL
1405   0D3A 3E 0B               LD A,0BH
1406   0D3C CD 0E 04            CALL L0022
1407   0D3F AF                  XOR A
1408   0D40 32 98 32            LD (3298H),A
1409   0D43 CD 67 08            CALL L0169
1410   0D46 2A 5B 2A            LD HL,(2A5BH)
1411   0D49 23                  INC HL
1412   0D4A 22 96 32            LD (3296H),HL
1413   0D4D 3A 98 32            LD A,(3298H)
1414   0D50 A7                  AND A
1415   0D51 28 06               JR Z,L0170
1416   0D53 2A 96 32            LD HL,(3296H)
1417   0D56 22 5B 2A            LD (2A5BH),HL
1418   0D59 2A 5B 2A    L0170:  LD HL,(2A5BH)
1419   0D5C 2B                  DEC HL
1420   0D5D CB 7C               BIT 7,H
1421   0D5F C2 3F 8E            JP NZ,L0171
1422   0D62 22 5B 2A            LD (2A5BH),HL
1423   0D65 01 25 00            LD BC,0025H
1424   0D68 11 02 24            LD DE,2402H
1425   0D6B 3E 03               LD A,03H
1426   0D6D CD E7 91            CALL L0048
1427   0D70 CD 81 09            CALL L0049
1428   0D73 2A 5E 30            LD HL,(305EH)
1429   0D76 ED 5B 3F 2D         LD DE,(2D3FH)
1430   0D7A ED 52               SBC HL,DE
1431   0D7C 38 5A               JR C,L0172
1432   0D7E 3A 7D 2A            LD A,(2A7DH)
1433   0D81 47                  LD B,A
1434   0D82 3A 7C 2A            LD A,(2A7CH)
1435   0D85 B0                  OR B
1436   0D86 28 09               JR Z,L0173
1437   0D88 3A 2E 32            LD A,(322EH)
1438   0D8B 3C                  INC A
1439   0D8C FE 0A               CP 0AH
1440   0D8E D2 A4 0B            JP NC,L0094
1441   0D91 32 2E 32    L0173:  LD (322EH),A
1442   0D94 2A 7F 30            LD HL,(307FH)
1443   0D97 ED 5B 55 2A         LD DE,(2A55H)
1444   0D9B 7D                  LD A,L
1445   0D9C B4                  OR H
1446   0D9D 20 06               JR NZ,L0174
1447   0D9F AF                  XOR A
1448   0DA0 32 98 32            LD (3298H),A
1449   0DA3 18 33               JR L0172
1450   0DA5 37          L0174:  SCF
1451   0DA6 3F                  CCF
1452   0DA7 ED 52               SBC HL,DE
1453   0DA9 EB                  EX DE,HL
1454   0DAA 2A 03 24            LD HL,(2403H)
1455   0DAD 37                  SCF
1456   0DAE 3F                  CCF
1457   0DAF ED 52               SBC HL,DE
1458   0DB1 62                  LD H,D
1459   0DB2 6B                  LD L,E
1460   0DB3 30 03               JR NC,L0175
1461   0DB5 2A 03 24            LD HL,(2403H)
1462   0DB8 CB 7A       L0175:  BIT 7,D
1463   0DBA CA C5 8D            JP Z,L0176
1464   0DBD 3E 01               LD A,01H
1465   0DBF 32 98 32            LD (3298H),A
1466   0DC2 21 00 00            LD HL,0000H
1467   0DC5 ED 4B 03 2A         LD BC,(2A03H)
1468   0DC9 CB 7A               BIT 7,D
1469   0DCB 28 04               JR Z,L0177
1470   0DCD CB 21               SLA C
1471   0DCF CB 10               RL B
1472   0DD1 3A 98 32    L0177:  LD A,(3298H)
1473   0DD4 FE 01               CP 01H
1474   0DD6 28 07               JR Z,L0178
1475   0DD8 21 00 00    L0172:  LD HL,0000H
1476   0DDB ED 4B 3D 2D         LD BC,(2D3DH)
1477   0DDF ED 5B 0B 2A L0178:  LD DE,(2A0BH)
1478   0DE3 CD F3 19            CALL L0179
1479   0DE6 22 0B 2A            LD (2A0BH),HL
1480   0DE9 CD 5F 19            CALL L0129
1481   0DEC 3A 98 32            LD A,(3298H)
1482   0DEF FE 01               CP 01H
1483   0DF1 20 49               JR NZ,L0180
1484   0DF3 ED 5B 7D 30         LD DE,(307DH)
1485   0DF7 ED 4B 76 2A         LD BC,(2A76H)
1486   0DFB CD D1 17            CALL L0012
1487   0DFE CB 7A               BIT 7,D
1488   0E00 28 03               JR Z,L0181
1489   0E02 CD AF 17            CALL L0039
1490   0E05 ED 53 C1 31 L0181:  LD (31C1H),DE
1491   0E09 21 00 00            LD HL,0000H
1492   0E0C 22 C3 31            LD (31C3H),HL
1493   0E0F ED 43 BF 31         LD (31BFH),BC
1494   0E13 CD 75 17            CALL L0182
1495   0E16 ED 4B BF 31         LD BC,(31BFH)
1496   0E1A 3A 67 2A            LD A,(2A67H)
1497   0E1D FE 04               CP 04H
1498   0E1F 20 03               JR NZ,L0183
1499   0E21 01 00 00            LD BC,0000H
1500   0E24 ED 43 05 24 L0183:  LD (2405H),BC
1501   0E28 ED 4B 05 2A         LD BC,(2A05H)
1502   0E2C 2A 05 24            LD HL,(2405H)
1503   0E2F ED 5B 0D 2A         LD DE,(2A0DH)
1504   0E33 CD F3 19            CALL L0179
1505   0E36 22 0D 2A            LD (2A0DH),HL
1506   0E39 CD 49 19            CALL L0124
1507   0E3C C3 4D 8D    L0180:  JP L0184
1508   0E3F 21 00 00            LD HL,0000H
1509   0E42 22 0B 2A            LD (2A0BH),HL
1510   0E45 22 0D 2A            LD (2A0DH),HL
1511   0E48 3E 00               LD A,00H
1512   0E4A CD 0E 04            CALL L0022
1513   0E4D C3 24 0A            JP L0105
1514   0E50 CD 82 08            CALL L0185
1515   0E53 21 00 00            LD HL,0000H
1516   0E56 22 0B 2A            LD (2A0BH),HL
1517   0E59 C3 A4 0B            JP L0094
1518   0E5C ED 5B 55 2A         LD DE,(2A55H)
1519   0E60 CD 8E 8E            CALL L0186
1520   0E63 ED 53 92 31         LD (3192H),DE
1521   0E67 ED 5B 5B 2A         LD DE,(2A5BH)
1522   0E6B CD 9B 8E            CALL L0187
1523   0E6E ED 53 96 31         LD (3196H),DE
1524   0E72 C3 24 0A            JP L0105
1525   0E75 ED 5B 55 2A         LD DE,(2A55H)
1526   0E79 CD 8E 8E            CALL L0186
1527   0E7C ED 53 94 31         LD (3194H),DE
1528   0E80 ED 5B 5B 2A         LD DE,(2A5BH)
1529   0E84 CD 9B 8E            CALL L0187
1530   0E87 ED 53 98 31         LD (3198H),DE
1531   0E8B C3 24 0A            JP L0105
1532   0E8E 21 40 00            LD HL,0040H
1533   0E91 01 00 00            LD BC,0000H
1534   0E94 CD B2 15            CALL L0057
1535   0E97 DA 9C 0B            JP C,L0058
1536   0E9A C9                  RET
1537   0E9B 21 10 00            LD HL,0010H
1538   0E9E 01 00 00            LD BC,0000H
1539   0EA1 CD B2 15            CALL L0057
1540   0EA4 DA A0 0B            JP C,L0059
1541   0EA7 C9                  RET
1542   0EA8 CD F1 8A            CALL L0141
1543   0EAB ED 5B 55 2A         LD DE,(2A55H)
1544   0EAF CD 9E 17            CALL L0005
1545   0EB2 21 58 02            LD HL,0258H
1546   0EB5 01 C8 00            LD BC,00C8H
1547   0EB8 CD B2 15            CALL L0057
1548   0EBB DA 9C 0B            JP C,L0058
1549   0EBE 2A 55 2A            LD HL,(2A55H)
1550   0EC1 22 A3 2D            LD (2DA3H),HL
1551   0EC4 3A 03 24            LD A,(2403H)
1552   0EC7 32 75 2D            LD (2D75H),A
1553   0ECA AF                  XOR A
1554   0ECB 32 C3 2D            LD (2DC3H),A
1555   0ECE C3 24 0A            JP L0105
1556   0ED1 CD F1 8A            CALL L0141
1557   0ED4 ED 5B 55 2A         LD DE,(2A55H)
1558   0ED8 CD 9E 17            CALL L0005
1559   0EDB 21 58 02            LD HL,0258H
1560   0EDE 01 C8 00            LD BC,00C8H
1561   0EE1 CD B2 15            CALL L0057
1562   0EE4 DA 9C 0B            JP C,L0058
1563   0EE7 2A 55 2A            LD HL,(2A55H)
1564   0EEA 22 A3 2D            LD (2DA3H),HL
1565   0EED 21 C8 00            LD HL,00C8H
1566   0EF0 19                  ADD HL,DE
1567   0EF1 4D                  LD C,L
1568   0EF2 44                  LD B,H
1569   0EF3 21 58 02            LD HL,0258H
1570   0EF6 19                  ADD HL,DE
1571   0EF7 ED 5B 5B 2A         LD DE,(2A5BH)
1572   0EFB CD B2 15            CALL L0057
1573   0EFE DA A0 0B            JP C,L0059
1574   0F01 ED 53 C4 2D         LD (2DC4H),DE
1575   0F05 3A 03 24            LD A,(2403H)
1576   0F08 32 75 2D            LD (2D75H),A
1577   0F0B 3E 01               LD A,01H
1578   0F0D 32 C3 2D            LD (2DC3H),A
1579   0F10 C3 24 0A            JP L0105
1580   0F13 CD F1 8A            CALL L0141
1581   0F16 3A 03 24            LD A,(2403H)
1582   0F19 A7                  AND A
1583   0F1A 28 03               JR Z,L0188
1584   0F1C 32 E2 2D            LD (2DE2H),A
1585   0F1F 2A 55 2A    L0188:  LD HL,(2A55H)
1586   0F22 ED 5B 5B 2A         LD DE,(2A5BH)
1587   0F26 7C                  LD A,H
1588   0F27 B5                  OR L
1589   0F28 B2                  OR D
1590   0F29 B3          L0013:  OR E
1591   0F2A 28 0F               JR Z,L0189
1592   0F2C CD 90 17            CALL L0014
1593   0F2F CD 9E 17            CALL L0005
1594   0F32 22 DC 2D            LD (2DDCH),HL
1595   0F35 ED 53 DE 2D         LD (2DDEH),DE
1596   0F39 3E 01       L0016:  LD A,01H
1597   0F3B 32 DB 2D    L0189:  LD (2DDBH),A
1598   0F3E C3 24 0A            JP L0105
1599   0F41 3E 20               LD A,20H
1600   0F43 CD 0E 04            CALL L0022
1601   0F46 2A 51 2A            LD HL,(2A51H)
1602   0F49 22 14 2D            LD (2D14H),HL
1603   0F4C 2A 57 2A            LD HL,(2A57H)
1604   0F4F 22 16 2D            LD (2D16H),HL
1605   0F52 21 00 00            LD HL,0000H
1606   0F55 22 EC 2D            LD (2DECH),HL
1607   0F58 2A E2 2D            LD HL,(2DE2H)
1608   0F5B 22 F1 2C            LD (2CF1H),HL
1609   0F5E 2A DE 2C            LD HL,(2CDEH)
1610   0F61 ED 5B 3F 2D         LD DE,(2D3FH)
1611   0F65 CD BB 17            CALL L0190
1612   0F68 CB 2A               SRA D
1613   0F6A CB 1B               RR E
1614   0F6C ED 53 E8 2D         LD (2DE8H),DE
1615   0F70 2A E2 2C            LD HL,(2CE2H)
1616   0F73 ED 5B DC 2D         LD DE,(2DDCH)
1617   0F77 CD BB 17            CALL L0190
1618   0F7A D5                  PUSH DE
1619   0F7B 2A E0 2C            LD HL,(2CE0H)
1620   0F7E ED 5B DE 2D         LD DE,(2DDEH)
1621   0F82 CD BB 17    L0148:  CALL L0190
1622   0F85 E1                  POP HL
1623   0F86 ED 52               SBC HL,DE
1624   0F88 2A E0 2D            LD HL,(2DE0H)
1625   0F8B D4 93 17            CALL NC,L0032
1626   0F8E 22 E4 2D            LD (2DE4H),HL
1627   0F91 7C                  LD A,H
1628   0F92 EE 80               XOR 80H
1629   0F94 32 9B 32            LD (329BH),A
1630   0F97 CD 4D 91            CALL L0002
1631   0F9A CB 7C               BIT 7,H
1632   0F9C 21 00 00            LD HL,0000H
1633   0F9F 20 11               JR NZ,L0191
1634   0FA1 DD 21 E2 2C         LD IX,2CE2H
1635   0FA5 ED 4B 51 2D         LD BC,(2D51H)
1636   0FA9 ED 43 A2 32         LD (32A2H),BC
1637   0FAD 22 51 2D            LD (2D51H),HL
1638   0FB0 18 0F               JR L0192
1639   0FB2 DD 21 E0 2C L0191:  LD IX,2CE0H
1640   0FB6 ED 4B 4F 2D         LD BC,(2D4FH)
1641   0FBA ED 43 A4 32         LD (32A4H),BC
1642   0FBE 22 4F 2D            LD (2D4FH),HL
1643   0FC1 ED 43 99 32 L0192:  LD (3299H),BC
1644   0FC5 DD 22 9C 32         LD (329CH),IX
1645   0FC9 DD 6E 00            LD L,(IX+00H)
1646   0FCC DD 66 01            LD H,(IX+01H)
1647   0FCF 22 A0 32            LD (32A0H),HL
1648   0FD2 3E 01               LD A,01H
1649   0FD4 32 F0 2C            LD (2CF0H),A
1650   0FD7 21 00 00            LD HL,0000H
1651   0FDA 22 78 2A            LD (2A78H),HL
1652   0FDD 2A 3F 2D            LD HL,(2D3FH)
1653   0FE0 ED 5B E6 2D         LD DE,(2DE6H)
1654   0FE4 19                  ADD HL,DE
1655   0FE5 EB                  EX DE,HL
1656   0FE6 2A DE 2C            LD HL,(2CDEH)
1657   0FE9 ED 52               SBC HL,DE
1658   0FEB 38 14               JR C,L0193
1659   0FED CD 0A 91            CALL L0194
1660   0FF0 DA 1C 90            JP C,L0195
1661   0FF3 3A E9 2D            LD A,(2DE9H)
1662   0FF6 CB 7F               BIT 7,A
1663   0FF8 28 31               JR Z,L0196
1664   0FFA CD 33 91            CALL L0197
1665   0FFD 38 2C               JR C,L0196
1666   0FFF 18 21               JR L0198
1667   1001 CD 33 91    L0193:  CALL L0197
1668   1004 38 0C               JR C,L0199
1669   1006 CD 0A 91            CALL L0194
1670   1009 38 07               JR C,L0199
1671   100B 3A E9 2D            LD A,(2DE9H)
1672   100E CB 7F               BIT 7,A
1673   1010 20 10               JR NZ,L0198
1674   1012 2A DE 2C    L0199:  LD HL,(2CDEH)
1675   1015 CB 2C               SRA H
1676   1017 CB 1D               RR L
1677   1019 22 E8 2D            LD (2DE8H),HL
1678   101C ED 4B E4 2D         LD BC,(2DE4H)
1679   1020 18 0C               JR L0200
1680   1022 ED 4B E4 2D L0198:  LD BC,(2DE4H)
1681   1026 CD AF 17            CALL L0039
1682   1029 18 03               JR L0200
1683   102B 01 00 00    L0196:  LD BC,0000H
1684   102E ED 43 F3 2C L0200:  LD (2CF3H),BC
1685   1032 3A 53 2D            LD A,(2D53H)
1686   1035 32 55 2D            LD (2D55H),A
1687   1038 CD 81 09            CALL L0049
1688   103B 2A 0B 2A            LD HL,(2A0BH)
1689   103E CD 93 17            CALL L0032
1690   1041 ED 4B E8 2D         LD BC,(2DE8H)
1691   1045 ED 5B EA 2D         LD DE,(2DEAH)
1692   1049 CD A7 19            CALL L0201
1693   104C 22 E8 2D            LD (2DE8H),HL
1694   104F ED 53 EA 2D         LD (2DEAH),DE
1695   1053 2A 51 2A            LD HL,(2A51H)
1696   1056 ED 5B 57 2A         LD DE,(2A57H)
1697   105A DD 2A 14 2D         LD IX,(2D14H)
1698   105E FD 2A 16 2D         LD IY,(2D16H)
1699   1062 CD CB 18            CALL L0004
1700   1065 E5                  PUSH HL
1701   1066 EB                  EX DE,HL
1702   1067 ED 5B D3 2D         LD DE,(2DD3H)
1703   106B CD 92 8C            CALL L0030
1704   106E EB                  EX DE,HL
1705   106F C1                  POP BC
1706   1070 CD 09 0F            CALL L0023
1707   1073 22 EE 2D            LD (2DEEH),HL
1708   1076 ED 53 F0 2D         LD (2DF0H),DE
1709   107A 44                  LD B,H
1710   107B 4D                  LD C,L
1711   107C C5                  PUSH BC
1712   107D EB                  EX DE,HL
1713   107E CD 93 17            CALL L0032
1714   1081 ED 5B 3F 2D         LD DE,(2D3FH)
1715   1085 19                  ADD HL,DE
1716   1086 11 58 02            LD DE,0258H
1717   1089 19                  ADD HL,DE
1718   108A EB                  EX DE,HL
1719   108B 2A EE 2D            LD HL,(2DEEH)
1720   108E CD 90 17            CALL L0014
1721   1091 DD 21 00 00         LD IX,0000H
1722   1095 FD 21 00 00         LD IY,0000H
1723   1099 CD CB 18            CALL L0004
1724   109C ED 53 9E 32         LD (329EH),DE
1725   10A0 C1                  POP BC
1726   10A1 2A 5D 2A            LD HL,(2A5DH)
1727   10A4 ED 5B D3 2D         LD DE,(2DD3H)
1728   10A8 CD 92 8C            CALL L0030
1729   10AB 22 EC 2D            LD (2DECH),HL
1730   10AE 50                  LD D,B
1731   10AF 59                  LD E,C
1732   10B0 CD 9E 17            CALL L0005
1733   10B3 7C                  LD A,H
1734   10B4 A8                  XOR B
1735   10B5 CB 7F               BIT 7,A
1736   10B7 28 06               JR Z,L0202
1737   10B9 ED 53 78 2A         LD (2A78H),DE
1738   10BD 18 24               JR L0203
1739   10BF CB 78       L0202:  BIT 7,B
1740   10C1 2A DE 2D            LD HL,(2DDEH)
1741   10C4 28 03               JR Z,L0204
1742   10C6 2A DC 2D            LD HL,(2DDCH)
1743   10C9 ED 52       L0204:  SBC HL,DE
1744   10CB 22 78 2A            LD (2A78H),HL
1745   10CE 30 13               JR NC,L0203
1746   10D0 AF                  XOR A
1747   10D1 32 F0 2C            LD (2CF0H),A
1748   10D4 11 00 02            LD DE,0200H
1749   10D7 CD 05 10            CALL L0205
1750   10DA 2A E4 2D            LD HL,(2DE4H)
1751   10DD CD 93 17            CALL L0032
1752   10E0 C3 8E 8F            JP L0206
1753   10E3 21 9B 32    L0203:  LD HL,329BH
1754   10E6 7E                  LD A,(HL)
1755   10E7 70                  LD (HL),B
1756   10E8 A8                  XOR B
1757   10E9 F2 F8 90            JP P,L0207
1758   10EC 3A E4 2D            LD A,(2DE4H)
1759   10EF A8                  XOR B
1760   10F0 CB 7F               BIT 7,A
1761   10F2 F2 F8 90            JP P,L0207
1762   10F5 37                  SCF
1763   10F6 18 05               JR L0208
1764   10F8 C3 DD 8F            JP L0209
1765   10FB 37                  SCF
1766   10FC 3F                  CCF
1767   10FD AF          L0208:  XOR A
1768   10FE 32 F0 2C            LD (2CF0H),A
1769   1101 3E 00               LD A,00H
1770   1103 CD 0E 04            CALL L0022
1771   1106 CD 81 09            CALL L0049
1772   1109 C9                  RET
1773   110A 2A E6 2D            LD HL,(2DE6H)
1774   110D ED 5B 99 32         LD DE,(3299H)
1775   1111 19                  ADD HL,DE
1776   1112 EB                  EX DE,HL
1777   1113 D5                  PUSH DE
1778   1114 DD 2A 9C 32         LD IX,(329CH)
1779   1118 DD 6E 00            LD L,(IX+00H)
1780   111B DD 66 01            LD H,(IX+01H)
1781   111E ED 5B A0 32         LD DE,(32A0H)
1782   1122 22 A0 32            LD (32A0H),HL
1783   1125 E5                  PUSH HL
1784   1126 ED 52               SBC HL,DE
1785   1128 29                  ADD HL,HL
1786   1129 D1                  POP DE
1787   112A 19                  ADD HL,DE
1788   112B D1                  POP DE
1789   112C 37                  SCF
1790   112D 3F                  CCF
1791   112E ED 52               SBC HL,DE
1792   1130 CB 14               RL H
1793   1132 C9                  RET
1794   1133 2A EC 2D            LD HL,(2DECH)
1795   1136 ED 5B 9E 32         LD DE,(329EH)
1796   113A 3A E5 2D            LD A,(2DE5H)
1797   113D CB 7F               BIT 7,A
1798   113F 20 05               JR NZ,L0210
1799   1141 19                  ADD HL,DE
1800   1142 CB 14               RL H
1801   1144 18 06               JR L0211
1802   1146 37          L0210:  SCF
1803   1147 ED 52               SBC HL,DE
1804   1149 CB 14               RL H
1805   114B 3F                  CCF
1806   114C C9          L0211:  RET
1807   114D ED 4B A2 32         LD BC,(32A2H)
1808   1151 78                  LD A,B
1809   1152 B1                  OR C
1810   1153 28 0B               JR Z,L0212
1811   1155 ED 43 51 2D         LD (2D51H),BC
1812   1159 01 00 00            LD BC,0000H
1813   115C ED 43 A2 32         LD (32A2H),BC
1814   1160 ED 4B A4 32 L0212:  LD BC,(32A4H)
1815   1164 78                  LD A,B
1816   1165 B1                  OR C
1817   1166 28 0B               JR Z,L0213
1818   1168 ED 43 4F 2D         LD (2D4FH),BC
1819   116C 01 00 00            LD BC,0000H
1820   116F ED 43 A4 32         LD (32A4H),BC
1821   1173 C9          L0213:  RET
1822   1174 ED 5B C4 2C         LD DE,(2CC4H)
1823   1178 7A                  LD A,D
1824   1179 B3                  OR E
1825   117A CA 94 0B            JP Z,L0025
1826   117D ED 4B C6 2C         LD BC,(2CC6H)
1827   1181 79                  LD A,C
1828   1182 B0                  OR B
1829   1183 28 53               JR Z,L0214
1830   1185 21 01 00            LD HL,0001H
1831   1188 CB 78               BIT 7,B
1832   118A 28 03               JR Z,L0215
1833   118C 21 FF FF            LD HL,0FFFFH
1834   118F E5          L0215:  PUSH HL
1835   1190 CB 7A               BIT 7,D
1836   1192 F5                  PUSH AF
1837   1193 CD 9E 17            CALL L0005
1838   1196 21 00 00            LD HL,0000H
1839   1199 CD AC 17            CALL L0216
1840   119C CD CC 1C            CALL L0217
1841   119F F1                  POP AF
1842   11A0 E1                  POP HL
1843   11A1 28 0D               JR Z,L0218
1844   11A3 ED 53 CC 2C         LD (2CCCH),DE
1845   11A7 ED 4B CE 2C         LD BC,(2CCEH)
1846   11AB 22 CE 2C            LD (2CCEH),HL
1847   11AE 18 0E               JR L0219
1848   11B0 CD A1 17    L0218:  CALL L0043
1849   11B3 ED 53 C8 2C         LD (2CC8H),DE
1850   11B7 ED 4B CA 2C         LD BC,(2CCAH)
1851   11BB 22 CA 2C            LD (2CCAH),HL
1852   11BE 11 00 00    L0219:  LD DE,0000H
1853   11C1 ED 53 C4 2C         LD (2CC4H),DE
1854   11C5 ED 53 C6 2C         LD (2CC6H),DE
1855   11C9 78                  LD A,B
1856   11CA B1                  OR C
1857   11CB 28 0B               JR Z,L0214
1858   11CD ED 53 CA 2C         LD (2CCAH),DE
1859   11D1 ED 53 CE 2C         LD (2CCEH),DE
1860   11D5 C3 B0 0B            JP L0220
1861   11D8 C3 24 0A    L0214:  JP L0105
1862   11DB 21 00 00            LD HL,0000H
1863   11DE 22 CA 2C            LD (2CCAH),HL
1864   11E1 22 CE 2C            LD (2CCEH),HL
1865   11E4 C3 24 0A            JP L0105
1866   11E7 21 5C 30            LD HL,305CH
1867   11EA DD E5               PUSH IX
1868   11EC F5                  PUSH AF
1869   11ED 3E 00               LD A,00H
1870   11EF 18 05               JR L0221
1871   11F1 DD E5               PUSH IX
1872   11F3 F5                  PUSH AF
1873   11F4 3E 01               LD A,01H
1874   11F6 D5          L0221:  PUSH DE
1875   11F7 ED 5B 05 2F         LD DE,(2F05H)
1876   11FB CB 53               BIT 2,E
1877   11FD C2 94 0B            JP NZ,L0025
1878   1200 DD 21 1F 2F         LD IX,2F1FH
1879   1204 DD 19               ADD IX,DE
1880   1206 DD 19               ADD IX,DE
1881   1208 DD 74 19            LD (IX+19H),H
1882   120B DD 75 18            LD (IX+18H),L
1883   120E D1                  POP DE
1884   120F DD 72 11            LD (IX+11H),D
1885   1212 DD 73 10            LD (IX+10H),E
1886   1215 DD 70 09            LD (IX+09H),B
1887   1218 DD 71 08            LD (IX+08H),C
1888   121B DD 77 00            LD (IX+00H),A
1889   121E F1                  POP AF
1890   121F DD 77 01            LD (IX+01H),A
1891   1222 F3                  DI
1892   1223 3A 07 2F            LD A,(2F07H)
1893   1226 ED 5B 05 2F         LD DE,(2F05H)
1894   122A BB                  CP E
1895   122B 13                  INC DE
1896   122C ED 53 05 2F         LD (2F05H),DE
1897   1230 FB                  EI
1898   1231 CC 37 92            CALL Z,L0222
1899   1234 DD E1               POP IX
1900   1236 C9                  RET
1901   1237 CD 45 92            CALL L0223
1902   123A 20 05               JR NZ,L0224
1903   123C CD FF 92            CALL L0225
1904   123F 18 03               JR L0226
1905   1241 CD 9C 92    L0224:  CALL L0227
1906   1244 C9          L0226:  RET
1907   1245 DD E5               PUSH IX
1908   1247 DD 21 1F 2F         LD IX,2F1FH
1909   124B ED 5B 07 2F         LD DE,(2F07H)
1910   124F DD 19               ADD IX,DE
1911   1251 DD 19               ADD IX,DE
1912   1253 DD 6E 18            LD L,(IX+18H)
1913   1256 DD 66 19            LD H,(IX+19H)
1914   1259 DD 5E 10            LD E,(IX+10H)
1915   125C DD 56 11            LD D,(IX+11H)
1916   125F DD 4E 08            LD C,(IX+08H)
1917   1262 DD 46 09            LD B,(IX+09H)
1918   1265 DD 7E 00            LD A,(IX+00H)
1919   1268 FE 01               CP 01H
1920   126A DD 7E 01            LD A,(IX+01H)
1921   126D DD E1               POP IX
1922   126F C9                  RET
1923   1270 3A 05 2F            LD A,(2F05H)
1924   1273 47                  LD B,A
1925   1274 3A 07 2F            LD A,(2F07H)
1926   1277 B8                  CP B
1927   1278 28 10               JR Z,L0228
1928   127A 3E 07               LD A,07H
1929   127C CD 0E 04            CALL L0022
1930   127F 3E 00               LD A,00H
1931   1281 32 00 24            LD (2400H),A
1932   1284 CD 45 92            CALL L0223
1933   1287 32 18 2F            LD (2F18H),A
1934   128A 3E 00       L0228:  LD A,00H
1935   128C 32 05 2F            LD (2F05H),A
1936   128F 32 07 2F            LD (2F07H),A
1937   1292 32 03 2F            LD (2F03H),A
1938   1295 32 A8 32            LD (32A8H),A
1939   1298 32 FF 2E            LD (2EFFH),A
1940   129B C9                  RET
1941   129C DD E5               PUSH IX
1942   129E F5                  PUSH AF
1943   129F 3E 3B               LD A,3BH
1944   12A1 32 53 2F            LD (2F53H),A
1945   12A4 3E 00               LD A,00H
1946   12A6 32 F9 2E            LD (2EF9H),A
1947   12A9 22 01 2F            LD (2F01H),HL
1948   12AC DB FA               IN A,(0FAH)
1949   12AE 79                  LD A,C
1950   12AF CD AB 93            CALL L0229
1951   12B2 CD 93 93            CALL L0230
1952   12B5 DD 21 54 2F         LD IX,2F54H
1953   12B9 CD F4 92            CALL L0231
1954   12BC 03                  INC BC
1955   12BD ED 43 A8 32         LD (32A8H),BC
1956   12C1 7A                  LD A,D
1957   12C2 CD AB 93            CALL L0229
1958   12C5 CD 93 93            CALL L0230
1959   12C8 CD F4 92            CALL L0231
1960   12CB 7B                  LD A,E
1961   12CC CD AB 93            CALL L0229
1962   12CF CD 93 93            CALL L0230
1963   12D2 CD F4 92            CALL L0231
1964   12D5 F1                  POP AF
1965   12D6 CD AB 93            CALL L0229
1966   12D9 CD 93 93            CALL L0230
1967   12DC CD F4 92            CALL L0231
1968   12DF 01 09 00            LD BC,0009H
1969   12E2 ED 43 FF 2E         LD (2EFFH),BC
1970   12E6 11 53 2F            LD DE,2F53H
1971   12E9 ED 53 FD 2E         LD (2EFDH),DE
1972   12ED 3E 0D               LD A,0DH
1973   12EF D3 FA               OUT (0FAH),A
1974   12F1 DD E1               POP IX
1975   12F3 C9                  RET
1976   12F4 DD 74 00            LD (IX+00H),H
1977   12F7 DD 23               INC IX
1978   12F9 DD 75 00            LD (IX+00H),L
1979   12FC DD 23               INC IX
1980   12FE C9                  RET
1981   12FF DD E5               PUSH IX
1982   1301 FD E5               PUSH IY
1983   1303 E5                  PUSH HL
1984   1304 FD E1               POP IY
1985   1306 F5                  PUSH AF
1986   1307 3E 00               LD A,00H
1987   1309 32 F9 2E            LD (2EF9H),A
1988   130C DD 21 5C 2F         LD IX,2F5CH
1989   1310 DD 22 FD 2E         LD (2EFDH),IX
1990   1314 3E 3A               LD A,3AH
1991   1316 DD 77 00            LD (IX+00H),A
1992   1319 DD 23               INC IX
1993   131B 79                  LD A,C
1994   131C 87                  ADD A,A
1995   131D C6 0C               ADD A,0CH
1996   131F 32 FF 2E            LD (2EFFH),A
1997   1322 79                  LD A,C
1998   1323 CD AB 93            CALL L0229
1999   1326 CD 93 93            CALL L0230
2000   1329 DD 74 00            LD (IX+00H),H
2001   132C DD 75 01            LD (IX+01H),L
2002   132F 7A                  LD A,D
2003   1330 CD AB 93            CALL L0229
2004   1333 CD 93 93            CALL L0230
2005   1336 DD 74 02            LD (IX+02H),H
2006   1339 DD 75 03            LD (IX+03H),L
2007   133C 7B                  LD A,E
2008   133D CD AB 93            CALL L0229
2009   1340 CD 93 93            CALL L0230
2010   1343 DD 74 04            LD (IX+04H),H
2011   1346 DD 75 05            LD (IX+05H),L
2012   1349 F1                  POP AF
2013   134A CD AB 93            CALL L0229
2014   134D CD 93 93            CALL L0230
2015   1350 DD 74 06            LD (IX+06H),H
2016   1353 DD 75 07            LD (IX+07H),L
2017   1356 41                  LD B,C
2018   1357 FD 7E 00    L0232:  LD A,(IY+00H)
2019   135A FD 23               INC IY
2020   135C CD AB 93            CALL L0229
2021   135F CD 93 93            CALL L0230
2022   1362 DD 74 08            LD (IX+08H),H
2023   1365 DD 75 09            LD (IX+09H),L
2024   1368 DD 23               INC IX
2025   136A DD 23               INC IX
2026   136C 10 E9               DJNZ L0232
2027   136E 3A F9 2E            LD A,(2EF9H)
2028   1371 CD 93 93            CALL L0230
2029   1374 DD 74 08            LD (IX+08H),H
2030   1377 DD 75 09            LD (IX+09H),L
2031   137A DD 36 0A 0D         LD (IX+0AH),0DH
2032   137E 11 5C 30            LD DE,305CH
2033   1381 ED 53 01 2F         LD (2F01H),DE
2034   1385 3E 01               LD A,01H
2035   1387 32 A8 32            LD (32A8H),A
2036   138A 3E 0D               LD A,0DH
2037   138C D3 FA               OUT (0FAH),A
2038   138E FD E1               POP IY
2039   1390 DD E1               POP IX
2040   1392 C9                  RET
2041   1393 CD 96 93            CALL L0233
2042   1396 F5                  PUSH AF
2043   1397 E6 0F               AND 0FH
2044   1399 6C                  LD L,H
2045   139A FE 0A               CP 0AH
2046   139C 30 04               JR NC,L0234
2047   139E F6 30               OR 30H
2048   13A0 18 02               JR L0235
2049   13A2 C6 37       L0234:  ADD A,37H
2050   13A4 67          L0235:  LD H,A
2051   13A5 F1                  POP AF
2052   13A6 0F                  RRCA
2053   13A7 0F                  RRCA
2054   13A8 0F                  RRCA
2055   13A9 0F                  RRCA
2056   13AA C9                  RET
2057   13AB F5                  PUSH AF
2058   13AC D5                  PUSH DE
2059   13AD 57                  LD D,A
2060   13AE 3A F9 2E            LD A,(2EF9H)
2061   13B1 92                  SUB D
2062   13B2 32 F9 2E            LD (2EF9H),A
2063   13B5 D1                  POP DE
2064   13B6 F1                  POP AF
2065   13B7 C9                  RET
2066   13B8 C5                  PUSH BC
2067   13B9 06 00               LD B,00H
2068   13BB 7D                  LD A,L
2069   13BC CD C7 93            CALL L0236
2070   13BF 38 23               JR C,L0237
2071   13C1 7C                  LD A,H
2072   13C2 CD C7 93            CALL L0236
2073   13C5 C1                  POP BC
2074   13C6 C9                  RET
2075   13C7 FE 30               CP 30H
2076   13C9 38 19               JR C,L0237
2077   13CB FE 3A               CP 3AH
2078   13CD 38 0B               JR C,L0238
2079   13CF FE 41               CP 41H
2080   13D1 38 11               JR C,L0237
2081   13D3 FE 47               CP 47H
2082   13D5 3F                  CCF
2083   13D6 38 0C               JR C,L0237
2084   13D8 C6 09               ADD A,09H
2085   13DA E6 0F       L0238:  AND 0FH
2086   13DC B0                  OR B
2087   13DD 07                  RLCA
2088   13DE 07                  RLCA
2089   13DF 07                  RLCA
2090   13E0 07                  RLCA
2091   13E1 47                  LD B,A
2092   13E2 37                  SCF
2093   13E3 3F                  CCF
2094   13E4 C9          L0237:  RET
2095   13E5 F5                  PUSH AF
2096   13E6 3E 30               LD A,30H
2097   13E8 D3 FB               OUT (0FBH),A
2098   13EA F1                  POP AF
2099   13EB FB                  EI
2100   13EC ED 4D               RETI
2101   13EE F5                  PUSH AF
2102   13EF E5                  PUSH HL
2103   13F0 3A FF 2E            LD A,(2EFFH)
2104   13F3 FE 00               CP 00H
2105   13F5 28 13               JR Z,L0239
2106   13F7 3D                  DEC A
2107   13F8 32 FF 2E            LD (2EFFH),A
2108   13FB 2A FD 2E            LD HL,(2EFDH)
2109   13FE 7E                  LD A,(HL)
2110   13FF 23                  INC HL
2111   1400 22 FD 2E            LD (2EFDH),HL
2112   1403 D3 FA               OUT (0FAH),A
2113   1405 E1                  POP HL
2114   1406 F1                  POP AF
2115   1407 FB                  EI
2116   1408 ED 4D               RETI
2117   140A 3E 28       L0239:  LD A,28H
2118   140C D3 FB               OUT (0FBH),A
2119   140E 3A A8 32            LD A,(32A8H)
2120   1411 32 03 2F            LD (2F03H),A
2121   1414 E1                  POP HL
2122   1415 F1                  POP AF
2123   1416 FB                  EI
2124   1417 ED 4D               RETI
2125   1419 F5                  PUSH AF
2126   141A E5                  PUSH HL
2127   141B 21 03 2F            LD HL,2F03H
2128   141E 3E 01               LD A,01H
2129   1420 BE                  CP (HL)
2130   1421 DB FA               IN A,(0FAH)
2131   1423 38 36               JR C,L0240
2132   1425 20 3D               JR NZ,L0241
2133   1427 C5                  PUSH BC
2134   1428 D5                  PUSH DE
2135   1429 F5                  PUSH AF
2136   142A 35                  DEC (HL)
2137   142B CD 45 92            CALL L0223
2138   142E 28 13               JR Z,L0242
2139   1430 3A F9 2E            LD A,(2EF9H)
2140   1433 96          L0243:  SUB (HL)
2141   1434 23                  INC HL
2142   1435 0D                  DEC C
2143   1436 20 FB               JR NZ,L0243
2144   1438 05                  DEC B
2145   1439 F2 33 94            JP P,L0244
2146   143C 47                  LD B,A
2147   143D F1                  POP AF
2148   143E B8                  CP B
2149   143F 20 13               JR NZ,L0245
2150   1441 18 07               JR L0246
2151   1443 21 F9 2E    L0242:  LD HL,2EF9H
2152   1446 F1                  POP AF
2153   1447 BE                  CP (HL)
2154   1448 20 0A               JR NZ,L0245
2155   144A 21 07 2F    L0246:  LD HL,2F07H
2156   144D 34                  INC (HL)
2157   144E 3A 05 2F            LD A,(2F05H)
2158   1451 BE                  CP (HL)
2159   1452 28 03               JR Z,L0247
2160   1454 CD 37 92    L0245:  CALL L0222
2161   1457 D1          L0247:  POP DE
2162   1458 C1                  POP BC
2163   1459 18 09               JR L0241
2164   145B 35          L0240:  DEC (HL)
2165   145C 2A 01 2F            LD HL,(2F01H)
2166   145F 77                  LD (HL),A
2167   1460 23                  INC HL
2168   1461 22 01 2F            LD (2F01H),HL
2169   1464 E1          L0241:  POP HL
2170   1465 F1                  POP AF
2171   1466 FB                  EI
2172   1467 ED 4D               RETI
2173   1469 FF                  RST 38H
2174   146A FF                  RST 38H
2175   146B FF                  RST 38H
2176   146C FF                  RST 38H
2177   146D FF                  RST 38H
2178   146E FF                  RST 38H
2179   146F FF                  RST 38H
2180   1470 FF                  RST 38H
2181   1471 FF                  RST 38H
2182   1472 FF                  RST 38H
2183   1473 FF                  RST 38H
2184   1474 FF                  RST 38H
2185   1475 FF                  RST 38H
2186   1476 FF                  RST 38H
2187   1477 FF                  RST 38H
2188   1478 FF                  RST 38H
2189   1479 FF                  RST 38H
2190   147A FF                  RST 38H
2191   147B FF                  RST 38H
2192   147C FF                  RST 38H
2193   147D FF                  RST 38H
2194   147E FF                  RST 38H
2195   147F FF                  RST 38H
2196   1480 FF                  RST 38H
2197   1481 FF                  RST 38H
2198   1482 FF                  RST 38H
2199   1483 FF                  RST 38H
2200   1484 FF                  RST 38H
2201   1485 FF                  RST 38H
2202   1486 FF                  RST 38H
2203   1487 FF                  RST 38H
2204   1488 FF                  RST 38H
2205   1489 FF                  RST 38H
2206   148A FF                  RST 38H
2207   148B FF                  RST 38H
2208   148C FF                  RST 38H
2209   148D FF                  RST 38H
2210   148E FF                  RST 38H
2211   148F FF                  RST 38H
2212   1490 FF                  RST 38H
2213   1491 FF                  RST 38H
2214   1492 FF                  RST 38H
2215   1493 FF                  RST 38H
2216   1494 FF                  RST 38H
2217   1495 FF                  RST 38H
2218   1496 FF                  RST 38H
2219   1497 FF                  RST 38H
2220   1498 FF                  RST 38H
2221   1499 FF                  RST 38H
2222   149A FF                  RST 38H
2223   149B FF                  RST 38H
2224   149C FF                  RST 38H
2225   149D FF                  RST 38H
2226   149E FF                  RST 38H
2227   149F FF                  RST 38H
2228   14A0 FF                  RST 38H
2229   14A1 FF                  RST 38H
2230   14A2 FF                  RST 38H
2231   14A3 FF                  RST 38H
2232   14A4 FF                  RST 38H
2233   14A5 FF                  RST 38H
2234   14A6 FF                  RST 38H
2235   14A7 FF                  RST 38H
2236   14A8 FF                  RST 38H
2237   14A9 FF                  RST 38H
2238   14AA FF                  RST 38H
2239   14AB FF                  RST 38H
2240   14AC FF                  RST 38H
2241   14AD FF                  RST 38H
2242   14AE FF                  RST 38H
2243   14AF FF                  RST 38H
2244   14B0 FF                  RST 38H
2245   14B1 FF                  RST 38H
2246   14B2 FF                  RST 38H
2247   14B3 FF                  RST 38H
2248   14B4 FF                  RST 38H
2249   14B5 FF                  RST 38H
2250   14B6 FF                  RST 38H
2251   14B7 FF                  RST 38H
2252   14B8 FF                  RST 38H
2253   14B9 FF                  RST 38H
2254   14BA FF                  RST 38H
2255   14BB FF                  RST 38H
2256   14BC FF                  RST 38H
2257   14BD FF                  RST 38H
2258   14BE FF                  RST 38H
2259   14BF FF                  RST 38H
2260   14C0 FF                  RST 38H
2261   14C1 FF                  RST 38H
2262   14C2 FF                  RST 38H
2263   14C3 FF                  RST 38H
2264   14C4 FF                  RST 38H
2265   14C5 FF                  RST 38H
2266   14C6 FF                  RST 38H
2267   14C7 FF                  RST 38H
2268   14C8 FF                  RST 38H
2269   14C9 FF                  RST 38H
2270   14CA FF                  RST 38H
2271   14CB FF                  RST 38H
2272   14CC FF                  RST 38H
2273   14CD FF                  RST 38H
2274   14CE FF                  RST 38H
2275   14CF FF                  RST 38H
2276   14D0 FF                  RST 38H
2277   14D1 FF                  RST 38H
2278   14D2 FF                  RST 38H
2279   14D3 FF                  RST 38H
2280   14D4 FF                  RST 38H
2281   14D5 FF                  RST 38H
2282   14D6 FF                  RST 38H
2283   14D7 FF                  RST 38H
2284   14D8 FF                  RST 38H
2285   14D9 FF                  RST 38H
2286   14DA FF                  RST 38H
2287   14DB FF                  RST 38H
2288   14DC FF                  RST 38H
2289   14DD FF                  RST 38H
2290   14DE FF                  RST 38H
2291   14DF FF                  RST 38H
2292   14E0 FF                  RST 38H
2293   14E1 FF                  RST 38H
2294   14E2 FF                  RST 38H
2295   14E3 FF                  RST 38H
2296   14E4 FF                  RST 38H
2297   14E5 FF                  RST 38H
2298   14E6 FF                  RST 38H
2299   14E7 FF                  RST 38H
2300   14E8 FF                  RST 38H
2301   14E9 FF                  RST 38H
2302   14EA FF                  RST 38H
2303   14EB FF                  RST 38H
2304   14EC FF                  RST 38H
2305   14ED FF                  RST 38H
2306   14EE FF                  RST 38H
2307   14EF FF                  RST 38H
2308   14F0 FF                  RST 38H
2309   14F1 FF                  RST 38H
2310   14F2 FF                  RST 38H
2311   14F3 FF                  RST 38H
2312   14F4 FF                  RST 38H
2313   14F5 FF                  RST 38H
2314   14F6 FF                  RST 38H
2315   14F7 FF                  RST 38H
2316   14F8 FF                  RST 38H
2317   14F9 FF                  RST 38H
2318   14FA FF                  RST 38H
2319   14FB FF                  RST 38H
2320   14FC FF                  RST 38H
2321   14FD FF                  RST 38H
2322   14FE FF                  RST 38H
2323   14FF FF                  RST 38H
2324   1500 FF                  RST 38H
2325   1501 FF                  RST 38H
2326   1502 FF                  RST 38H
2327   1503 FF                  RST 38H
2328   1504 FF                  RST 38H
2329   1505 FF                  RST 38H
2330   1506 FF                  RST 38H
2331   1507 FF                  RST 38H
2332   1508 FF                  RST 38H
2333   1509 FF                  RST 38H
2334   150A FF                  RST 38H
2335   150B FF                  RST 38H
2336   150C FF                  RST 38H
2337   150D FF                  RST 38H
2338   150E FF                  RST 38H
2339   150F FF                  RST 38H
2340   1510 FF                  RST 38H
2341   1511 FF                  RST 38H
2342   1512 FF                  RST 38H
2343   1513 FF                  RST 38H
2344   1514 FF                  RST 38H
2345   1515 FF                  RST 38H
2346   1516 FF                  RST 38H
2347   1517 FF                  RST 38H
2348   1518 FF                  RST 38H
2349   1519 FF                  RST 38H
2350   151A FF                  RST 38H
2351   151B FF                  RST 38H
2352   151C FF                  RST 38H
2353   151D FF                  RST 38H
2354   151E FF                  RST 38H
2355   151F FF                  RST 38H
2356   1520 FF                  RST 38H
2357   1521 FF                  RST 38H
2358   1522 FF                  RST 38H
2359   1523 FF                  RST 38H
2360   1524 FF                  RST 38H
2361   1525 FF                  RST 38H
2362   1526 FF                  RST 38H
2363   1527 FF                  RST 38H
2364   1528 FF                  RST 38H
2365   1529 FF                  RST 38H
2366   152A FF                  RST 38H
2367   152B FF                  RST 38H
2368   152C FF                  RST 38H
2369   152D FF                  RST 38H
2370   152E FF                  RST 38H
2371   152F FF                  RST 38H
2372   1530 FF                  RST 38H
2373   1531 FF                  RST 38H
2374   1532 FF                  RST 38H
2375   1533 FF                  RST 38H
2376   1534 FF                  RST 38H
2377   1535 FF                  RST 38H
2378   1536 FF                  RST 38H
2379   1537 FF                  RST 38H
2380   1538 FF                  RST 38H
2381   1539 FF                  RST 38H
2382   153A FF                  RST 38H
2383   153B FF                  RST 38H
2384   153C FF                  RST 38H
2385   153D FF                  RST 38H
2386   153E FF                  RST 38H
2387   153F FF                  RST 38H
2388   1540 FF                  RST 38H
2389   1541 FF                  RST 38H
2390   1542 FF                  RST 38H
2391   1543 FF                  RST 38H
2392   1544 FF                  RST 38H
2393   1545 FF                  RST 38H
2394   1546 FF                  RST 38H
2395   1547 FF                  RST 38H
2396   1548 FF                  RST 38H
2397   1549 FF                  RST 38H
2398   154A FF                  RST 38H
2399   154B FF                  RST 38H
2400   154C FF                  RST 38H
2401   154D FF                  RST 38H
2402   154E FF                  RST 38H
2403   154F FF                  RST 38H
2404   1550 FF                  RST 38H
2405   1551 FF                  RST 38H
2406   1552 FF                  RST 38H
2407   1553 FF                  RST 38H
2408   1554 FF                  RST 38H
2409   1555 FF                  RST 38H
2410   1556 FF                  RST 38H
2411   1557 FF                  RST 38H
2412   1558 FF                  RST 38H
2413   1559 FF                  RST 38H
2414   155A FF                  RST 38H
2415   155B FF                  RST 38H
2416   155C FF                  RST 38H
2417   155D FF                  RST 38H
2418   155E FF                  RST 38H
2419   155F FF                  RST 38H
2420   1560 FF                  RST 38H
2421   1561 FF                  RST 38H
2422   1562 FF                  RST 38H
2423   1563 FF                  RST 38H
2424   1564 FF                  RST 38H
2425   1565 FF                  RST 38H
2426   1566 FF                  RST 38H
2427   1567 FF                  RST 38H
2428   1568 FF                  RST 38H
2429   1569 FF                  RST 38H
2430   156A FF                  RST 38H
2431   156B FF                  RST 38H
2432   156C FF                  RST 38H
2433   156D FF                  RST 38H
2434   156E FF                  RST 38H
2435   156F FF                  RST 38H
2436   1570 FF                  RST 38H
2437   1571 FF                  RST 38H
2438   1572 FF                  RST 38H
2439   1573 FF                  RST 38H
2440   1574 FF                  RST 38H
2441   1575 FF                  RST 38H
2442   1576 FF                  RST 38H
2443   1577 FF                  RST 38H
2444   1578 FF                  RST 38H
2445   1579 FF                  RST 38H
2446   157A FF                  RST 38H
2447   157B FF                  RST 38H
2448   157C FF                  RST 38H
2449   157D FF                  RST 38H
2450   157E FF                  RST 38H
2451   157F FF                  RST 38H
2452   1580 FF                  RST 38H
2453   1581 FF                  RST 38H
2454   1582 FF                  RST 38H
2455   1583 FF                  RST 38H
2456   1584 FF                  RST 38H
2457   1585 FF                  RST 38H
2458   1586 FF                  RST 38H
2459   1587 FF                  RST 38H
2460   1588 FF                  RST 38H
2461   1589 FF                  RST 38H
2462   158A FF                  RST 38H
2463   158B FF                  RST 38H
2464   158C FF                  RST 38H
2465   158D FF                  RST 38H
2466   158E FF                  RST 38H
2467   158F FF                  RST 38H
2468   1590 FF                  RST 38H
2469   1591 FF                  RST 38H
2470   1592 FF                  RST 38H
2471   1593 FF                  RST 38H
2472   1594 FF                  RST 38H
2473   1595 FF                  RST 38H
2474   1596 FF                  RST 38H
2475   1597 FF                  RST 38H
2476   1598 FF                  RST 38H
2477   1599 FF                  RST 38H
2478   159A FF                  RST 38H
2479   159B FF                  RST 38H
2480   159C FF                  RST 38H
2481   159D FF                  RST 38H
2482   159E FF                  RST 38H
2483   159F FF                  RST 38H
2484   15A0 FF                  RST 38H
2485   15A1 FF                  RST 38H
2486   15A2 FF                  RST 38H
2487   15A3 FF                  RST 38H
2488   15A4 FF                  RST 38H
2489   15A5 FF                  RST 38H
2490   15A6 FF                  RST 38H
2491   15A7 FF                  RST 38H
2492   15A8 FF                  RST 38H
2493   15A9 FF                  RST 38H
2494   15AA FF                  RST 38H
2495   15AB FF                  RST 38H
2496   15AC FF                  RST 38H
2497   15AD FF                  RST 38H
2498   15AE FF                  RST 38H
2499   15AF FF                  RST 38H
2500   15B0 FF                  RST 38H
2501   15B1 FF                  RST 38H
2502   15B2 FF          L0057:  RST 38H
2503   15B3 FF                  RST 38H
2504   15B4 FF                  RST 38H
2505   15B5 FF                  RST 38H
2506   15B6 FF                  RST 38H
2507   15B7 FF                  RST 38H
2508   15B8 FF                  RST 38H
2509   15B9 FF                  RST 38H
2510   15BA FF                  RST 38H
2511   15BB FF                  RST 38H
2512   15BC FF                  RST 38H
2513   15BD FF                  RST 38H
2514   15BE FF                  RST 38H
2515   15BF FF                  RST 38H
2516   15C0 FF                  RST 38H
2517   15C1 FF                  RST 38H
2518   15C2 FF                  RST 38H
2519   15C3 FF                  RST 38H
2520   15C4 FF                  RST 38H
2521   15C5 FF                  RST 38H
2522   15C6 FF                  RST 38H
2523   15C7 FF                  RST 38H
2524   15C8 FF                  RST 38H
2525   15C9 FF                  RST 38H
2526   15CA FF                  RST 38H
2527   15CB FF                  RST 38H
2528   15CC FF                  RST 38H
2529   15CD FF                  RST 38H
2530   15CE FF                  RST 38H
2531   15CF FF                  RST 38H
2532   15D0 FF                  RST 38H
2533   15D1 FF                  RST 38H
2534   15D2 FF                  RST 38H
2535   15D3 FF                  RST 38H
2536   15D4 FF                  RST 38H
2537   15D5 FF                  RST 38H
2538   15D6 FF                  RST 38H
2539   15D7 FF                  RST 38H
2540   15D8 FF                  RST 38H
2541   15D9 FF                  RST 38H
2542   15DA FF                  RST 38H
2543   15DB FF                  RST 38H
2544   15DC FF                  RST 38H
2545   15DD FF                  RST 38H
2546   15DE FF                  RST 38H
2547   15DF FF                  RST 38H
2548   15E0 FF                  RST 38H
2549   15E1 FF                  RST 38H
2550   15E2 FF                  RST 38H
2551   15E3 FF                  RST 38H
2552   15E4 FF                  RST 38H
2553   15E5 FF                  RST 38H
2554   15E6 FF                  RST 38H
2555   15E7 FF                  RST 38H
2556   15E8 FF                  RST 38H
2557   15E9 FF                  RST 38H
2558   15EA FF                  RST 38H
2559   15EB FF                  RST 38H
2560   15EC FF                  RST 38H
2561   15ED FF                  RST 38H
2562   15EE FF                  RST 38H
2563   15EF FF                  RST 38H
2564   15F0 FF                  RST 38H
2565   15F1 FF                  RST 38H
2566   15F2 FF                  RST 38H
2567   15F3 FF                  RST 38H
2568   15F4 FF                  RST 38H
2569   15F5 FF                  RST 38H
2570   15F6 FF                  RST 38H
2571   15F7 FF                  RST 38H
2572   15F8 FF                  RST 38H
2573   15F9 FF                  RST 38H
2574   15FA FF                  RST 38H
2575   15FB FF                  RST 38H
2576   15FC FF                  RST 38H
2577   15FD FF                  RST 38H
2578   15FE FF                  RST 38H
2579   15FF FF                  RST 38H
2580   1600 FF                  RST 38H
2581   1601 FF                  RST 38H
2582   1602 FF                  RST 38H
2583   1603 FF                  RST 38H
2584   1604 FF                  RST 38H
2585   1605 FF                  RST 38H
2586   1606 FF                  RST 38H
2587   1607 FF                  RST 38H
2588   1608 FF                  RST 38H
2589   1609 FF                  RST 38H
2590   160A FF                  RST 38H
2591   160B FF                  RST 38H
2592   160C FF                  RST 38H
2593   160D FF                  RST 38H
2594   160E FF                  RST 38H
2595   160F FF                  RST 38H
2596   1610 FF                  RST 38H
2597   1611 FF                  RST 38H
2598   1612 FF                  RST 38H
2599   1613 FF                  RST 38H
2600   1614 FF                  RST 38H
2601   1615 FF                  RST 38H
2602   1616 FF                  RST 38H
2603   1617 FF                  RST 38H
2604   1618 FF                  RST 38H
2605   1619 FF                  RST 38H
2606   161A FF                  RST 38H
2607   161B FF                  RST 38H
2608   161C FF                  RST 38H
2609   161D FF                  RST 38H
2610   161E FF                  RST 38H
2611   161F FF                  RST 38H
2612   1620 FF                  RST 38H
2613   1621 FF                  RST 38H
2614   1622 FF                  RST 38H
2615   1623 FF                  RST 38H
2616   1624 FF                  RST 38H
2617   1625 FF                  RST 38H
2618   1626 FF                  RST 38H
2619   1627 FF                  RST 38H
2620   1628 FF                  RST 38H
2621   1629 FF                  RST 38H
2622   162A FF                  RST 38H
2623   162B FF                  RST 38H
2624   162C FF                  RST 38H
2625   162D FF                  RST 38H
2626   162E FF                  RST 38H
2627   162F FF                  RST 38H
2628   1630 FF                  RST 38H
2629   1631 FF                  RST 38H
2630   1632 FF                  RST 38H
2631   1633 FF                  RST 38H
2632   1634 FF                  RST 38H
2633   1635 FF                  RST 38H
2634   1636 FF                  RST 38H
2635   1637 FF                  RST 38H
2636   1638 FF                  RST 38H
2637   1639 FF                  RST 38H
2638   163A FF                  RST 38H
2639   163B FF                  RST 38H
2640   163C FF                  RST 38H
2641   163D FF                  RST 38H
2642   163E FF                  RST 38H
2643   163F FF                  RST 38H
2644   1640 FF                  RST 38H
2645   1641 FF                  RST 38H
2646   1642 FF          L0055:  RST 38H
2647   1643 FF                  RST 38H
2648   1644 FF                  RST 38H
2649   1645 FF                  RST 38H
2650   1646 FF                  RST 38H
2651   1647 FF                  RST 38H
2652   1648 FF                  RST 38H
2653   1649 FF                  RST 38H
2654   164A FF                  RST 38H
2655   164B FF                  RST 38H
2656   164C FF                  RST 38H
2657   164D FF                  RST 38H
2658   164E FF                  RST 38H
2659   164F FF                  RST 38H
2660   1650 FF                  RST 38H
2661   1651 FF                  RST 38H
2662   1652 FF                  RST 38H
2663   1653 FF                  RST 38H
2664   1654 FF                  RST 38H
2665   1655 FF                  RST 38H
2666   1656 FF                  RST 38H
2667   1657 FF                  RST 38H
2668   1658 FF                  RST 38H
2669   1659 FF                  RST 38H
2670   165A FF                  RST 38H
2671   165B FF                  RST 38H
2672   165C FF                  RST 38H
2673   165D FF                  RST 38H
2674   165E FF                  RST 38H
2675   165F FF                  RST 38H
2676   1660 FF                  RST 38H
2677   1661 FF                  RST 38H
2678   1662 FF                  RST 38H
2679   1663 FF                  RST 38H
2680   1664 FF                  RST 38H
2681   1665 FF                  RST 38H
2682   1666 FF                  RST 38H
2683   1667 FF                  RST 38H
2684   1668 FF                  RST 38H
2685   1669 FF                  RST 38H
2686   166A FF                  RST 38H
2687   166B FF                  RST 38H
2688   166C FF                  RST 38H
2689   166D FF                  RST 38H
2690   166E FF                  RST 38H
2691   166F FF                  RST 38H
2692   1670 FF                  RST 38H
2693   1671 FF                  RST 38H
2694   1672 FF                  RST 38H
2695   1673 FF                  RST 38H
2696   1674 FF                  RST 38H
2697   1675 FF                  RST 38H
2698   1676 FF                  RST 38H
2699   1677 FF                  RST 38H
2700   1678 FF                  RST 38H
2701   1679 FF                  RST 38H
2702   167A FF                  RST 38H
2703   167B FF                  RST 38H
2704   167C FF                  RST 38H
2705   167D FF                  RST 38H
2706   167E FF                  RST 38H
2707   167F FF                  RST 38H
2708   1680 FF                  RST 38H
2709   1681 FF                  RST 38H
2710   1682 FF                  RST 38H
2711   1683 FF                  RST 38H
2712   1684 FF                  RST 38H
2713   1685 FF                  RST 38H
2714   1686 FF                  RST 38H
2715   1687 FF                  RST 38H
2716   1688 FF                  RST 38H
2717   1689 FF                  RST 38H
2718   168A FF                  RST 38H
2719   168B FF                  RST 38H
2720   168C FF                  RST 38H
2721   168D FF                  RST 38H
2722   168E FF                  RST 38H
2723   168F FF                  RST 38H
2724   1690 FF                  RST 38H
2725   1691 FF                  RST 38H
2726   1692 FF                  RST 38H
2727   1693 FF                  RST 38H
2728   1694 FF                  RST 38H
2729   1695 FF                  RST 38H
2730   1696 FF                  RST 38H
2731   1697 FF                  RST 38H
2732   1698 FF                  RST 38H
2733   1699 FF                  RST 38H
2734   169A FF                  RST 38H
2735   169B FF                  RST 38H
2736   169C FF                  RST 38H
2737   169D FF                  RST 38H
2738   169E FF                  RST 38H
2739   169F FF                  RST 38H
2740   16A0 FF                  RST 38H
2741   16A1 FF                  RST 38H
2742   16A2 FF                  RST 38H
2743   16A3 FF                  RST 38H
2744   16A4 FF                  RST 38H
2745   16A5 FF                  RST 38H
2746   16A6 FF                  RST 38H
2747   16A7 FF                  RST 38H
2748   16A8 FF                  RST 38H
2749   16A9 FF                  RST 38H
2750   16AA FF                  RST 38H
2751   16AB FF                  RST 38H
2752   16AC FF                  RST 38H
2753   16AD FF                  RST 38H
2754   16AE FF                  RST 38H
2755   16AF FF                  RST 38H
2756   16B0 FF                  RST 38H
2757   16B1 FF                  RST 38H
2758   16B2 FF                  RST 38H
2759   16B3 FF                  RST 38H
2760   16B4 FF                  RST 38H
2761   16B5 FF                  RST 38H
2762   16B6 FF                  RST 38H
2763   16B7 FF                  RST 38H
2764   16B8 FF                  RST 38H
2765   16B9 FF                  RST 38H
2766   16BA FF                  RST 38H
2767   16BB FF                  RST 38H
2768   16BC FF                  RST 38H
2769   16BD FF                  RST 38H
2770   16BE FF                  RST 38H
2771   16BF FF                  RST 38H
2772   16C0 FF                  RST 38H
2773   16C1 FF                  RST 38H
2774   16C2 FF                  RST 38H
2775   16C3 FF                  RST 38H
2776   16C4 FF                  RST 38H
2777   16C5 FF                  RST 38H
2778   16C6 FF                  RST 38H
2779   16C7 FF                  RST 38H
2780   16C8 FF                  RST 38H
2781   16C9 FF                  RST 38H
2782   16CA FF                  RST 38H
2783   16CB FF                  RST 38H
2784   16CC FF                  RST 38H
2785   16CD FF                  RST 38H
2786   16CE FF                  RST 38H
2787   16CF FF                  RST 38H
2788   16D0 FF                  RST 38H
2789   16D1 FF                  RST 38H
2790   16D2 FF                  RST 38H
2791   16D3 FF                  RST 38H
2792   16D4 FF                  RST 38H
2793   16D5 FF                  RST 38H
2794   16D6 FF                  RST 38H
2795   16D7 FF                  RST 38H
2796   16D8 FF                  RST 38H
2797   16D9 FF                  RST 38H
2798   16DA FF                  RST 38H
2799   16DB FF                  RST 38H
2800   16DC FF                  RST 38H
2801   16DD FF                  RST 38H
2802   16DE FF                  RST 38H
2803   16DF FF                  RST 38H
2804   16E0 FF                  RST 38H
2805   16E1 FF                  RST 38H
2806   16E2 FF                  RST 38H
2807   16E3 FF                  RST 38H
2808   16E4 FF                  RST 38H
2809   16E5 FF                  RST 38H
2810   16E6 FF                  RST 38H
2811   16E7 FF                  RST 38H
2812   16E8 FF                  RST 38H
2813   16E9 FF                  RST 38H
2814   16EA FF                  RST 38H
2815   16EB FF                  RST 38H
2816   16EC FF                  RST 38H
2817   16ED FF                  RST 38H
2818   16EE FF                  RST 38H
2819   16EF FF                  RST 38H
2820   16F0 FF                  RST 38H
2821   16F1 FF                  RST 38H
2822   16F2 FF                  RST 38H
2823   16F3 FF                  RST 38H
2824   16F4 FF                  RST 38H
2825   16F5 FF                  RST 38H
2826   16F6 FF                  RST 38H
2827   16F7 FF                  RST 38H
2828   16F8 FF                  RST 38H
2829   16F9 FF                  RST 38H
2830   16FA FF                  RST 38H
2831   16FB FF                  RST 38H
2832   16FC FF                  RST 38H
2833   16FD FF                  RST 38H
2834   16FE FF                  RST 38H
2835   16FF FF                  RST 38H
2836   1700 FF                  RST 38H
2837   1701 FF                  RST 38H
2838   1702 FF                  RST 38H
2839   1703 FF                  RST 38H
2840   1704 FF                  RST 38H
2841   1705 FF                  RST 38H
2842   1706 FF                  RST 38H
2843   1707 FF                  RST 38H
2844   1708 FF                  RST 38H
2845   1709 FF                  RST 38H
2846   170A FF                  RST 38H
2847   170B FF                  RST 38H
2848   170C FF                  RST 38H
2849   170D FF                  RST 38H
2850   170E FF                  RST 38H
2851   170F FF                  RST 38H
2852   1710 FF                  RST 38H
2853   1711 FF                  RST 38H
2854   1712 FF                  RST 38H
2855   1713 FF                  RST 38H
2856   1714 FF                  RST 38H
2857   1715 FF                  RST 38H
2858   1716 FF                  RST 38H
2859   1717 FF                  RST 38H
2860   1718 FF                  RST 38H
2861   1719 FF                  RST 38H
2862   171A FF                  RST 38H
2863   171B FF                  RST 38H
2864   171C FF                  RST 38H
2865   171D FF                  RST 38H
2866   171E FF                  RST 38H
2867   171F FF                  RST 38H
2868   1720 FF                  RST 38H
2869   1721 FF                  RST 38H
2870   1722 FF                  RST 38H
2871   1723 FF                  RST 38H
2872   1724 FF                  RST 38H
2873   1725 FF                  RST 38H
2874   1726 FF                  RST 38H
2875   1727 FF                  RST 38H
2876   1728 FF                  RST 38H
2877   1729 FF                  RST 38H
2878   172A FF                  RST 38H
2879   172B FF                  RST 38H
2880   172C FF                  RST 38H
2881   172D FF                  RST 38H
2882   172E FF                  RST 38H
2883   172F FF                  RST 38H
2884   1730 FF                  RST 38H
2885   1731 FF                  RST 38H
2886   1732 FF                  RST 38H
2887   1733 FF                  RST 38H
2888   1734 FF                  RST 38H
2889   1735 FF                  RST 38H
2890   1736 FF                  RST 38H
2891   1737 FF                  RST 38H
2892   1738 FF                  RST 38H
2893   1739 FF                  RST 38H
2894   173A FF                  RST 38H
2895   173B FF                  RST 38H
2896   173C FF                  RST 38H
2897   173D FF                  RST 38H
2898   173E FF                  RST 38H
2899   173F FF                  RST 38H
2900   1740 FF                  RST 38H
2901   1741 FF                  RST 38H
2902   1742 FF                  RST 38H
2903   1743 FF                  RST 38H
2904   1744 FF                  RST 38H
2905   1745 FF                  RST 38H
2906   1746 FF                  RST 38H
2907   1747 FF                  RST 38H
2908   1748 FF                  RST 38H
2909   1749 FF                  RST 38H
2910   174A FF                  RST 38H
2911   174B FF                  RST 38H
2912   174C FF                  RST 38H
2913   174D FF                  RST 38H
2914   174E FF                  RST 38H
2915   174F FF                  RST 38H
2916   1750 FF                  RST 38H
2917   1751 FF                  RST 38H
2918   1752 FF                  RST 38H
2919   1753 FF                  RST 38H
2920   1754 FF                  RST 38H
2921   1755 FF                  RST 38H
2922   1756 FF                  RST 38H
2923   1757 FF                  RST 38H
2924   1758 FF                  RST 38H
2925   1759 FF                  RST 38H
2926   175A FF                  RST 38H
2927   175B FF                  RST 38H
2928   175C FF                  RST 38H
2929   175D FF                  RST 38H
2930   175E FF                  RST 38H
2931   175F FF                  RST 38H
2932   1760 FF                  RST 38H
2933   1761 FF                  RST 38H
2934   1762 FF                  RST 38H
2935   1763 FF                  RST 38H
2936   1764 FF                  RST 38H
2937   1765 FF                  RST 38H
2938   1766 FF                  RST 38H
2939   1767 FF                  RST 38H
2940   1768 FF                  RST 38H
2941   1769 FF                  RST 38H
2942   176A FF                  RST 38H
2943   176B FF                  RST 38H
2944   176C FF                  RST 38H
2945   176D FF                  RST 38H
2946   176E FF                  RST 38H
2947   176F FF                  RST 38H
2948   1770 FF                  RST 38H
2949   1771 FF                  RST 38H
2950   1772 FF                  RST 38H
2951   1773 FF                  RST 38H
2952   1774 FF                  RST 38H
2953   1775 FF          L0182:  RST 38H
2954   1776 FF                  RST 38H
2955   1777 FF                  RST 38H
2956   1778 FF                  RST 38H
2957   1779 FF                  RST 38H
2958   177A FF                  RST 38H
2959   177B FF                  RST 38H
2960   177C FF                  RST 38H
2961   177D FF                  RST 38H
2962   177E FF                  RST 38H
2963   177F FF                  RST 38H
2964   1780 FF                  RST 38H
2965   1781 FF                  RST 38H
2966   1782 FF                  RST 38H
2967   1783 FF                  RST 38H
2968   1784 FF                  RST 38H
2969   1785 FF                  RST 38H
2970   1786 FF                  RST 38H
2971   1787 FF                  RST 38H
2972   1788 FF                  RST 38H
2973   1789 FF                  RST 38H
2974   178A FF                  RST 38H
2975   178B FF                  RST 38H
2976   178C FF                  RST 38H
2977   178D FF                  RST 38H
2978   178E FF                  RST 38H
2979   178F FF                  RST 38H
2980   1790 FF          L0014:  RST 38H
2981   1791 FF                  RST 38H
2982   1792 FF                  RST 38H
2983   1793 FF          L0032:  RST 38H
2984   1794 FF                  RST 38H
2985   1795 FF                  RST 38H
2986   1796 FF                  RST 38H
2987   1797 FF                  RST 38H
2988   1798 FF                  RST 38H
2989   1799 FF                  RST 38H
2990   179A FF                  RST 38H
2991   179B FF                  RST 38H
2992   179C FF                  RST 38H
2993   179D FF                  RST 38H
2994   179E FF          L0005:  RST 38H
2995   179F FF                  RST 38H
2996   17A0 FF                  RST 38H
2997   17A1 FF          L0043:  RST 38H
2998   17A2 FF                  RST 38H
2999   17A3 FF                  RST 38H
3000   17A4 FF                  RST 38H
3001   17A5 FF                  RST 38H
3002   17A6 FF                  RST 38H
3003   17A7 FF                  RST 38H
3004   17A8 FF                  RST 38H
3005   17A9 FF                  RST 38H
3006   17AA FF                  RST 38H
3007   17AB FF                  RST 38H
3008   17AC FF          L0216:  RST 38H
3009   17AD FF                  RST 38H
3010   17AE FF                  RST 38H
3011   17AF FF          L0039:  RST 38H
3012   17B0 FF                  RST 38H
3013   17B1 FF                  RST 38H
3014   17B2 FF                  RST 38H
3015   17B3 FF                  RST 38H
3016   17B4 FF                  RST 38H
3017   17B5 FF                  RST 38H
3018   17B6 FF                  RST 38H
3019   17B7 FF                  RST 38H
3020   17B8 FF                  RST 38H
3021   17B9 FF                  RST 38H
3022   17BA FF                  RST 38H
3023   17BB FF          L0190:  RST 38H
3024   17BC FF                  RST 38H
3025   17BD FF                  RST 38H
3026   17BE FF                  RST 38H
3027   17BF FF                  RST 38H
3028   17C0 FF                  RST 38H
3029   17C1 FF                  RST 38H
3030   17C2 FF                  RST 38H
3031   17C3 FF                  RST 38H
3032   17C4 FF          L0026:  RST 38H
3033   17C5 FF                  RST 38H
3034   17C6 FF                  RST 38H
3035   17C7 FF                  RST 38H
3036   17C8 FF                  RST 38H
3037   17C9 FF                  RST 38H
3038   17CA FF                  RST 38H
3039   17CB FF                  RST 38H
3040   17CC FF                  RST 38H
3041   17CD FF                  RST 38H
3042   17CE FF                  RST 38H
3043   17CF FF                  RST 38H
3044   17D0 FF                  RST 38H
3045   17D1 FF          L0012:  RST 38H
3046   17D2 FF                  RST 38H
3047   17D3 FF                  RST 38H
3048   17D4 FF                  RST 38H
3049   17D5 FF                  RST 38H
3050   17D6 FF                  RST 38H
3051   17D7 FF                  RST 38H
3052   17D8 FF                  RST 38H
3053   17D9 FF                  RST 38H
3054   17DA FF                  RST 38H
3055   17DB FF                  RST 38H
3056   17DC FF                  RST 38H
3057   17DD FF                  RST 38H
3058   17DE FF                  RST 38H
3059   17DF FF                  RST 38H
3060   17E0 FF                  RST 38H
3061   17E1 FF                  RST 38H
3062   17E2 FF                  RST 38H
3063   17E3 FF                  RST 38H
3064   17E4 FF                  RST 38H
3065   17E5 FF                  RST 38H
3066   17E6 FF                  RST 38H
3067   17E7 FF                  RST 38H
3068   17E8 FF                  RST 38H
3069   17E9 FF                  RST 38H
3070   17EA FF                  RST 38H
3071   17EB FF                  RST 38H
3072   17EC FF                  RST 38H
3073   17ED FF                  RST 38H
3074   17EE FF                  RST 38H
3075   17EF FF                  RST 38H
3076   17F0 FF                  RST 38H
3077   17F1 FF                  RST 38H
3078   17F2 FF                  RST 38H
3079   17F3 FF                  RST 38H
3080   17F4 FF                  RST 38H
3081   17F5 FF                  RST 38H
3082   17F6 FF                  RST 38H
3083   17F7 FF                  RST 38H
3084   17F8 FF                  RST 38H
3085   17F9 FF                  RST 38H
3086   17FA FF                  RST 38H
3087   17FB FF                  RST 38H
3088   17FC FF                  RST 38H
3089   17FD FF                  RST 38H
3090   17FE FF                  RST 38H
3091   17FF FF                  RST 38H
3092   1800 FF                  RST 38H
3093   1801 FF                  RST 38H
3094   1802 FF                  RST 38H
3095   1803 FF                  RST 38H
3096   1804 FF                  RST 38H
3097   1805 FF                  RST 38H
3098   1806 FF                  RST 38H
3099   1807 FF                  RST 38H
3100   1808 FF                  RST 38H
3101   1809 FF                  RST 38H
3102   180A FF                  RST 38H
3103   180B FF                  RST 38H
3104   180C FF                  RST 38H
3105   180D FF                  RST 38H
3106   180E FF                  RST 38H
3107   180F FF                  RST 38H
3108   1810 FF                  RST 38H
3109   1811 FF                  RST 38H
3110   1812 FF                  RST 38H
3111   1813 FF                  RST 38H
3112   1814 FF                  RST 38H
3113   1815 FF                  RST 38H
3114   1816 FF                  RST 38H
3115   1817 FF                  RST 38H
3116   1818 FF                  RST 38H
3117   1819 FF                  RST 38H
3118   181A FF                  RST 38H
3119   181B FF                  RST 38H
3120   181C FF                  RST 38H
3121   181D FF                  RST 38H
3122   181E FF                  RST 38H
3123   181F FF                  RST 38H
3124   1820 FF                  RST 38H
3125   1821 FF                  RST 38H
3126   1822 FF                  RST 38H
3127   1823 FF                  RST 38H
3128   1824 FF                  RST 38H
3129   1825 FF                  RST 38H
3130   1826 FF                  RST 38H
3131   1827 FF                  RST 38H
3132   1828 FF                  RST 38H
3133   1829 FF                  RST 38H
3134   182A FF                  RST 38H
3135   182B FF                  RST 38H
3136   182C FF                  RST 38H
3137   182D FF                  RST 38H
3138   182E FF                  RST 38H
3139   182F FF                  RST 38H
3140   1830 FF                  RST 38H
3141   1831 FF                  RST 38H
3142   1832 FF                  RST 38H
3143   1833 FF                  RST 38H
3144   1834 FF                  RST 38H
3145   1835 FF                  RST 38H
3146   1836 FF                  RST 38H
3147   1837 FF                  RST 38H
3148   1838 FF                  RST 38H
3149   1839 FF                  RST 38H
3150   183A FF                  RST 38H
3151   183B FF                  RST 38H
3152   183C FF                  RST 38H
3153   183D FF                  RST 38H
3154   183E FF                  RST 38H
3155   183F FF                  RST 38H
3156   1840 FF                  RST 38H
3157   1841 FF                  RST 38H
3158   1842 FF                  RST 38H
3159   1843 FF                  RST 38H
3160   1844 FF                  RST 38H
3161   1845 FF                  RST 38H
3162   1846 FF                  RST 38H
3163   1847 FF                  RST 38H
3164   1848 FF                  RST 38H
3165   1849 FF                  RST 38H
3166   184A FF                  RST 38H
3167   184B FF                  RST 38H
3168   184C FF                  RST 38H
3169   184D FF                  RST 38H
3170   184E FF                  RST 38H
3171   184F FF                  RST 38H
3172   1850 FF                  RST 38H
3173   1851 FF                  RST 38H
3174   1852 FF                  RST 38H
3175   1853 FF                  RST 38H
3176   1854 FF                  RST 38H
3177   1855 FF                  RST 38H
3178   1856 FF                  RST 38H
3179   1857 FF                  RST 38H
3180   1858 FF                  RST 38H
3181   1859 FF                  RST 38H
3182   185A FF                  RST 38H
3183   185B FF                  RST 38H
3184   185C FF                  RST 38H
3185   185D FF                  RST 38H
3186   185E FF                  RST 38H
3187   185F FF                  RST 38H
3188   1860 FF                  RST 38H
3189   1861 FF                  RST 38H
3190   1862 FF                  RST 38H
3191   1863 FF                  RST 38H
3192   1864 FF                  RST 38H
3193   1865 FF                  RST 38H
3194   1866 FF                  RST 38H
3195   1867 FF                  RST 38H
3196   1868 FF                  RST 38H
3197   1869 FF                  RST 38H
3198   186A FF                  RST 38H
3199   186B FF                  RST 38H
3200   186C FF                  RST 38H
3201   186D FF                  RST 38H
3202   186E FF                  RST 38H
3203   186F FF                  RST 38H
3204   1870 FF                  RST 38H
3205   1871 FF                  RST 38H
3206   1872 FF                  RST 38H
3207   1873 FF                  RST 38H
3208   1874 FF                  RST 38H
3209   1875 FF                  RST 38H
3210   1876 FF                  RST 38H
3211   1877 FF                  RST 38H
3212   1878 FF                  RST 38H
3213   1879 FF                  RST 38H
3214   187A FF                  RST 38H
3215   187B FF                  RST 38H
3216   187C FF                  RST 38H
3217   187D FF                  RST 38H
3218   187E FF                  RST 38H
3219   187F FF                  RST 38H
3220   1880 FF                  RST 38H
3221   1881 FF                  RST 38H
3222   1882 FF                  RST 38H
3223   1883 FF                  RST 38H
3224   1884 FF                  RST 38H
3225   1885 FF                  RST 38H
3226   1886 FF                  RST 38H
3227   1887 FF                  RST 38H
3228   1888 FF                  RST 38H
3229   1889 FF                  RST 38H
3230   188A FF                  RST 38H
3231   188B FF                  RST 38H
3232   188C FF                  RST 38H
3233   188D FF                  RST 38H
3234   188E FF                  RST 38H
3235   188F FF                  RST 38H
3236   1890 FF                  RST 38H
3237   1891 FF                  RST 38H
3238   1892 FF                  RST 38H
3239   1893 FF                  RST 38H
3240   1894 FF                  RST 38H
3241   1895 FF                  RST 38H
3242   1896 FF                  RST 38H
3243   1897 FF                  RST 38H
3244   1898 FF                  RST 38H
3245   1899 FF                  RST 38H
3246   189A FF                  RST 38H
3247   189B FF                  RST 38H
3248   189C FF                  RST 38H
3249   189D FF                  RST 38H
3250   189E FF                  RST 38H
3251   189F FF                  RST 38H
3252   18A0 FF                  RST 38H
3253   18A1 FF                  RST 38H
3254   18A2 FF                  RST 38H
3255   18A3 FF                  RST 38H
3256   18A4 FF                  RST 38H
3257   18A5 FF                  RST 38H
3258   18A6 FF                  RST 38H
3259   18A7 FF                  RST 38H
3260   18A8 FF                  RST 38H
3261   18A9 FF                  RST 38H
3262   18AA FF                  RST 38H
3263   18AB FF                  RST 38H
3264   18AC FF                  RST 38H
3265   18AD FF                  RST 38H
3266   18AE FF                  RST 38H
3267   18AF FF                  RST 38H
3268   18B0 FF                  RST 38H
3269   18B1 FF                  RST 38H
3270   18B2 FF                  RST 38H
3271   18B3 FF                  RST 38H
3272   18B4 FF                  RST 38H
3273   18B5 FF                  RST 38H
3274   18B6 FF                  RST 38H
3275   18B7 FF                  RST 38H
3276   18B8 FF                  RST 38H
3277   18B9 FF                  RST 38H
3278   18BA FF                  RST 38H
3279   18BB FF                  RST 38H
3280   18BC FF          L0153:  RST 38H
3281   18BD FF                  RST 38H
3282   18BE FF                  RST 38H
3283   18BF FF                  RST 38H
3284   18C0 FF                  RST 38H
3285   18C1 FF                  RST 38H
3286   18C2 FF                  RST 38H
3287   18C3 FF          L0147:  RST 38H
3288   18C4 FF                  RST 38H
3289   18C5 FF                  RST 38H
3290   18C6 FF                  RST 38H
3291   18C7 FF                  RST 38H
3292   18C8 FF                  RST 38H
3293   18C9 FF                  RST 38H
3294   18CA FF                  RST 38H
3295   18CB FF          L0004:  RST 38H
3296   18CC FF                  RST 38H
3297   18CD FF                  RST 38H
3298   18CE FF                  RST 38H
3299   18CF FF                  RST 38H
3300   18D0 FF                  RST 38H
3301   18D1 FF                  RST 38H
3302   18D2 FF                  RST 38H
3303   18D3 FF                  RST 38H
3304   18D4 FF                  RST 38H
3305   18D5 FF                  RST 38H
3306   18D6 FF                  RST 38H
3307   18D7 FF                  RST 38H
3308   18D8 FF                  RST 38H
3309   18D9 FF                  RST 38H
3310   18DA FF                  RST 38H
3311   18DB FF                  RST 38H
3312   18DC FF                  RST 38H
3313   18DD FF                  RST 38H
3314   18DE FF                  RST 38H
3315   18DF FF                  RST 38H
3316   18E0 FF                  RST 38H
3317   18E1 FF                  RST 38H
3318   18E2 FF                  RST 38H
3319   18E3 FF                  RST 38H
3320   18E4 FF                  RST 38H
3321   18E5 FF                  RST 38H
3322   18E6 FF                  RST 38H
3323   18E7 FF                  RST 38H
3324   18E8 FF                  RST 38H
3325   18E9 FF                  RST 38H
3326   18EA FF                  RST 38H
3327   18EB FF                  RST 38H
3328   18EC FF                  RST 38H
3329   18ED FF                  RST 38H
3330   18EE FF                  RST 38H
3331   18EF FF                  RST 38H
3332   18F0 FF                  RST 38H
3333   18F1 FF                  RST 38H
3334   18F2 FF                  RST 38H
3335   18F3 FF                  RST 38H
3336   18F4 FF                  RST 38H
3337   18F5 FF                  RST 38H
3338   18F6 FF                  RST 38H
3339   18F7 FF                  RST 38H
3340   18F8 FF                  RST 38H
3341   18F9 FF                  RST 38H
3342   18FA FF                  RST 38H
3343   18FB FF                  RST 38H
3344   18FC FF                  RST 38H
3345   18FD FF                  RST 38H
3346   18FE FF                  RST 38H
3347   18FF FF                  RST 38H
3348   1900 FF                  RST 38H
3349   1901 FF                  RST 38H
3350   1902 FF                  RST 38H
3351   1903 FF                  RST 38H
3352   1904 FF                  RST 38H
3353   1905 FF                  RST 38H
3354   1906 FF                  RST 38H
3355   1907 FF                  RST 38H
3356   1908 FF                  RST 38H
3357   1909 FF                  RST 38H
3358   190A FF                  RST 38H
3359   190B FF                  RST 38H
3360   190C FF                  RST 38H
3361   190D FF                  RST 38H
3362   190E FF                  RST 38H
3363   190F FF                  RST 38H
3364   1910 FF                  RST 38H
3365   1911 FF                  RST 38H
3366   1912 FF                  RST 38H
3367   1913 FF                  RST 38H
3368   1914 FF                  RST 38H
3369   1915 FF                  RST 38H
3370   1916 FF                  RST 38H
3371   1917 FF                  RST 38H
3372   1918 FF                  RST 38H
3373   1919 FF                  RST 38H
3374   191A FF                  RST 38H
3375   191B FF                  RST 38H
3376   191C FF                  RST 38H
3377   191D FF                  RST 38H
3378   191E FF                  RST 38H
3379   191F FF                  RST 38H
3380   1920 FF                  RST 38H
3381   1921 FF                  RST 38H
3382   1922 FF                  RST 38H
3383   1923 FF                  RST 38H
3384   1924 FF                  RST 38H
3385   1925 FF                  RST 38H
3386   1926 FF                  RST 38H
3387   1927 FF                  RST 38H
3388   1928 FF                  RST 38H
3389   1929 FF                  RST 38H
3390   192A FF                  RST 38H
3391   192B FF                  RST 38H
3392   192C FF                  RST 38H
3393   192D FF                  RST 38H
3394   192E FF                  RST 38H
3395   192F FF                  RST 38H
3396   1930 FF                  RST 38H
3397   1931 FF                  RST 38H
3398   1932 FF                  RST 38H
3399   1933 FF                  RST 38H
3400   1934 FF                  RST 38H
3401   1935 FF                  RST 38H
3402   1936 FF                  RST 38H
3403   1937 FF                  RST 38H
3404   1938 FF                  RST 38H
3405   1939 FF                  RST 38H
3406   193A FF                  RST 38H
3407   193B FF                  RST 38H
3408   193C FF                  RST 38H
3409   193D FF                  RST 38H
3410   193E FF                  RST 38H
3411   193F FF                  RST 38H
3412   1940 FF                  RST 38H
3413   1941 FF                  RST 38H
3414   1942 FF                  RST 38H
3415   1943 FF                  RST 38H
3416   1944 FF                  RST 38H
3417   1945 FF                  RST 38H
3418   1946 FF                  RST 38H
3419   1947 FF                  RST 38H
3420   1948 FF                  RST 38H
3421   1949 FF          L0124:  RST 38H
3422   194A FF                  RST 38H
3423   194B FF                  RST 38H
3424   194C FF                  RST 38H
3425   194D FF                  RST 38H
3426   194E FF                  RST 38H
3427   194F FF                  RST 38H
3428   1950 FF                  RST 38H
3429   1951 FF                  RST 38H
3430   1952 FF                  RST 38H
3431   1953 FF                  RST 38H
3432   1954 FF                  RST 38H
3433   1955 FF                  RST 38H
3434   1956 FF                  RST 38H
3435   1957 FF                  RST 38H
3436   1958 FF                  RST 38H
3437   1959 FF                  RST 38H
3438   195A FF                  RST 38H
3439   195B FF                  RST 38H
3440   195C FF                  RST 38H
3441   195D FF                  RST 38H
3442   195E FF                  RST 38H
3443   195F FF          L0129:  RST 38H
3444   1960 FF                  RST 38H
3445   1961 FF                  RST 38H
3446   1962 FF                  RST 38H
3447   1963 FF                  RST 38H
3448   1964 FF                  RST 38H
3449   1965 FF                  RST 38H
3450   1966 FF                  RST 38H
3451   1967 FF                  RST 38H
3452   1968 FF                  RST 38H
3453   1969 FF                  RST 38H
3454   196A FF                  RST 38H
3455   196B FF                  RST 38H
3456   196C FF                  RST 38H
3457   196D FF                  RST 38H
3458   196E FF                  RST 38H
3459   196F FF                  RST 38H
3460   1970 FF                  RST 38H
3461   1971 FF                  RST 38H
3462   1972 FF                  RST 38H
3463   1973 FF                  RST 38H
3464   1974 FF                  RST 38H
3465   1975 FF                  RST 38H
3466   1976 FF                  RST 38H
3467   1977 FF                  RST 38H
3468   1978 FF                  RST 38H
3469   1979 FF                  RST 38H
3470   197A FF                  RST 38H
3471   197B FF                  RST 38H
3472   197C FF                  RST 38H
3473   197D FF                  RST 38H
3474   197E FF                  RST 38H
3475   197F FF                  RST 38H
3476   1980 FF                  RST 38H
3477   1981 FF                  RST 38H
3478   1982 FF                  RST 38H
3479   1983 FF                  RST 38H
3480   1984 FF                  RST 38H
3481   1985 FF                  RST 38H
3482   1986 FF                  RST 38H
3483   1987 FF                  RST 38H
3484   1988 FF                  RST 38H
3485   1989 FF                  RST 38H
3486   198A FF                  RST 38H
3487   198B FF                  RST 38H
3488   198C FF          L0120:  RST 38H
3489   198D FF                  RST 38H
3490   198E FF                  RST 38H
3491   198F FF                  RST 38H
3492   1990 FF                  RST 38H
3493   1991 FF                  RST 38H
3494   1992 FF                  RST 38H
3495   1993 FF                  RST 38H
3496   1994 FF                  RST 38H
3497   1995 FF                  RST 38H
3498   1996 FF                  RST 38H
3499   1997 FF                  RST 38H
3500   1998 FF                  RST 38H
3501   1999 FF                  RST 38H
3502   199A FF                  RST 38H
3503   199B FF                  RST 38H
3504   199C FF                  RST 38H
3505   199D FF                  RST 38H
3506   199E FF                  RST 38H
3507   199F FF                  RST 38H
3508   19A0 FF                  RST 38H
3509   19A1 FF                  RST 38H
3510   19A2 FF                  RST 38H
3511   19A3 FF                  RST 38H
3512   19A4 FF                  RST 38H
3513   19A5 FF                  RST 38H
3514   19A6 FF                  RST 38H
3515   19A7 FF          L0201:  RST 38H
3516   19A8 FF                  RST 38H
3517   19A9 FF                  RST 38H
3518   19AA FF                  RST 38H
3519   19AB FF                  RST 38H
3520   19AC FF                  RST 38H
3521   19AD FF                  RST 38H
3522   19AE FF                  RST 38H
3523   19AF FF                  RST 38H
3524   19B0 FF                  RST 38H
3525   19B1 FF                  RST 38H
3526   19B2 FF                  RST 38H
3527   19B3 FF                  RST 38H
3528   19B4 FF                  RST 38H
3529   19B5 FF                  RST 38H
3530   19B6 FF                  RST 38H
3531   19B7 FF                  RST 38H
3532   19B8 FF                  RST 38H
3533   19B9 FF                  RST 38H
3534   19BA FF                  RST 38H
3535   19BB FF                  RST 38H
3536   19BC FF                  RST 38H
3537   19BD FF                  RST 38H
3538   19BE FF                  RST 38H
3539   19BF FF                  RST 38H
3540   19C0 FF                  RST 38H
3541   19C1 FF                  RST 38H
3542   19C2 FF                  RST 38H
3543   19C3 FF                  RST 38H
3544   19C4 FF                  RST 38H
3545   19C5 FF                  RST 38H
3546   19C6 FF                  RST 38H
3547   19C7 FF                  RST 38H
3548   19C8 FF                  RST 38H
3549   19C9 FF                  RST 38H
3550   19CA FF                  RST 38H
3551   19CB FF                  RST 38H
3552   19CC FF                  RST 38H
3553   19CD FF                  RST 38H
3554   19CE FF                  RST 38H
3555   19CF FF                  RST 38H
3556   19D0 FF                  RST 38H
3557   19D1 FF                  RST 38H
3558   19D2 FF                  RST 38H
3559   19D3 FF                  RST 38H
3560   19D4 FF                  RST 38H
3561   19D5 FF                  RST 38H
3562   19D6 FF                  RST 38H
3563   19D7 FF                  RST 38H
3564   19D8 FF                  RST 38H
3565   19D9 FF                  RST 38H
3566   19DA FF                  RST 38H
3567   19DB FF                  RST 38H
3568   19DC FF                  RST 38H
3569   19DD FF                  RST 38H
3570   19DE FF                  RST 38H
3571   19DF FF                  RST 38H
3572   19E0 FF                  RST 38H
3573   19E1 FF                  RST 38H
3574   19E2 FF                  RST 38H
3575   19E3 FF                  RST 38H
3576   19E4 FF                  RST 38H
3577   19E5 FF                  RST 38H
3578   19E6 FF                  RST 38H
3579   19E7 FF                  RST 38H
3580   19E8 FF                  RST 38H
3581   19E9 FF                  RST 38H
3582   19EA FF                  RST 38H
3583   19EB FF                  RST 38H
3584   19EC FF                  RST 38H
3585   19ED FF                  RST 38H
3586   19EE FF                  RST 38H
3587   19EF FF                  RST 38H
3588   19F0 FF                  RST 38H
3589   19F1 FF                  RST 38H
3590   19F2 FF                  RST 38H
3591   19F3 FF          L0179:  RST 38H
3592   19F4 FF                  RST 38H
3593   19F5 FF                  RST 38H
3594   19F6 FF                  RST 38H
3595   19F7 FF                  RST 38H
3596   19F8 FF                  RST 38H
3597   19F9 FF                  RST 38H
3598   19FA FF                  RST 38H
3599   19FB FF                  RST 38H
3600   19FC FF                  RST 38H
3601   19FD FF                  RST 38H
3602   19FE FF                  RST 38H
3603   19FF FF                  RST 38H
3604   1A00 FF                  RST 38H
3605   1A01 FF                  RST 38H
3606   1A02 FF                  RST 38H
3607   1A03 FF                  RST 38H
3608   1A04 FF                  RST 38H
3609   1A05 FF                  RST 38H
3610   1A06 FF                  RST 38H
3611   1A07 FF                  RST 38H
3612   1A08 FF                  RST 38H
3613   1A09 FF                  RST 38H
3614   1A0A FF                  RST 38H
3615   1A0B FF                  RST 38H
3616   1A0C FF                  RST 38H
3617   1A0D FF                  RST 38H
3618   1A0E FF                  RST 38H
3619   1A0F FF                  RST 38H
3620   1A10 FF                  RST 38H
3621   1A11 FF                  RST 38H
3622   1A12 FF                  RST 38H
3623   1A13 FF                  RST 38H
3624   1A14 FF                  RST 38H
3625   1A15 FF                  RST 38H
3626   1A16 FF                  RST 38H
3627   1A17 FF                  RST 38H
3628   1A18 FF                  RST 38H
3629   1A19 FF                  RST 38H
3630   1A1A FF                  RST 38H
3631   1A1B FF                  RST 38H
3632   1A1C FF                  RST 38H
3633   1A1D FF                  RST 38H
3634   1A1E FF                  RST 38H
3635   1A1F FF                  RST 38H
3636   1A20 FF                  RST 38H
3637   1A21 FF                  RST 38H
3638   1A22 FF                  RST 38H
3639   1A23 FF                  RST 38H
3640   1A24 FF                  RST 38H
3641   1A25 FF                  RST 38H
3642   1A26 FF                  RST 38H
3643   1A27 FF                  RST 38H
3644   1A28 FF                  RST 38H
3645   1A29 FF                  RST 38H
3646   1A2A FF                  RST 38H
3647   1A2B FF                  RST 38H
3648   1A2C FF                  RST 38H
3649   1A2D FF                  RST 38H
3650   1A2E FF                  RST 38H
3651   1A2F FF                  RST 38H
3652   1A30 FF                  RST 38H
3653   1A31 FF                  RST 38H
3654   1A32 FF                  RST 38H
3655   1A33 FF                  RST 38H
3656   1A34 FF                  RST 38H
3657   1A35 FF                  RST 38H
3658   1A36 FF                  RST 38H
3659   1A37 FF                  RST 38H
3660   1A38 FF                  RST 38H
3661   1A39 FF                  RST 38H
3662   1A3A FF                  RST 38H
3663   1A3B FF                  RST 38H
3664   1A3C FF                  RST 38H
3665   1A3D FF                  RST 38H
3666   1A3E FF                  RST 38H
3667   1A3F FF                  RST 38H
3668   1A40 FF                  RST 38H
3669   1A41 FF                  RST 38H
3670   1A42 FF                  RST 38H
3671   1A43 FF                  RST 38H
3672   1A44 FF                  RST 38H
3673   1A45 FF                  RST 38H
3674   1A46 FF                  RST 38H
3675   1A47 FF                  RST 38H
3676   1A48 FF                  RST 38H
3677   1A49 FF                  RST 38H
3678   1A4A FF                  RST 38H
3679   1A4B FF                  RST 38H
3680   1A4C FF                  RST 38H
3681   1A4D FF                  RST 38H
3682   1A4E FF                  RST 38H
3683   1A4F FF                  RST 38H
3684   1A50 FF                  RST 38H
3685   1A51 FF                  RST 38H
3686   1A52 FF                  RST 38H
3687   1A53 FF                  RST 38H
3688   1A54 FF                  RST 38H
3689   1A55 FF                  RST 38H
3690   1A56 FF                  RST 38H
3691   1A57 FF                  RST 38H
3692   1A58 FF                  RST 38H
3693   1A59 FF                  RST 38H
3694   1A5A FF                  RST 38H
3695   1A5B FF                  RST 38H
3696   1A5C FF                  RST 38H
3697   1A5D FF                  RST 38H
3698   1A5E FF                  RST 38H
3699   1A5F FF                  RST 38H
3700   1A60 FF                  RST 38H
3701   1A61 FF                  RST 38H
3702   1A62 FF                  RST 38H
3703   1A63 FF                  RST 38H
3704   1A64 FF                  RST 38H
3705   1A65 FF                  RST 38H
3706   1A66 FF                  RST 38H
3707   1A67 FF                  RST 38H
3708   1A68 FF                  RST 38H
3709   1A69 FF                  RST 38H
3710   1A6A FF                  RST 38H
3711   1A6B FF                  RST 38H
3712   1A6C FF                  RST 38H
3713   1A6D FF                  RST 38H
3714   1A6E FF                  RST 38H
3715   1A6F FF                  RST 38H
3716   1A70 FF                  RST 38H
3717   1A71 FF                  RST 38H
3718   1A72 FF                  RST 38H
3719   1A73 FF                  RST 38H
3720   1A74 FF                  RST 38H
3721   1A75 FF                  RST 38H
3722   1A76 FF                  RST 38H
3723   1A77 FF                  RST 38H
3724   1A78 FF                  RST 38H
3725   1A79 FF                  RST 38H
3726   1A7A FF                  RST 38H
3727   1A7B FF                  RST 38H
3728   1A7C FF                  RST 38H
3729   1A7D FF                  RST 38H
3730   1A7E FF                  RST 38H
3731   1A7F FF                  RST 38H
3732   1A80 FF                  RST 38H
3733   1A81 FF                  RST 38H
3734   1A82 FF                  RST 38H
3735   1A83 FF                  RST 38H
3736   1A84 FF                  RST 38H
3737   1A85 FF                  RST 38H
3738   1A86 FF                  RST 38H
3739   1A87 FF                  RST 38H
3740   1A88 FF                  RST 38H
3741   1A89 FF                  RST 38H
3742   1A8A FF                  RST 38H
3743   1A8B FF                  RST 38H
3744   1A8C FF                  RST 38H
3745   1A8D FF                  RST 38H
3746   1A8E FF                  RST 38H
3747   1A8F FF                  RST 38H
3748   1A90 FF                  RST 38H
3749   1A91 FF                  RST 38H
3750   1A92 FF                  RST 38H
3751   1A93 FF                  RST 38H
3752   1A94 FF                  RST 38H
3753   1A95 FF                  RST 38H
3754   1A96 FF                  RST 38H
3755   1A97 FF                  RST 38H
3756   1A98 FF                  RST 38H
3757   1A99 FF                  RST 38H
3758   1A9A FF                  RST 38H
3759   1A9B FF                  RST 38H
3760   1A9C FF                  RST 38H
3761   1A9D FF                  RST 38H
3762   1A9E FF                  RST 38H
3763   1A9F FF                  RST 38H
3764   1AA0 FF                  RST 38H
3765   1AA1 FF                  RST 38H
3766   1AA2 FF                  RST 38H
3767   1AA3 FF                  RST 38H
3768   1AA4 FF                  RST 38H
3769   1AA5 FF                  RST 38H
3770   1AA6 FF                  RST 38H
3771   1AA7 FF                  RST 38H
3772   1AA8 FF                  RST 38H
3773   1AA9 FF                  RST 38H
3774   1AAA FF                  RST 38H
3775   1AAB FF                  RST 38H
3776   1AAC FF                  RST 38H
3777   1AAD FF                  RST 38H
3778   1AAE FF                  RST 38H
3779   1AAF FF                  RST 38H
3780   1AB0 FF                  RST 38H
3781   1AB1 FF                  RST 38H
3782   1AB2 FF                  RST 38H
3783   1AB3 FF                  RST 38H
3784   1AB4 FF                  RST 38H
3785   1AB5 FF                  RST 38H
3786   1AB6 FF                  RST 38H
3787   1AB7 FF                  RST 38H
3788   1AB8 FF                  RST 38H
3789   1AB9 FF                  RST 38H
3790   1ABA FF                  RST 38H
3791   1ABB FF                  RST 38H
3792   1ABC FF                  RST 38H
3793   1ABD FF                  RST 38H
3794   1ABE FF                  RST 38H
3795   1ABF FF                  RST 38H
3796   1AC0 FF                  RST 38H
3797   1AC1 FF                  RST 38H
3798   1AC2 FF                  RST 38H
3799   1AC3 FF                  RST 38H
3800   1AC4 FF                  RST 38H
3801   1AC5 FF                  RST 38H
3802   1AC6 FF                  RST 38H
3803   1AC7 FF                  RST 38H
3804   1AC8 FF                  RST 38H
3805   1AC9 FF                  RST 38H
3806   1ACA FF                  RST 38H
3807   1ACB FF                  RST 38H
3808   1ACC FF                  RST 38H
3809   1ACD FF                  RST 38H
3810   1ACE FF                  RST 38H
3811   1ACF FF                  RST 38H
3812   1AD0 FF                  RST 38H
3813   1AD1 FF                  RST 38H
3814   1AD2 FF                  RST 38H
3815   1AD3 FF                  RST 38H
3816   1AD4 FF                  RST 38H
3817   1AD5 FF                  RST 38H
3818   1AD6 FF                  RST 38H
3819   1AD7 FF                  RST 38H
3820   1AD8 FF                  RST 38H
3821   1AD9 FF                  RST 38H
3822   1ADA FF                  RST 38H
3823   1ADB FF                  RST 38H
3824   1ADC FF                  RST 38H
3825   1ADD FF                  RST 38H
3826   1ADE FF                  RST 38H
3827   1ADF FF                  RST 38H
3828   1AE0 FF                  RST 38H
3829   1AE1 FF                  RST 38H
3830   1AE2 FF                  RST 38H
3831   1AE3 FF                  RST 38H
3832   1AE4 FF                  RST 38H
3833   1AE5 FF                  RST 38H
3834   1AE6 FF                  RST 38H
3835   1AE7 FF                  RST 38H
3836   1AE8 FF                  RST 38H
3837   1AE9 FF                  RST 38H
3838   1AEA FF                  RST 38H
3839   1AEB FF                  RST 38H
3840   1AEC FF                  RST 38H
3841   1AED FF                  RST 38H
3842   1AEE FF                  RST 38H
3843   1AEF FF                  RST 38H
3844   1AF0 FF                  RST 38H
3845   1AF1 FF                  RST 38H
3846   1AF2 FF                  RST 38H
3847   1AF3 FF                  RST 38H
3848   1AF4 FF                  RST 38H
3849   1AF5 FF                  RST 38H
3850   1AF6 FF                  RST 38H
3851   1AF7 FF                  RST 38H
3852   1AF8 FF                  RST 38H
3853   1AF9 FF                  RST 38H
3854   1AFA FF                  RST 38H
3855   1AFB FF                  RST 38H
3856   1AFC FF                  RST 38H
3857   1AFD FF                  RST 38H
3858   1AFE FF                  RST 38H
3859   1AFF FF                  RST 38H
3860   1B00 FF                  RST 38H
3861   1B01 FF                  RST 38H
3862   1B02 FF                  RST 38H
3863   1B03 FF                  RST 38H
3864   1B04 FF                  RST 38H
3865   1B05 FF                  RST 38H
3866   1B06 FF                  RST 38H
3867   1B07 FF                  RST 38H
3868   1B08 FF                  RST 38H
3869   1B09 FF                  RST 38H
3870   1B0A FF                  RST 38H
3871   1B0B FF                  RST 38H
3872   1B0C FF                  RST 38H
3873   1B0D FF                  RST 38H
3874   1B0E FF                  RST 38H
3875   1B0F FF                  RST 38H
3876   1B10 FF                  RST 38H
3877   1B11 FF                  RST 38H
3878   1B12 FF                  RST 38H
3879   1B13 FF                  RST 38H
3880   1B14 FF                  RST 38H
3881   1B15 FF                  RST 38H
3882   1B16 FF                  RST 38H
3883   1B17 FF                  RST 38H
3884   1B18 FF                  RST 38H
3885   1B19 FF                  RST 38H
3886   1B1A FF                  RST 38H
3887   1B1B FF                  RST 38H
3888   1B1C FF                  RST 38H
3889   1B1D FF                  RST 38H
3890   1B1E FF                  RST 38H
3891   1B1F FF                  RST 38H
3892   1B20 FF                  RST 38H
3893   1B21 FF                  RST 38H
3894   1B22 FF                  RST 38H
3895   1B23 FF                  RST 38H
3896   1B24 FF                  RST 38H
3897   1B25 FF                  RST 38H
3898   1B26 FF                  RST 38H
3899   1B27 FF                  RST 38H
3900   1B28 FF                  RST 38H
3901   1B29 FF                  RST 38H
3902   1B2A FF                  RST 38H
3903   1B2B FF                  RST 38H
3904   1B2C FF                  RST 38H
3905   1B2D FF                  RST 38H
3906   1B2E FF                  RST 38H
3907   1B2F FF                  RST 38H
3908   1B30 FF                  RST 38H
3909   1B31 FF                  RST 38H
3910   1B32 FF                  RST 38H
3911   1B33 FF                  RST 38H
3912   1B34 FF                  RST 38H
3913   1B35 FF                  RST 38H
3914   1B36 FF                  RST 38H
3915   1B37 FF                  RST 38H
3916   1B38 FF                  RST 38H
3917   1B39 FF                  RST 38H
3918   1B3A FF                  RST 38H
3919   1B3B FF                  RST 38H
3920   1B3C FF                  RST 38H
3921   1B3D FF                  RST 38H
3922   1B3E FF                  RST 38H
3923   1B3F FF                  RST 38H
3924   1B40 FF                  RST 38H
3925   1B41 FF                  RST 38H
3926   1B42 FF                  RST 38H
3927   1B43 FF                  RST 38H
3928   1B44 FF                  RST 38H
3929   1B45 FF                  RST 38H
3930   1B46 FF                  RST 38H
3931   1B47 FF                  RST 38H
3932   1B48 FF                  RST 38H
3933   1B49 FF                  RST 38H
3934   1B4A FF                  RST 38H
3935   1B4B FF                  RST 38H
3936   1B4C FF                  RST 38H
3937   1B4D FF                  RST 38H
3938   1B4E FF                  RST 38H
3939   1B4F FF                  RST 38H
3940   1B50 FF                  RST 38H
3941   1B51 FF                  RST 38H
3942   1B52 FF                  RST 38H
3943   1B53 FF                  RST 38H
3944   1B54 FF                  RST 38H
3945   1B55 FF                  RST 38H
3946   1B56 FF                  RST 38H
3947   1B57 FF                  RST 38H
3948   1B58 FF                  RST 38H
3949   1B59 FF                  RST 38H
3950   1B5A FF                  RST 38H
3951   1B5B FF                  RST 38H
3952   1B5C FF                  RST 38H
3953   1B5D FF                  RST 38H
3954   1B5E FF                  RST 38H
3955   1B5F FF                  RST 38H
3956   1B60 FF                  RST 38H
3957   1B61 FF                  RST 38H
3958   1B62 FF                  RST 38H
3959   1B63 FF                  RST 38H
3960   1B64 FF                  RST 38H
3961   1B65 FF                  RST 38H
3962   1B66 FF                  RST 38H
3963   1B67 FF                  RST 38H
3964   1B68 FF                  RST 38H
3965   1B69 FF                  RST 38H
3966   1B6A FF                  RST 38H
3967   1B6B FF                  RST 38H
3968   1B6C FF                  RST 38H
3969   1B6D FF                  RST 38H
3970   1B6E FF                  RST 38H
3971   1B6F FF                  RST 38H
3972   1B70 FF                  RST 38H
3973   1B71 FF                  RST 38H
3974   1B72 FF                  RST 38H
3975   1B73 FF                  RST 38H
3976   1B74 FF                  RST 38H
3977   1B75 FF                  RST 38H
3978   1B76 FF                  RST 38H
3979   1B77 FF                  RST 38H
3980   1B78 FF                  RST 38H
3981   1B79 FF                  RST 38H
3982   1B7A FF                  RST 38H
3983   1B7B FF                  RST 38H
3984   1B7C FF                  RST 38H
3985   1B7D FF                  RST 38H
3986   1B7E FF                  RST 38H
3987   1B7F FF                  RST 38H
3988   1B80 FF                  RST 38H
3989   1B81 FF                  RST 38H
3990   1B82 FF                  RST 38H
3991   1B83 FF                  RST 38H
3992   1B84 FF                  RST 38H
3993   1B85 FF                  RST 38H
3994   1B86 FF                  RST 38H
3995   1B87 FF                  RST 38H
3996   1B88 FF                  RST 38H
3997   1B89 FF                  RST 38H
3998   1B8A FF                  RST 38H
3999   1B8B FF                  RST 38H
4000   1B8C FF                  RST 38H
4001   1B8D FF                  RST 38H
4002   1B8E FF                  RST 38H
4003   1B8F FF                  RST 38H
4004   1B90 FF                  RST 38H
4005   1B91 FF                  RST 38H
4006   1B92 FF                  RST 38H
4007   1B93 FF                  RST 38H
4008   1B94 FF                  RST 38H
4009   1B95 FF                  RST 38H
4010   1B96 FF                  RST 38H
4011   1B97 FF                  RST 38H
4012   1B98 FF                  RST 38H
4013   1B99 FF                  RST 38H
4014   1B9A FF                  RST 38H
4015   1B9B FF                  RST 38H
4016   1B9C FF                  RST 38H
4017   1B9D FF                  RST 38H
4018   1B9E FF                  RST 38H
4019   1B9F FF                  RST 38H
4020   1BA0 FF                  RST 38H
4021   1BA1 FF                  RST 38H
4022   1BA2 FF                  RST 38H
4023   1BA3 FF                  RST 38H
4024   1BA4 FF                  RST 38H
4025   1BA5 FF                  RST 38H
4026   1BA6 FF                  RST 38H
4027   1BA7 FF                  RST 38H
4028   1BA8 FF                  RST 38H
4029   1BA9 FF                  RST 38H
4030   1BAA FF                  RST 38H
4031   1BAB FF                  RST 38H
4032   1BAC FF                  RST 38H
4033   1BAD FF                  RST 38H
4034   1BAE FF                  RST 38H
4035   1BAF FF                  RST 38H
4036   1BB0 FF                  RST 38H
4037   1BB1 FF                  RST 38H
4038   1BB2 FF                  RST 38H
4039   1BB3 FF                  RST 38H
4040   1BB4 FF                  RST 38H
4041   1BB5 FF                  RST 38H
4042   1BB6 FF                  RST 38H
4043   1BB7 FF                  RST 38H
4044   1BB8 FF                  RST 38H
4045   1BB9 FF                  RST 38H
4046   1BBA FF                  RST 38H
4047   1BBB FF                  RST 38H
4048   1BBC FF                  RST 38H
4049   1BBD FF                  RST 38H
4050   1BBE FF                  RST 38H
4051   1BBF FF                  RST 38H
4052   1BC0 FF                  RST 38H
4053   1BC1 FF                  RST 38H
4054   1BC2 FF                  RST 38H
4055   1BC3 FF                  RST 38H
4056   1BC4 FF                  RST 38H
4057   1BC5 FF                  RST 38H
4058   1BC6 FF                  RST 38H
4059   1BC7 FF                  RST 38H
4060   1BC8 FF                  RST 38H
4061   1BC9 FF                  RST 38H
4062   1BCA FF                  RST 38H
4063   1BCB FF                  RST 38H
4064   1BCC FF                  RST 38H
4065   1BCD FF                  RST 38H
4066   1BCE FF                  RST 38H
4067   1BCF FF                  RST 38H
4068   1BD0 FF                  RST 38H
4069   1BD1 FF                  RST 38H
4070   1BD2 FF                  RST 38H
4071   1BD3 FF                  RST 38H
4072   1BD4 FF                  RST 38H
4073   1BD5 FF                  RST 38H
4074   1BD6 FF                  RST 38H
4075   1BD7 FF                  RST 38H
4076   1BD8 FF                  RST 38H
4077   1BD9 FF                  RST 38H
4078   1BDA FF                  RST 38H
4079   1BDB FF                  RST 38H
4080   1BDC FF                  RST 38H
4081   1BDD FF                  RST 38H
4082   1BDE FF                  RST 38H
4083   1BDF FF                  RST 38H
4084   1BE0 FF                  RST 38H
4085   1BE1 FF                  RST 38H
4086   1BE2 FF                  RST 38H
4087   1BE3 FF                  RST 38H
4088   1BE4 FF                  RST 38H
4089   1BE5 FF                  RST 38H
4090   1BE6 FF                  RST 38H
4091   1BE7 FF                  RST 38H
4092   1BE8 FF                  RST 38H
4093   1BE9 FF                  RST 38H
4094   1BEA FF                  RST 38H
4095   1BEB FF                  RST 38H
4096   1BEC FF                  RST 38H
4097   1BED FF                  RST 38H
4098   1BEE FF                  RST 38H
4099   1BEF FF                  RST 38H
4100   1BF0 FF                  RST 38H
4101   1BF1 FF                  RST 38H
4102   1BF2 FF                  RST 38H
4103   1BF3 FF                  RST 38H
4104   1BF4 FF                  RST 38H
4105   1BF5 FF                  RST 38H
4106   1BF6 FF                  RST 38H
4107   1BF7 FF                  RST 38H
4108   1BF8 FF                  RST 38H
4109   1BF9 FF                  RST 38H
4110   1BFA FF                  RST 38H
4111   1BFB FF                  RST 38H
4112   1BFC FF                  RST 38H
4113   1BFD FF                  RST 38H
4114   1BFE FF                  RST 38H
4115   1BFF FF                  RST 38H
4116   1C00 FF                  RST 38H
4117   1C01 FF                  RST 38H
4118   1C02 FF                  RST 38H
4119   1C03 FF                  RST 38H
4120   1C04 FF                  RST 38H
4121   1C05 FF                  RST 38H
4122   1C06 FF                  RST 38H
4123   1C07 FF                  RST 38H
4124   1C08 FF                  RST 38H
4125   1C09 FF                  RST 38H
4126   1C0A FF                  RST 38H
4127   1C0B FF                  RST 38H
4128   1C0C FF                  RST 38H
4129   1C0D FF                  RST 38H
4130   1C0E FF                  RST 38H
4131   1C0F FF                  RST 38H
4132   1C10 FF                  RST 38H
4133   1C11 FF                  RST 38H
4134   1C12 FF                  RST 38H
4135   1C13 FF                  RST 38H
4136   1C14 FF                  RST 38H
4137   1C15 FF                  RST 38H
4138   1C16 FF                  RST 38H
4139   1C17 FF                  RST 38H
4140   1C18 FF                  RST 38H
4141   1C19 FF                  RST 38H
4142   1C1A FF                  RST 38H
4143   1C1B FF                  RST 38H
4144   1C1C FF                  RST 38H
4145   1C1D FF                  RST 38H
4146   1C1E FF                  RST 38H
4147   1C1F FF                  RST 38H
4148   1C20 FF                  RST 38H
4149   1C21 FF                  RST 38H
4150   1C22 FF                  RST 38H
4151   1C23 FF                  RST 38H
4152   1C24 FF                  RST 38H
4153   1C25 FF                  RST 38H
4154   1C26 FF                  RST 38H
4155   1C27 FF                  RST 38H
4156   1C28 FF                  RST 38H
4157   1C29 FF                  RST 38H
4158   1C2A FF                  RST 38H
4159   1C2B FF                  RST 38H
4160   1C2C FF                  RST 38H
4161   1C2D FF                  RST 38H
4162   1C2E FF                  RST 38H
4163   1C2F FF                  RST 38H
4164   1C30 FF                  RST 38H
4165   1C31 FF                  RST 38H
4166   1C32 FF                  RST 38H
4167   1C33 FF                  RST 38H
4168   1C34 FF                  RST 38H
4169   1C35 FF                  RST 38H
4170   1C36 FF                  RST 38H
4171   1C37 FF                  RST 38H
4172   1C38 FF                  RST 38H
4173   1C39 FF                  RST 38H
4174   1C3A FF                  RST 38H
4175   1C3B FF                  RST 38H
4176   1C3C FF                  RST 38H
4177   1C3D FF                  RST 38H
4178   1C3E FF                  RST 38H
4179   1C3F FF                  RST 38H
4180   1C40 FF                  RST 38H
4181   1C41 FF                  RST 38H
4182   1C42 FF                  RST 38H
4183   1C43 FF                  RST 38H
4184   1C44 FF                  RST 38H
4185   1C45 FF                  RST 38H
4186   1C46 FF                  RST 38H
4187   1C47 FF                  RST 38H
4188   1C48 FF                  RST 38H
4189   1C49 FF                  RST 38H
4190   1C4A FF                  RST 38H
4191   1C4B FF                  RST 38H
4192   1C4C FF                  RST 38H
4193   1C4D FF                  RST 38H
4194   1C4E FF                  RST 38H
4195   1C4F FF                  RST 38H
4196   1C50 FF                  RST 38H
4197   1C51 FF                  RST 38H
4198   1C52 FF                  RST 38H
4199   1C53 FF                  RST 38H
4200   1C54 FF                  RST 38H
4201   1C55 FF                  RST 38H
4202   1C56 FF                  RST 38H
4203   1C57 FF                  RST 38H
4204   1C58 FF                  RST 38H
4205   1C59 FF                  RST 38H
4206   1C5A FF                  RST 38H
4207   1C5B FF                  RST 38H
4208   1C5C FF                  RST 38H
4209   1C5D FF                  RST 38H
4210   1C5E FF                  RST 38H
4211   1C5F FF                  RST 38H
4212   1C60 FF                  RST 38H
4213   1C61 FF                  RST 38H
4214   1C62 FF                  RST 38H
4215   1C63 FF                  RST 38H
4216   1C64 FF                  RST 38H
4217   1C65 FF                  RST 38H
4218   1C66 FF                  RST 38H
4219   1C67 FF                  RST 38H
4220   1C68 FF                  RST 38H
4221   1C69 FF                  RST 38H
4222   1C6A FF                  RST 38H
4223   1C6B FF                  RST 38H
4224   1C6C FF                  RST 38H
4225   1C6D FF                  RST 38H
4226   1C6E FF                  RST 38H
4227   1C6F FF                  RST 38H
4228   1C70 FF                  RST 38H
4229   1C71 FF                  RST 38H
4230   1C72 FF                  RST 38H
4231   1C73 FF                  RST 38H
4232   1C74 FF                  RST 38H
4233   1C75 FF                  RST 38H
4234   1C76 FF                  RST 38H
4235   1C77 FF                  RST 38H
4236   1C78 FF          L0007:  RST 38H
4237   1C79 FF                  RST 38H
4238   1C7A FF                  RST 38H
4239   1C7B FF                  RST 38H
4240   1C7C FF                  RST 38H
4241   1C7D FF                  RST 38H
4242   1C7E FF                  RST 38H
4243   1C7F FF                  RST 38H
4244   1C80 FF                  RST 38H
4245   1C81 FF                  RST 38H
4246   1C82 FF                  RST 38H
4247   1C83 FF                  RST 38H
4248   1C84 FF                  RST 38H
4249   1C85 FF                  RST 38H
4250   1C86 FF                  RST 38H
4251   1C87 FF                  RST 38H
4252   1C88 FF                  RST 38H
4253   1C89 FF                  RST 38H
4254   1C8A FF                  RST 38H
4255   1C8B FF                  RST 38H
4256   1C8C FF                  RST 38H
4257   1C8D FF                  RST 38H
4258   1C8E FF                  RST 38H
4259   1C8F FF                  RST 38H
4260   1C90 FF                  RST 38H
4261   1C91 FF                  RST 38H
4262   1C92 FF                  RST 38H
4263   1C93 FF                  RST 38H
4264   1C94 FF                  RST 38H
4265   1C95 FF                  RST 38H
4266   1C96 FF                  RST 38H
4267   1C97 FF                  RST 38H
4268   1C98 FF                  RST 38H
4269   1C99 FF                  RST 38H
4270   1C9A FF                  RST 38H
4271   1C9B FF                  RST 38H
4272   1C9C FF                  RST 38H
4273   1C9D FF                  RST 38H
4274   1C9E FF                  RST 38H
4275   1C9F FF                  RST 38H
4276   1CA0 FF                  RST 38H
4277   1CA1 FF                  RST 38H
4278   1CA2 FF                  RST 38H
4279   1CA3 FF                  RST 38H
4280   1CA4 FF                  RST 38H
4281   1CA5 FF                  RST 38H
4282   1CA6 FF                  RST 38H
4283   1CA7 FF                  RST 38H
4284   1CA8 FF                  RST 38H
4285   1CA9 FF                  RST 38H
4286   1CAA FF                  RST 38H
4287   1CAB FF                  RST 38H
4288   1CAC FF                  RST 38H
4289   1CAD FF                  RST 38H
4290   1CAE FF                  RST 38H
4291   1CAF FF                  RST 38H
4292   1CB0 FF                  RST 38H
4293   1CB1 FF                  RST 38H
4294   1CB2 FF                  RST 38H
4295   1CB3 FF                  RST 38H
4296   1CB4 FF                  RST 38H
4297   1CB5 FF                  RST 38H
4298   1CB6 FF                  RST 38H
4299   1CB7 FF                  RST 38H
4300   1CB8 FF                  RST 38H
4301   1CB9 FF                  RST 38H
4302   1CBA FF                  RST 38H
4303   1CBB FF                  RST 38H
4304   1CBC FF                  RST 38H
4305   1CBD FF                  RST 38H
4306   1CBE FF                  RST 38H
4307   1CBF FF                  RST 38H
4308   1CC0 FF                  RST 38H
4309   1CC1 FF                  RST 38H
4310   1CC2 FF                  RST 38H
4311   1CC3 FF                  RST 38H
4312   1CC4 FF                  RST 38H
4313   1CC5 FF                  RST 38H
4314   1CC6 FF                  RST 38H
4315   1CC7 FF                  RST 38H
4316   1CC8 FF                  RST 38H
4317   1CC9 FF                  RST 38H
4318   1CCA FF                  RST 38H
4319   1CCB FF                  RST 38H
4320   1CCC FF          L0217:  RST 38H
4321   1CCD FF                  RST 38H
4322   1CCE FF                  RST 38H
4323   1CCF FF                  RST 38H
4324   1CD0 FF                  RST 38H
4325   1CD1 FF                  RST 38H
4326   1CD2 FF                  RST 38H
4327   1CD3 FF                  RST 38H
4328   1CD4 FF                  RST 38H
4329   1CD5 FF                  RST 38H
4330   1CD6 FF                  RST 38H
4331   1CD7 FF                  RST 38H
4332   1CD8 FF                  RST 38H
4333   1CD9 FF                  RST 38H
4334   1CDA FF                  RST 38H
4335   1CDB FF                  RST 38H
4336   1CDC FF                  RST 38H
4337   1CDD FF                  RST 38H
4338   1CDE FF                  RST 38H
4339   1CDF FF                  RST 38H
4340   1CE0 FF                  RST 38H
4341   1CE1 FF                  RST 38H
4342   1CE2 FF                  RST 38H
4343   1CE3 FF                  RST 38H
4344   1CE4 FF                  RST 38H
4345   1CE5 FF                  RST 38H
4346   1CE6 FF                  RST 38H
4347   1CE7 FF                  RST 38H
4348   1CE8 FF                  RST 38H
4349   1CE9 FF                  RST 38H
4350   1CEA FF                  RST 38H
4351   1CEB FF                  RST 38H
4352   1CEC FF                  RST 38H
4353   1CED FF                  RST 38H
4354   1CEE FF                  RST 38H
4355   1CEF FF                  RST 38H
4356   1CF0 FF                  RST 38H
4357   1CF1 FF                  RST 38H
4358   1CF2 FF                  RST 38H
4359   1CF3 FF                  RST 38H
4360   1CF4 FF                  RST 38H
4361   1CF5 FF                  RST 38H
4362   1CF6 FF                  RST 38H
4363   1CF7 FF                  RST 38H
4364   1CF8 FF                  RST 38H
4365   1CF9 FF                  RST 38H
4366   1CFA FF                  RST 38H
4367   1CFB FF                  RST 38H
4368   1CFC FF                  RST 38H
4369   1CFD FF                  RST 38H
4370   1CFE FF                  RST 38H
4371   1CFF FF                  RST 38H
4372   1D00 FF                  RST 38H
4373   1D01 FF                  RST 38H
4374   1D02 FF                  RST 38H
4375   1D03 FF                  RST 38H
4376   1D04 FF                  RST 38H
4377   1D05 FF                  RST 38H
4378   1D06 FF                  RST 38H
4379   1D07 FF                  RST 38H
4380   1D08 FF                  RST 38H
4381   1D09 FF                  RST 38H
4382   1D0A FF                  RST 38H
4383   1D0B FF                  RST 38H
4384   1D0C FF                  RST 38H
4385   1D0D FF                  RST 38H
4386   1D0E FF                  RST 38H
4387   1D0F FF                  RST 38H
4388   1D10 FF                  RST 38H
4389   1D11 FF                  RST 38H
4390   1D12 FF                  RST 38H
4391   1D13 FF                  RST 38H
4392   1D14 FF                  RST 38H
4393   1D15 FF                  RST 38H
4394   1D16 FF                  RST 38H
4395   1D17 FF                  RST 38H
4396   1D18 FF                  RST 38H
4397   1D19 FF                  RST 38H
4398   1D1A FF                  RST 38H
4399   1D1B FF                  RST 38H
4400   1D1C FF                  RST 38H
4401   1D1D FF                  RST 38H
4402   1D1E FF                  RST 38H
4403   1D1F FF                  RST 38H
4404   1D20 FF                  RST 38H
4405   1D21 FF                  RST 38H
4406   1D22 FF                  RST 38H
4407   1D23 FF                  RST 38H
4408   1D24 FF                  RST 38H
4409   1D25 FF                  RST 38H
4410   1D26 FF                  RST 38H
4411   1D27 FF                  RST 38H
4412   1D28 FF                  RST 38H
4413   1D29 FF                  RST 38H
4414   1D2A FF                  RST 38H
4415   1D2B FF                  RST 38H
4416   1D2C FF                  RST 38H
4417   1D2D FF                  RST 38H
4418   1D2E FF                  RST 38H
4419   1D2F FF                  RST 38H
4420   1D30 FF                  RST 38H
4421   1D31 FF                  RST 38H
4422   1D32 FF                  RST 38H
4423   1D33 FF                  RST 38H
4424   1D34 FF                  RST 38H
4425   1D35 FF                  RST 38H
4426   1D36 FF                  RST 38H
4427   1D37 FF                  RST 38H
4428   1D38 FF                  RST 38H
4429   1D39 FF                  RST 38H
4430   1D3A FF                  RST 38H
4431   1D3B FF                  RST 38H
4432   1D3C FF                  RST 38H
4433   1D3D FF                  RST 38H
4434   1D3E FF                  RST 38H
4435   1D3F FF                  RST 38H
4436   1D40 FF                  RST 38H
4437   1D41 FF                  RST 38H
4438   1D42 FF                  RST 38H
4439   1D43 FF                  RST 38H
4440   1D44 FF                  RST 38H
4441   1D45 FF                  RST 38H
4442   1D46 FF                  RST 38H
4443   1D47 FF                  RST 38H
4444   1D48 FF                  RST 38H
4445   1D49 FF                  RST 38H
4446   1D4A FF                  RST 38H
4447   1D4B FF                  RST 38H
4448   1D4C FF                  RST 38H
4449   1D4D FF                  RST 38H
4450   1D4E FF                  RST 38H
4451   1D4F FF                  RST 38H
4452   1D50 FF                  RST 38H
4453   1D51 FF                  RST 38H
4454   1D52 FF                  RST 38H
4455   1D53 FF                  RST 38H
4456   1D54 FF                  RST 38H
4457   1D55 FF                  RST 38H
4458   1D56 FF                  RST 38H
4459   1D57 FF                  RST 38H
4460   1D58 FF                  RST 38H
4461   1D59 FF                  RST 38H
4462   1D5A FF                  RST 38H
4463   1D5B FF                  RST 38H
4464   1D5C FF                  RST 38H
4465   1D5D FF                  RST 38H
4466   1D5E FF                  RST 38H
4467   1D5F FF                  RST 38H
4468   1D60 FF                  RST 38H
4469   1D61 FF                  RST 38H
4470   1D62 FF                  RST 38H
4471   1D63 FF                  RST 38H
4472   1D64 FF                  RST 38H
4473   1D65 FF                  RST 38H
4474   1D66 FF                  RST 38H
4475   1D67 FF                  RST 38H
4476   1D68 FF                  RST 38H
4477   1D69 FF                  RST 38H
4478   1D6A FF                  RST 38H
4479   1D6B FF                  RST 38H
4480   1D6C FF                  RST 38H
4481   1D6D FF          L0088:  RST 38H
4482   1D6E FF                  RST 38H
4483   1D6F FF                  RST 38H
4484   1D70 FF                  RST 38H
4485   1D71 FF                  RST 38H
4486   1D72 FF                  RST 38H
4487   1D73 FF                  RST 38H
4488   1D74 FF                  RST 38H
4489   1D75 FF                  RST 38H
4490   1D76 FF                  RST 38H
4491   1D77 FF                  RST 38H
4492   1D78 FF                  RST 38H
4493   1D79 FF                  RST 38H
4494   1D7A FF                  RST 38H
4495   1D7B FF                  RST 38H
4496   1D7C FF                  RST 38H
4497   1D7D FF                  RST 38H
4498   1D7E FF                  RST 38H
4499   1D7F FF          L0006:  RST 38H
4500   1D80 FF                  RST 38H
4501   1D81 FF                  RST 38H
4502   1D82 FF                  RST 38H
4503   1D83 FF                  RST 38H
4504   1D84 FF                  RST 38H
4505   1D85 FF                  RST 38H
4506   1D86 FF                  RST 38H
4507   1D87 FF                  RST 38H
4508   1D88 FF                  RST 38H
4509   1D89 FF                  RST 38H
4510   1D8A FF                  RST 38H
4511   1D8B FF                  RST 38H
4512   1D8C FF                  RST 38H
4513   1D8D FF                  RST 38H
4514   1D8E FF                  RST 38H
4515   1D8F FF                  RST 38H
4516   1D90 FF                  RST 38H
4517   1D91 FF                  RST 38H
4518   1D92 FF                  RST 38H
4519   1D93 FF                  RST 38H
4520   1D94 FF                  RST 38H
4521   1D95 FF                  RST 38H
4522   1D96 FF                  RST 38H
4523   1D97 FF                  RST 38H
4524   1D98 FF                  RST 38H
4525   1D99 FF                  RST 38H
4526   1D9A FF                  RST 38H
4527   1D9B FF                  RST 38H
4528   1D9C FF                  RST 38H
4529   1D9D FF                  RST 38H
4530   1D9E FF                  RST 38H
4531   1D9F FF                  RST 38H
4532   1DA0 FF                  RST 38H
4533   1DA1 FF                  RST 38H
4534   1DA2 FF                  RST 38H
4535   1DA3 FF                  RST 38H
4536   1DA4 FF                  RST 38H
4537   1DA5 FF                  RST 38H
4538   1DA6 FF                  RST 38H
4539   1DA7 FF                  RST 38H
4540   1DA8 FF                  RST 38H
4541   1DA9 FF                  RST 38H
4542   1DAA FF                  RST 38H
4543   1DAB FF                  RST 38H
4544   1DAC FF                  RST 38H
4545   1DAD FF                  RST 38H
4546   1DAE FF                  RST 38H
4547   1DAF FF                  RST 38H
4548   1DB0 FF                  RST 38H
4549   1DB1 FF                  RST 38H
4550   1DB2 FF                  RST 38H
4551   1DB3 FF                  RST 38H
4552   1DB4 FF                  RST 38H
4553   1DB5 FF                  RST 38H
4554   1DB6 FF                  RST 38H
4555   1DB7 FF                  RST 38H
4556   1DB8 FF                  RST 38H
4557   1DB9 FF                  RST 38H
4558   1DBA FF                  RST 38H
4559   1DBB FF                  RST 38H
4560   1DBC FF                  RST 38H
4561   1DBD FF                  RST 38H
4562   1DBE FF                  RST 38H
4563   1DBF FF                  RST 38H
4564   1DC0 FF                  RST 38H
4565   1DC1 FF                  RST 38H
4566   1DC2 FF                  RST 38H
4567   1DC3 FF                  RST 38H
4568   1DC4 FF                  RST 38H
4569   1DC5 FF                  RST 38H
4570   1DC6 FF                  RST 38H
4571   1DC7 FF                  RST 38H
4572   1DC8 FF                  RST 38H
4573   1DC9 FF                  RST 38H
4574   1DCA FF                  RST 38H
4575   1DCB FF                  RST 38H
4576   1DCC FF                  RST 38H
4577   1DCD FF                  RST 38H
4578   1DCE FF                  RST 38H
4579   1DCF FF                  RST 38H
4580   1DD0 FF                  RST 38H
4581   1DD1 FF                  RST 38H
4582   1DD2 FF                  RST 38H
4583   1DD3 FF                  RST 38H
4584   1DD4 FF                  RST 38H
4585   1DD5 FF                  RST 38H
4586   1DD6 FF                  RST 38H
4587   1DD7 FF                  RST 38H
4588   1DD8 FF                  RST 38H
4589   1DD9 FF                  RST 38H
4590   1DDA FF                  RST 38H
4591   1DDB FF                  RST 38H
4592   1DDC FF                  RST 38H
4593   1DDD FF                  RST 38H
4594   1DDE FF                  RST 38H
4595   1DDF FF                  RST 38H
4596   1DE0 FF                  RST 38H
4597   1DE1 FF                  RST 38H
4598   1DE2 FF                  RST 38H
4599   1DE3 FF                  RST 38H
4600   1DE4 FF                  RST 38H
4601   1DE5 FF                  RST 38H
4602   1DE6 FF                  RST 38H
4603   1DE7 FF                  RST 38H
4604   1DE8 FF                  RST 38H
4605   1DE9 FF                  RST 38H
4606   1DEA FF                  RST 38H
4607   1DEB FF                  RST 38H
4608   1DEC FF                  RST 38H
4609   1DED FF                  RST 38H
4610   1DEE FF                  RST 38H
4611   1DEF FF                  RST 38H
4612   1DF0 FF                  RST 38H
4613   1DF1 FF                  RST 38H
4614   1DF2 FF                  RST 38H
4615   1DF3 FF                  RST 38H
4616   1DF4 FF                  RST 38H
4617   1DF5 FF                  RST 38H
4618   1DF6 FF                  RST 38H
4619   1DF7 FF                  RST 38H
4620   1DF8 FF                  RST 38H
4621   1DF9 FF                  RST 38H
4622   1DFA FF                  RST 38H
4623   1DFB FF                  RST 38H
4624   1DFC FF                  RST 38H
4625   1DFD FF                  RST 38H
4626   1DFE FF                  RST 38H
4627   1DFF FF                  RST 38H
4628   1E00 FF                  RST 38H
4629   1E01 FF                  RST 38H
4630   1E02 FF                  RST 38H
4631   1E03 FF                  RST 38H
4632   1E04 FF                  RST 38H
4633   1E05 FF                  RST 38H
4634   1E06 FF                  RST 38H
4635   1E07 FF                  RST 38H
4636   1E08 FF                  RST 38H
4637   1E09 FF                  RST 38H
4638   1E0A FF                  RST 38H
4639   1E0B FF                  RST 38H
4640   1E0C FF                  RST 38H
4641   1E0D FF                  RST 38H
4642   1E0E FF                  RST 38H
4643   1E0F FF                  RST 38H
4644   1E10 FF                  RST 38H
4645   1E11 FF                  RST 38H
4646   1E12 FF                  RST 38H
4647   1E13 FF                  RST 38H
4648   1E14 FF                  RST 38H
4649   1E15 FF                  RST 38H
4650   1E16 FF                  RST 38H
4651   1E17 FF                  RST 38H
4652   1E18 FF                  RST 38H
4653   1E19 FF                  RST 38H
4654   1E1A FF                  RST 38H
4655   1E1B FF                  RST 38H
4656   1E1C FF                  RST 38H
4657   1E1D FF                  RST 38H
4658   1E1E FF                  RST 38H
4659   1E1F FF                  RST 38H
4660   1E20 FF                  RST 38H
4661   1E21 FF                  RST 38H
4662   1E22 FF                  RST 38H
4663   1E23 FF                  RST 38H
4664   1E24 FF                  RST 38H
4665   1E25 FF                  RST 38H
4666   1E26 FF                  RST 38H
4667   1E27 FF                  RST 38H
4668   1E28 FF                  RST 38H
4669   1E29 FF                  RST 38H
4670   1E2A FF                  RST 38H
4671   1E2B FF                  RST 38H
4672   1E2C FF                  RST 38H
4673   1E2D FF                  RST 38H
4674   1E2E FF                  RST 38H
4675   1E2F FF                  RST 38H
4676   1E30 FF                  RST 38H
4677   1E31 FF                  RST 38H
4678   1E32 FF                  RST 38H
4679   1E33 FF                  RST 38H
4680   1E34 FF                  RST 38H
4681   1E35 FF                  RST 38H
4682   1E36 FF                  RST 38H
4683   1E37 FF                  RST 38H
4684   1E38 FF                  RST 38H
4685   1E39 FF                  RST 38H
4686   1E3A FF                  RST 38H
4687   1E3B FF                  RST 38H
4688   1E3C FF                  RST 38H
4689   1E3D FF                  RST 38H
4690   1E3E FF                  RST 38H
4691   1E3F FF                  RST 38H
4692   1E40 FF                  RST 38H
4693   1E41 FF                  RST 38H
4694   1E42 FF                  RST 38H
4695   1E43 FF                  RST 38H
4696   1E44 FF                  RST 38H
4697   1E45 FF                  RST 38H
4698   1E46 FF                  RST 38H
4699   1E47 FF                  RST 38H
4700   1E48 FF                  RST 38H
4701   1E49 FF                  RST 38H
4702   1E4A FF                  RST 38H
4703   1E4B FF                  RST 38H
4704   1E4C FF                  RST 38H
4705   1E4D FF                  RST 38H
4706   1E4E FF                  RST 38H
4707   1E4F FF                  RST 38H
4708   1E50 FF                  RST 38H
4709   1E51 FF                  RST 38H
4710   1E52 FF                  RST 38H
4711   1E53 FF                  RST 38H
4712   1E54 FF                  RST 38H
4713   1E55 FF                  RST 38H
4714   1E56 FF                  RST 38H
4715   1E57 FF                  RST 38H
4716   1E58 FF                  RST 38H
4717   1E59 FF                  RST 38H
4718   1E5A FF                  RST 38H
4719   1E5B FF                  RST 38H
4720   1E5C FF                  RST 38H
4721   1E5D FF                  RST 38H
4722   1E5E FF                  RST 38H
4723   1E5F FF                  RST 38H
4724   1E60 FF                  RST 38H
4725   1E61 FF                  RST 38H
4726   1E62 FF                  RST 38H
4727   1E63 FF                  RST 38H
4728   1E64 FF                  RST 38H
4729   1E65 FF                  RST 38H
4730   1E66 FF                  RST 38H
4731   1E67 FF                  RST 38H
4732   1E68 FF                  RST 38H
4733   1E69 FF                  RST 38H
4734   1E6A FF                  RST 38H
4735   1E6B FF                  RST 38H
4736   1E6C FF                  RST 38H
4737   1E6D FF                  RST 38H
4738   1E6E FF                  RST 38H
4739   1E6F FF                  RST 38H
4740   1E70 FF                  RST 38H
4741   1E71 FF                  RST 38H
4742   1E72 FF                  RST 38H
4743   1E73 FF                  RST 38H
4744   1E74 FF                  RST 38H
4745   1E75 FF                  RST 38H
4746   1E76 FF                  RST 38H
4747   1E77 FF                  RST 38H
4748   1E78 FF                  RST 38H
4749   1E79 FF                  RST 38H
4750   1E7A FF                  RST 38H
4751   1E7B FF                  RST 38H
4752   1E7C FF                  RST 38H
4753   1E7D FF                  RST 38H
4754   1E7E FF                  RST 38H
4755   1E7F FF                  RST 38H
4756   1E80 FF                  RST 38H
4757   1E81 FF                  RST 38H
4758   1E82 FF                  RST 38H
4759   1E83 FF                  RST 38H
4760   1E84 FF                  RST 38H
4761   1E85 FF                  RST 38H
4762   1E86 FF                  RST 38H
4763   1E87 FF                  RST 38H
4764   1E88 FF                  RST 38H
4765   1E89 FF                  RST 38H
4766   1E8A FF                  RST 38H
4767   1E8B FF                  RST 38H
4768   1E8C FF                  RST 38H
4769   1E8D FF                  RST 38H
4770   1E8E FF                  RST 38H
4771   1E8F FF                  RST 38H
4772   1E90 FF                  RST 38H
4773   1E91 FF                  RST 38H
4774   1E92 FF                  RST 38H
4775   1E93 FF                  RST 38H
4776   1E94 FF                  RST 38H
4777   1E95 FF                  RST 38H
4778   1E96 FF                  RST 38H
4779   1E97 FF                  RST 38H
4780   1E98 FF                  RST 38H
4781   1E99 FF                  RST 38H
4782   1E9A FF                  RST 38H
4783   1E9B FF                  RST 38H
4784   1E9C FF                  RST 38H
4785   1E9D FF                  RST 38H
4786   1E9E FF                  RST 38H
4787   1E9F FF                  RST 38H
4788   1EA0 FF                  RST 38H
4789   1EA1 FF                  RST 38H
4790   1EA2 FF                  RST 38H
4791   1EA3 FF                  RST 38H
4792   1EA4 FF                  RST 38H
4793   1EA5 FF                  RST 38H
4794   1EA6 FF                  RST 38H
4795   1EA7 FF                  RST 38H
4796   1EA8 FF                  RST 38H
4797   1EA9 FF                  RST 38H
4798   1EAA FF                  RST 38H
4799   1EAB FF                  RST 38H
4800   1EAC FF                  RST 38H
4801   1EAD FF                  RST 38H
4802   1EAE FF                  RST 38H
4803   1EAF FF                  RST 38H
4804   1EB0 FF                  RST 38H
4805   1EB1 FF                  RST 38H
4806   1EB2 FF                  RST 38H
4807   1EB3 FF                  RST 38H
4808   1EB4 FF                  RST 38H
4809   1EB5 FF                  RST 38H
4810   1EB6 FF                  RST 38H
4811   1EB7 FF                  RST 38H
4812   1EB8 FF                  RST 38H
4813   1EB9 FF                  RST 38H
4814   1EBA FF                  RST 38H
4815   1EBB FF                  RST 38H
4816   1EBC FF                  RST 38H
4817   1EBD FF                  RST 38H
4818   1EBE FF                  RST 38H
4819   1EBF FF                  RST 38H
4820   1EC0 FF                  RST 38H
4821   1EC1 FF                  RST 38H
4822   1EC2 FF                  RST 38H
4823   1EC3 FF                  RST 38H
4824   1EC4 FF                  RST 38H
4825   1EC5 FF                  RST 38H
4826   1EC6 FF                  RST 38H
4827   1EC7 FF                  RST 38H
4828   1EC8 FF                  RST 38H
4829   1EC9 FF                  RST 38H
4830   1ECA FF                  RST 38H
4831   1ECB FF                  RST 38H
4832   1ECC FF                  RST 38H
4833   1ECD FF                  RST 38H
4834   1ECE FF                  RST 38H
4835   1ECF FF                  RST 38H
4836   1ED0 FF                  RST 38H
4837   1ED1 FF                  RST 38H
4838   1ED2 FF                  RST 38H
4839   1ED3 FF                  RST 38H
4840   1ED4 FF                  RST 38H
4841   1ED5 FF                  RST 38H
4842   1ED6 FF                  RST 38H
4843   1ED7 FF                  RST 38H
4844   1ED8 FF                  RST 38H
4845   1ED9 FF                  RST 38H
4846   1EDA FF                  RST 38H
4847   1EDB FF                  RST 38H
4848   1EDC FF                  RST 38H
4849   1EDD FF                  RST 38H
4850   1EDE FF                  RST 38H
4851   1EDF FF                  RST 38H
4852   1EE0 FF                  RST 38H
4853   1EE1 FF                  RST 38H
4854   1EE2 FF                  RST 38H
4855   1EE3 FF                  RST 38H
4856   1EE4 FF                  RST 38H
4857   1EE5 FF                  RST 38H
4858   1EE6 FF                  RST 38H
4859   1EE7 FF                  RST 38H
4860   1EE8 FF                  RST 38H
4861   1EE9 FF                  RST 38H
4862   1EEA FF                  RST 38H
4863   1EEB FF                  RST 38H
4864   1EEC FF                  RST 38H
4865   1EED FF                  RST 38H
4866   1EEE FF                  RST 38H
4867   1EEF FF                  RST 38H
4868   1EF0 FF                  RST 38H
4869   1EF1 FF                  RST 38H
4870   1EF2 FF                  RST 38H
4871   1EF3 FF                  RST 38H
4872   1EF4 FF                  RST 38H
4873   1EF5 FF                  RST 38H
4874   1EF6 FF                  RST 38H
4875   1EF7 FF                  RST 38H
4876   1EF8 FF                  RST 38H
4877   1EF9 FF                  RST 38H
4878   1EFA FF                  RST 38H
4879   1EFB FF                  RST 38H
4880   1EFC FF                  RST 38H
4881   1EFD FF                  RST 38H
4882   1EFE FF                  RST 38H
4883   1EFF FF                  RST 38H
4884   1F00 FF                  RST 38H
4885   1F01 FF                  RST 38H
4886   1F02 FF                  RST 38H
4887   1F03 FF                  RST 38H
4888   1F04 FF                  RST 38H
4889   1F05 FF                  RST 38H
4890   1F06 FF                  RST 38H
4891   1F07 FF                  RST 38H
4892   1F08 FF                  RST 38H
4893   1F09 FF                  RST 38H
4894   1F0A FF                  RST 38H
4895   1F0B FF                  RST 38H
4896   1F0C FF                  RST 38H
4897   1F0D FF                  RST 38H
4898   1F0E FF                  RST 38H
4899   1F0F FF                  RST 38H
4900   1F10 FF                  RST 38H
4901   1F11 FF                  RST 38H
4902   1F12 FF                  RST 38H
4903   1F13 FF                  RST 38H
4904   1F14 FF                  RST 38H
4905   1F15 FF                  RST 38H
4906   1F16 FF                  RST 38H
4907   1F17 FF                  RST 38H
4908   1F18 FF                  RST 38H
4909   1F19 FF                  RST 38H
4910   1F1A FF                  RST 38H
4911   1F1B FF                  RST 38H
4912   1F1C FF                  RST 38H
4913   1F1D FF                  RST 38H
4914   1F1E FF                  RST 38H
4915   1F1F FF                  RST 38H
4916   1F20 FF                  RST 38H
4917   1F21 FF                  RST 38H
4918   1F22 FF                  RST 38H
4919   1F23 FF                  RST 38H
4920   1F24 FF                  RST 38H
4921   1F25 FF                  RST 38H
4922   1F26 FF                  RST 38H
4923   1F27 FF                  RST 38H
4924   1F28 FF                  RST 38H
4925   1F29 FF                  RST 38H
4926   1F2A FF                  RST 38H
4927   1F2B FF                  RST 38H
4928   1F2C FF                  RST 38H
4929   1F2D FF                  RST 38H
4930   1F2E FF                  RST 38H
4931   1F2F FF                  RST 38H
4932   1F30 FF                  RST 38H
4933   1F31 FF                  RST 38H
4934   1F32 FF                  RST 38H
4935   1F33 FF                  RST 38H
4936   1F34 FF                  RST 38H
4937   1F35 FF                  RST 38H
4938   1F36 FF                  RST 38H
4939   1F37 FF                  RST 38H
4940   1F38 FF                  RST 38H
4941   1F39 FF                  RST 38H
4942   1F3A FF                  RST 38H
4943   1F3B FF                  RST 38H
4944   1F3C FF                  RST 38H
4945   1F3D FF                  RST 38H
4946   1F3E FF                  RST 38H
4947   1F3F FF                  RST 38H
4948   1F40 FF                  RST 38H
4949   1F41 FF                  RST 38H
4950   1F42 FF                  RST 38H
4951   1F43 FF                  RST 38H
4952   1F44 FF                  RST 38H
4953   1F45 FF                  RST 38H
4954   1F46 FF                  RST 38H
4955   1F47 FF                  RST 38H
4956   1F48 FF                  RST 38H
4957   1F49 FF                  RST 38H
4958   1F4A FF                  RST 38H
4959   1F4B FF                  RST 38H
4960   1F4C FF                  RST 38H
4961   1F4D FF                  RST 38H
4962   1F4E FF                  RST 38H
4963   1F4F FF                  RST 38H
4964   1F50 FF                  RST 38H
4965   1F51 FF                  RST 38H
4966   1F52 FF                  RST 38H
4967   1F53 FF                  RST 38H
4968   1F54 FF                  RST 38H
4969   1F55 FF                  RST 38H
4970   1F56 FF                  RST 38H
4971   1F57 FF                  RST 38H
4972   1F58 FF                  RST 38H
4973   1F59 FF                  RST 38H
4974   1F5A FF                  RST 38H
4975   1F5B FF                  RST 38H
4976   1F5C FF                  RST 38H
4977   1F5D FF                  RST 38H
4978   1F5E FF                  RST 38H
4979   1F5F FF                  RST 38H
4980   1F60 FF                  RST 38H
4981   1F61 FF                  RST 38H
4982   1F62 FF                  RST 38H
4983   1F63 FF                  RST 38H
4984   1F64 FF                  RST 38H
4985   1F65 FF                  RST 38H
4986   1F66 FF                  RST 38H
4987   1F67 FF                  RST 38H
4988   1F68 FF                  RST 38H
4989   1F69 FF                  RST 38H
4990   1F6A FF                  RST 38H
4991   1F6B FF                  RST 38H
4992   1F6C FF                  RST 38H
4993   1F6D FF                  RST 38H
4994   1F6E FF                  RST 38H
4995   1F6F FF                  RST 38H
4996   1F70 FF                  RST 38H
4997   1F71 FF                  RST 38H
4998   1F72 FF                  RST 38H
4999   1F73 FF                  RST 38H
5000   1F74 FF                  RST 38H
5001   1F75 FF                  RST 38H
5002   1F76 FF                  RST 38H
5003   1F77 FF                  RST 38H
5004   1F78 FF                  RST 38H
5005   1F79 FF                  RST 38H
5006   1F7A FF                  RST 38H
5007   1F7B FF                  RST 38H
5008   1F7C FF                  RST 38H
5009   1F7D FF                  RST 38H
5010   1F7E FF                  RST 38H
5011   1F7F FF                  RST 38H
5012   1F80 FF                  RST 38H
5013   1F81 FF                  RST 38H
5014   1F82 FF                  RST 38H
5015   1F83 FF                  RST 38H
5016   1F84 FF                  RST 38H
5017   1F85 FF                  RST 38H
5018   1F86 FF                  RST 38H
5019   1F87 FF                  RST 38H
5020   1F88 FF                  RST 38H
5021   1F89 FF                  RST 38H
5022   1F8A FF                  RST 38H
5023   1F8B FF                  RST 38H
5024   1F8C FF                  RST 38H
5025   1F8D FF                  RST 38H
5026   1F8E FF                  RST 38H
5027   1F8F FF                  RST 38H
5028   1F90 FF                  RST 38H
5029   1F91 FF                  RST 38H
5030   1F92 FF                  RST 38H
5031   1F93 FF                  RST 38H
5032   1F94 FF                  RST 38H
5033   1F95 FF                  RST 38H
5034   1F96 FF                  RST 38H
5035   1F97 FF                  RST 38H
5036   1F98 FF                  RST 38H
5037   1F99 FF                  RST 38H
5038   1F9A FF                  RST 38H
5039   1F9B FF                  RST 38H
5040   1F9C FF                  RST 38H
5041   1F9D FF                  RST 38H
5042   1F9E FF                  RST 38H
5043   1F9F FF                  RST 38H
5044   1FA0 FF                  RST 38H
5045   1FA1 FF                  RST 38H
5046   1FA2 FF                  RST 38H
5047   1FA3 FF                  RST 38H
5048   1FA4 FF                  RST 38H
5049   1FA5 FF                  RST 38H
5050   1FA6 FF                  RST 38H
5051   1FA7 FF                  RST 38H
5052   1FA8 FF                  RST 38H
5053   1FA9 FF                  RST 38H
5054   1FAA FF                  RST 38H
5055   1FAB FF                  RST 38H
5056   1FAC FF                  RST 38H
5057   1FAD FF                  RST 38H
5058   1FAE FF                  RST 38H
5059   1FAF FF                  RST 38H
5060   1FB0 FF                  RST 38H
5061   1FB1 FF                  RST 38H
5062   1FB2 FF                  RST 38H
5063   1FB3 FF                  RST 38H
5064   1FB4 FF                  RST 38H
5065   1FB5 FF                  RST 38H
5066   1FB6 FF                  RST 38H
5067   1FB7 FF                  RST 38H
5068   1FB8 FF                  RST 38H
5069   1FB9 FF                  RST 38H
5070   1FBA FF                  RST 38H
5071   1FBB FF                  RST 38H
5072   1FBC FF                  RST 38H
5073   1FBD FF                  RST 38H
5074   1FBE FF                  RST 38H
5075   1FBF FF                  RST 38H
5076   1FC0 FF                  RST 38H
5077   1FC1 FF                  RST 38H
5078   1FC2 FF                  RST 38H
5079   1FC3 FF                  RST 38H
5080   1FC4 FF                  RST 38H
5081   1FC5 FF                  RST 38H
5082   1FC6 FF                  RST 38H
5083   1FC7 FF                  RST 38H
5084   1FC8 FF                  RST 38H
5085   1FC9 FF                  RST 38H
5086   1FCA FF                  RST 38H
5087   1FCB FF                  RST 38H
5088   1FCC FF                  RST 38H
5089   1FCD FF                  RST 38H
5090   1FCE FF                  RST 38H
5091   1FCF FF                  RST 38H
5092   1FD0 FF                  RST 38H
5093   1FD1 FF                  RST 38H
5094   1FD2 FF                  RST 38H
5095   1FD3 FF                  RST 38H
5096   1FD4 FF                  RST 38H
5097   1FD5 FF                  RST 38H
5098   1FD6 FF                  RST 38H
5099   1FD7 FF                  RST 38H
5100   1FD8 FF                  RST 38H
5101   1FD9 FF                  RST 38H
5102   1FDA FF                  RST 38H
5103   1FDB FF                  RST 38H
5104   1FDC FF                  RST 38H
5105   1FDD FF                  RST 38H
5106   1FDE FF                  RST 38H
5107   1FDF FF                  RST 38H
5108   1FE0 FF                  RST 38H
5109   1FE1 FF                  RST 38H
5110   1FE2 FF                  RST 38H
5111   1FE3 FF                  RST 38H
5112   1FE4 FF                  RST 38H
5113   1FE5 FF                  RST 38H
5114   1FE6 FF                  RST 38H
5115   1FE7 FF                  RST 38H
5116   1FE8 FF                  RST 38H
5117   1FE9 FF                  RST 38H
5118   1FEA FF                  RST 38H
5119   1FEB FF                  RST 38H
5120   1FEC FF                  RST 38H
5121   1FED FF                  RST 38H
5122   1FEE FF                  RST 38H
5123   1FEF FF                  RST 38H
5124   1FF0 FF                  RST 38H
5125   1FF1 FF                  RST 38H
5126   1FF2 FF                  RST 38H
5127   1FF3 FF                  RST 38H
5128   1FF4 FF                  RST 38H
5129   1FF5 FF                  RST 38H
5130   1FF6 FF                  RST 38H
5131   1FF7 FF                  RST 38H
5132   1FF8 FF                  RST 38H
5133   1FF9 FF                  RST 38H
5134   1FFA FF                  RST 38H
5135   1FFB FF                  RST 38H
5136   1FFC FF                  RST 38H
5137   1FFD FF                  RST 38H
5138   1FFE FF                  RST 38H
5139   1FFF FF                  RST 38H

---------------------------------------------
LIST OF LABELS
Sorted by address:      Sorted by name:
---------------------------------------------

L0009:  003D            L0001:  8013
L0008:  0082            L0002:  914D
L0010:  00A0            L0003:  8172
L0018:  0172            L0004:  18CB
L0020:  0188            L0005:  179E
L0021:  019B            L0006:  1D7F
L0027:  01FF            L0007:  1C78
L0028:  021C            L0008:  0082
L0031:  0278            L0009:  003D
L0035:  02DA            L0010:  00A0
L0036:  02E2            L0011:  813C
L0038:  0349            L0012:  17D1
L0041:  03E1            L0013:  0F29
L0042:  03F3            L0014:  1790
L0044:  0403            L0015:  81A1
L0022:  040E            L0016:  0F39
L0050:  045A            L0017:  0F5C
L0051:  0476            L0018:  0172
L0066:  04BD            L0019:  8181
L0064:  04CC            L0020:  0188
L0067:  04D6            L0021:  019B
L0068:  04EB            L0022:  040E
L0073:  04EE            L0023:  0F09
L0072:  0508            L0024:  824A
L0076:  051C            L0025:  0B94
L0074:  0523            L0026:  17C4
L0077:  052E            L0027:  01FF
L0082:  054E            L0028:  021C
L0080:  0579            L0029:  83E1
L0078:  0582            L0030:  8C92
L0084:  058F            L0031:  0278
L0083:  05A3            L0032:  1793
L0086:  05E7            L0033:  8404
L0091:  0602            L0034:  82DA
L0089:  0621            L0035:  02DA
L0092:  062F            L0036:  02E2
L0095:  064F            L0037:  8349
L0100:  0677            L0038:  0349
L0099:  0694            L0039:  17AF
L0108:  0747            L0040:  83E2
L0111:  0794            L0041:  03E1
L0110:  079F            L0042:  03F3
L0112:  07C6            L0043:  17A1
L0113:  07C9            L0044:  0403
L0116:  07EC            L0045:  8418
L0115:  080D            L0046:  91EA
L0114:  0819            L0047:  843A
L0117:  0840            L0048:  91E7
L0118:  0857            L0049:  0981
L0169:  0867            L0050:  045A
L0185:  0882            L0051:  0476
L0122:  0898            L0052:  8428
L0123:  08A4            L0053:  8434
L0125:  08BF            L0054:  842E
L0128:  0925            L0055:  1642
L0132:  0957            L0056:  8736
L0133:  096E            L0057:  15B2
L0049:  0981            L0058:  0B9C
L0138:  09E4            L0059:  0BA0
L0137:  09F7            L0060:  88C0
L0105:  0A24            L0061:  87D9
L0139:  0A25            L0062:  8975
L0140:  0AAD            L0063:  899F
L0142:  0AD2            L0064:  04CC
L0143:  0AEE            L0065:  88FB
L0145:  0B2A            L0066:  04BD
L0149:  0B60            L0067:  04D6
L0150:  0B85            L0068:  04EB
L0025:  0B94            L0069:  8899
L0058:  0B9C            L0070:  8928
L0059:  0BA0            L0071:  8939
L0094:  0BA4            L0072:  0508
L0126:  0BA8            L0073:  04EE
L0220:  0BB0            L0074:  0523
L0107:  0BB6            L0075:  0FE3
L0155:  0C31            L0076:  051C
L0156:  0C39            L0077:  052E
L0158:  0C44            L0078:  0582
L0159:  0C6E            L0079:  8875
L0160:  0C77            L0080:  0579
L0161:  0C8F            L0081:  8649
L0162:  0CAA            L0082:  054E
L0165:  0CCA            L0083:  05A3
L0166:  0CDA            L0084:  058F
L0168:  0CE8            L0085:  8515
L0170:  0D59            L0086:  05E7
L0173:  0D91            L0087:  871D
L0174:  0DA5            L0088:  1D6D
L0175:  0DB8            L0089:  0621
L0177:  0DD1            L0090:  87EB
L0172:  0DD8            L0091:  0602
L0178:  0DDF            L0092:  062F
L0181:  0E05            L0093:  137D
L0183:  0E24            L0094:  0BA4
L0180:  0E3C            L0095:  064F
L0103:  0ED3            L0096:  8741
L0136:  0EDF            L0097:  87CA
L0023:  0F09            L0098:  86E1
L0188:  0F1F            L0099:  0694
L0013:  0F29            L0100:  0677
L0016:  0F39            L0101:  86F9
L0189:  0F3B            L0102:  8711
L0017:  0F5C            L0103:  0ED3
L0144:  0F6E            L0104:  1370
L0148:  0F82            L0105:  0A24
L0146:  0F8F            L0106:  8523
L0191:  0FB2            L0107:  0BB6
L0192:  0FC1            L0108:  0747
L0075:  0FE3            L0109:  8791
L0193:  1001            L0110:  079F
L0205:  1005            L0111:  0794
L0199:  1012            L0112:  07C6
L0198:  1022            L0113:  07C9
L0196:  102B            L0114:  0819
L0200:  102E            L0115:  080D
L0202:  10BF            L0116:  07EC
L0204:  10C9            L0117:  0840
L0203:  10E3            L0118:  0857
L0208:  10FD            L0119:  1418
L0210:  1146            L0120:  198C
L0211:  114C            L0121:  8898
L0212:  1160            L0122:  0898
L0213:  1173            L0123:  08A4
L0215:  118F            L0124:  1949
L0218:  11B0            L0125:  08BF
L0219:  11BE            L0126:  0BA8
L0214:  11D8            L0127:  889C
L0221:  11F6            L0128:  0925
L0224:  1241            L0129:  195F
L0226:  1244            L0130:  8949
L0228:  128A            L0131:  8996
L0232:  1357            L0132:  0957
L0104:  1370            L0133:  096E
L0093:  137D            L0134:  88B5
L0234:  13A2            L0135:  91F1
L0235:  13A4            L0136:  0EDF
L0238:  13DA            L0137:  09F7
L0237:  13E4            L0138:  09E4
L0239:  140A            L0139:  0A25
L0119:  1418            L0140:  0AAD
L0243:  1433            L0141:  8AF1
L0242:  1443            L0142:  0AD2
L0246:  144A            L0143:  0AEE
L0245:  1454            L0144:  0F6E
L0247:  1457            L0145:  0B2A
L0240:  145B            L0146:  0F8F
L0241:  1464            L0147:  18C3
L0057:  15B2            L0148:  0F82
L0055:  1642            L0149:  0B60
L0182:  1775            L0150:  0B85
L0014:  1790            L0151:  8B43
L0032:  1793            L0152:  8C36
L0005:  179E            L0153:  18BC
L0043:  17A1            L0154:  8C48
L0216:  17AC            L0155:  0C31
L0039:  17AF            L0156:  0C39
L0190:  17BB            L0157:  817C
L0026:  17C4            L0158:  0C44
L0012:  17D1            L0159:  0C6E
L0153:  18BC            L0160:  0C77
L0147:  18C3            L0161:  0C8F
L0004:  18CB            L0162:  0CAA
L0124:  1949            L0163:  8D1D
L0129:  195F            L0164:  8D0E
L0120:  198C            L0165:  0CCA
L0201:  19A7            L0166:  0CDA
L0179:  19F3            L0167:  8CFF
L0007:  1C78            L0168:  0CE8
L0217:  1CCC            L0169:  0867
L0088:  1D6D            L0170:  0D59
L0006:  1D7F            L0171:  8E3F
L0001:  8013            L0172:  0DD8
L0011:  813C            L0173:  0D91
L0003:  8172            L0174:  0DA5
L0157:  817C            L0175:  0DB8
L0019:  8181            L0176:  8DC5
L0015:  81A1            L0177:  0DD1
L0024:  824A            L0178:  0DDF
L0034:  82DA            L0179:  19F3
L0037:  8349            L0180:  0E3C
L0029:  83E1            L0181:  0E05
L0040:  83E2            L0182:  1775
L0033:  8404            L0183:  0E24
L0045:  8418            L0184:  8D4D
L0052:  8428            L0185:  0882
L0054:  842E            L0186:  8E8E
L0053:  8434            L0187:  8E9B
L0047:  843A            L0188:  0F1F
L0085:  8515            L0189:  0F3B
L0106:  8523            L0190:  17BB
L0081:  8649            L0191:  0FB2
L0098:  86E1            L0192:  0FC1
L0101:  86F9            L0193:  1001
L0102:  8711            L0194:  910A
L0087:  871D            L0195:  901C
L0056:  8736            L0196:  102B
L0096:  8741            L0197:  9133
L0109:  8791            L0198:  1022
L0097:  87CA            L0199:  1012
L0061:  87D9            L0200:  102E
L0090:  87EB            L0201:  19A7
L0079:  8875            L0202:  10BF
L0121:  8898            L0203:  10E3
L0069:  8899            L0204:  10C9
L0127:  889C            L0205:  1005
L0134:  88B5            L0206:  8F8E
L0060:  88C0            L0207:  90F8
L0065:  88FB            L0208:  10FD
L0070:  8928            L0209:  8FDD
L0071:  8939            L0210:  1146
L0130:  8949            L0211:  114C
L0062:  8975            L0212:  1160
L0131:  8996            L0213:  1173
L0063:  899F            L0214:  11D8
L0141:  8AF1            L0215:  118F
L0151:  8B43            L0216:  17AC
L0152:  8C36            L0217:  1CCC
L0154:  8C48            L0218:  11B0
L0030:  8C92            L0219:  11BE
L0167:  8CFF            L0220:  0BB0
L0164:  8D0E            L0221:  11F6
L0163:  8D1D            L0222:  9237
L0184:  8D4D            L0223:  9245
L0176:  8DC5            L0224:  1241
L0171:  8E3F            L0225:  92FF
L0186:  8E8E            L0226:  1244
L0187:  8E9B            L0227:  929C
L0206:  8F8E            L0228:  128A
L0209:  8FDD            L0229:  93AB
L0195:  901C            L0230:  9393
L0207:  90F8            L0231:  92F4
L0194:  910A            L0232:  1357
L0197:  9133            L0233:  9396
L0002:  914D            L0234:  13A2
L0048:  91E7            L0235:  13A4
L0046:  91EA            L0236:  93C7
L0135:  91F1            L0237:  13E4
L0222:  9237            L0238:  13DA
L0223:  9245            L0239:  140A
L0227:  929C            L0240:  145B
L0231:  92F4            L0241:  1464
L0225:  92FF            L0242:  1443
L0230:  9393            L0243:  1433
L0233:  9396            L0244:  9433
L0229:  93AB            L0245:  1454
L0236:  93C7            L0246:  144A
L0244:  9433            L0247:  1457
